EXPORTS
	?d_func@QGraphicsItem@@ABEPBVQGraphicsItemPrivate@@XZ @ 1 NONAME ; class QGraphicsItemPrivate const * QGraphicsItem::d_func(void) const
	?setGrid@QDockAreaLayout@@QAEXPAV?$QVector@UQLayoutStruct@@@@0@Z @ 2 NONAME ; void QDockAreaLayout::setGrid(class QVector<struct QLayoutStruct> *, class QVector<struct QLayoutStruct> *)
	?setColumnWidth@QTreeView@@QAEXHH@Z @ 3 NONAME ; void QTreeView::setColumnWidth(int, int)
	?addItem@QToolBox@@QAEHPAVQWidget@@ABVQString@@@Z @ 4 NONAME ; int QToolBox::addItem(class QWidget *, class QString const &)
	?selectAll@QAbstractSpinBox@@QAEXXZ @ 5 NONAME ; void QAbstractSpinBox::selectAll(void)
	?checkedAction@QActionGroup@@QBEPAVQAction@@XZ @ 6 NONAME ; class QAction * QActionGroup::checkedAction(void) const
	?minimumSizeHint@QComboBox@@UBE?AVQSize@@XZ @ 7 NONAME ; class QSize QComboBox::minimumSizeHint(void) const
	?setIcon@QStandardItem@@QAEXABVQIcon@@@Z @ 8 NONAME ; void QStandardItem::setIcon(class QIcon const &)
	?d_func@QGraphicsBloomEffect@@AAEPAVQGraphicsBloomEffectPrivate@@XZ @ 9 NONAME ; class QGraphicsBloomEffectPrivate * QGraphicsBloomEffect::d_func(void)
	?setTabPosition@QMainWindowLayout@@QAEXV?$QFlags@W4DockWidgetArea@Qt@@@@W4TabPosition@QTabWidget@@@Z @ 10 NONAME ; void QMainWindowLayout::setTabPosition(class QFlags<enum Qt::DockWidgetArea>, enum QTabWidget::TabPosition)
	?normalize@QVector2D@@QAEXXZ @ 11 NONAME ; void QVector2D::normalize(void)
	?name@QColor@@QBE?AVQString@@XZ @ 12 NONAME ; class QString QColor::name(void) const
	?openPersistentEditor@QListWidget@@QAEXPAVQListWidgetItem@@@Z @ 13 NONAME ; void QListWidget::openPersistentEditor(class QListWidgetItem *)
	?updateGeometries@QTableView@@MAEXXZ @ 14 NONAME ; void QTableView::updateGeometries(void)
	?contextMenuEvent@QGraphicsView@@MAEXPAVQContextMenuEvent@@@Z @ 15 NONAME ; void QGraphicsView::contextMenuEvent(class QContextMenuEvent *)
	?clearLayout@QTextLayout@@QAEXXZ @ 16 NONAME ; void QTextLayout::clearLayout(void)
	?setOffset@QPixmapDropShadowFilter@@QAEXABVQPointF@@@Z @ 17 NONAME ; void QPixmapDropShadowFilter::setOffset(class QPointF const &)
	?setTextInteractionFlags@QLabel@@QAEXV?$QFlags@W4TextInteractionFlag@Qt@@@@@Z @ 18 NONAME ; void QLabel::setTextInteractionFlags(class QFlags<enum Qt::TextInteractionFlag>)
	?pageBreakPolicy@QTextFrameFormat@@QBE?AV?$QFlags@W4PageBreakFlag@QTextFormat@@@@XZ @ 19 NONAME ; class QFlags<enum QTextFormat::PageBreakFlag> QTextFrameFormat::pageBreakPolicy(void) const
	??0QStyleOptionHeader@@QAE@ABV0@@Z @ 20 NONAME ; QStyleOptionHeader::QStyleOptionHeader(class QStyleOptionHeader const &)
	??0QSlider@@QAE@PAVQWidget@@@Z @ 21 NONAME ; QSlider::QSlider(class QWidget *)
	?textList@QTextBlock@@QBEPAVQTextList@@XZ @ 22 NONAME ; class QTextList * QTextBlock::textList(void) const
	?takeAt@QDockWidgetLayout@@UAEPAVQLayoutItem@@H@Z @ 23 NONAME ; class QLayoutItem * QDockWidgetLayout::takeAt(int)
	?mouseReleaseEvent@QWidget@@MAEXPAVQMouseEvent@@@Z @ 24 NONAME ; void QWidget::mouseReleaseEvent(class QMouseEvent *)
	?tr@QStandardItemModel@@SA?AVQString@@PBD0@Z @ 25 NONAME ; class QString QStandardItemModel::tr(char const *, char const *)
	?scaledSize@QImageReader@@QBE?AVQSize@@XZ @ 26 NONAME ; class QSize QImageReader::scaledSize(void) const
	?tr@QComboBoxPrivateScroller@@SA?AVQString@@PBD0H@Z @ 27 NONAME ; class QString QComboBoxPrivateScroller::tr(char const *, char const *, int)
	?leaveModal_sys@QApplicationPrivate@@SAXPAVQWidget@@@Z @ 28 NONAME ; void QApplicationPrivate::leaveModal_sys(class QWidget *)
	?d_func@QUndoStack@@ABEPBVQUndoStackPrivate@@XZ @ 29 NONAME ; class QUndoStackPrivate const * QUndoStack::d_func(void) const
	??0QPictureIO@@QAE@PAVQIODevice@@PBD@Z @ 30 NONAME ; QPictureIO::QPictureIO(class QIODevice *, char const *)
	?redoGrabAlternate@QActionPrivate@@QAEXAAVQShortcutMap@@@Z @ 31 NONAME ; void QActionPrivate::redoGrabAlternate(class QShortcutMap &)
	??_EQGraphicsSceneContextMenuEvent@@UAE@I@Z @ 32 NONAME ; QGraphicsSceneContextMenuEvent::~QGraphicsSceneContextMenuEvent(unsigned int)
	?undo@QUndoStack@@QAEXXZ @ 33 NONAME ; void QUndoStack::undo(void)
	?setDateTime@QDateTimeEdit@@QAEXABVQDateTime@@@Z @ 34 NONAME ; void QDateTimeEdit::setDateTime(class QDateTime const &)
	??1QGraphicsSystemPlugin@@UAE@XZ @ 35 NONAME ; QGraphicsSystemPlugin::~QGraphicsSystemPlugin(void)
	?rowsInserted@QListView@@MAEXABVQModelIndex@@HH@Z @ 36 NONAME ; void QListView::rowsInserted(class QModelIndex const &, int, int)
	?popup@QCompleter@@QBEPAVQAbstractItemView@@XZ @ 37 NONAME ; class QAbstractItemView * QCompleter::popup(void) const
	?fixup@QSpinBox@@MBEXAAVQString@@@Z @ 38 NONAME ; void QSpinBox::fixup(class QString &) const
	?setStaticContents@QWindowSurface@@QAEXABVQRegion@@@Z @ 39 NONAME ; void QWindowSurface::setStaticContents(class QRegion const &)
	?isTristate@QCheckBox@@QBE_NXZ @ 40 NONAME ; bool QCheckBox::isTristate(void) const
	?setMinimumWidth@QGraphicsLayoutItem@@QAEXM@Z @ 41 NONAME ; void QGraphicsLayoutItem::setMinimumWidth(float)
	??_EQToolBarChangeEvent@@UAE@I@Z @ 42 NONAME ; QToolBarChangeEvent::~QToolBarChangeEvent(unsigned int)
	?saveWidgetFont@QStyleSheetStyle@@QBEXPAVQWidget@@ABVQFont@@@Z @ 43 NONAME ; void QStyleSheetStyle::saveWidgetFont(class QWidget *, class QFont const &) const
	?invalidateBuffer_resizeHelper@QWidgetPrivate@@QAEXABVQPoint@@ABVQSize@@@Z @ 44 NONAME ; void QWidgetPrivate::invalidateBuffer_resizeHelper(class QPoint const &, class QSize const &)
	?setLabel@QProgressDialog@@QAEXPAVQLabel@@@Z @ 45 NONAME ; void QProgressDialog::setLabel(class QLabel *)
	?setStack@QUndoView@@QAEXPAVQUndoStack@@@Z @ 46 NONAME ; void QUndoView::setStack(class QUndoStack *)
	?setIsMemberOfGroup@QGraphicsItemPrivate@@QAEX_N@Z @ 47 NONAME ; void QGraphicsItemPrivate::setIsMemberOfGroup(bool)
	?quadTo@QPainterPath@@QAEXMMMM@Z @ 48 NONAME ; void QPainterPath::quadTo(float, float, float, float)
	?dragEnterEvent@QAbstractScrollArea@@MAEXPAVQDragEnterEvent@@@Z @ 49 NONAME ; void QAbstractScrollArea::dragEnterEvent(class QDragEnterEvent *)
	?setStatusTip@QAction@@QAEXABVQString@@@Z @ 50 NONAME ; void QAction::setStatusTip(class QString const &)
	?d_func@QGraphicsSceneContextMenuEvent@@ABEPBVQGraphicsSceneContextMenuEventPrivate@@XZ @ 51 NONAME ; class QGraphicsSceneContextMenuEventPrivate const * QGraphicsSceneContextMenuEvent::d_func(void) const
	?mouseDoubleClickEvent@QColumnViewGrip@@MAEXPAVQMouseEvent@@@Z @ 52 NONAME ; void QColumnViewGrip::mouseDoubleClickEvent(class QMouseEvent *)
	?qt_metacast@QAbstractTextDocumentLayout@@UAEPAXPBD@Z @ 53 NONAME ; void * QAbstractTextDocumentLayout::qt_metacast(char const *)
	?verticalOffset@QListView@@MBEHXZ @ 54 NONAME ; int QListView::verticalOffset(void) const
	?staticMetaObject@QGraphicsProxyWidget@@2UQMetaObject@@B @ 55 NONAME ; struct QMetaObject const QGraphicsProxyWidget::staticMetaObject
	?deref@QPixmap@@AAEXXZ @ 56 NONAME ; void QPixmap::deref(void)
	?clearContents@QTableWidget@@QAEXXZ @ 57 NONAME ; void QTableWidget::clearContents(void)
	?selectionChanged@QListView@@MAEXABVQItemSelection@@0@Z @ 58 NONAME ; void QListView::selectionChanged(class QItemSelection const &, class QItemSelection const &)
	?takeRow@QStandardItemModel@@QAE?AV?$QList@PAVQStandardItem@@@@H@Z @ 59 NONAME ; class QList<class QStandardItem *> QStandardItemModel::takeRow(int)
	??BQPixmap@@QBE?AVQVariant@@XZ @ 60 NONAME ; QPixmap::operator class QVariant(void) const
	?tr@QGraphicsProxyWidget@@SA?AVQString@@PBD0H@Z @ 61 NONAME ; class QString QGraphicsProxyWidget::tr(char const *, char const *, int)
	?selectionStart@QLineControl@@QBEHXZ @ 62 NONAME ; int QLineControl::selectionStart(void) const
	??0QPicture@@IAE@AAVQPicturePrivate@@@Z @ 63 NONAME ; QPicture::QPicture(class QPicturePrivate &)
	??1QFontComboBox@@UAE@XZ @ 64 NONAME ; QFontComboBox::~QFontComboBox(void)
	?getStaticMetaObject@QCompleter@@SAABUQMetaObject@@XZ @ 65 NONAME ; struct QMetaObject const & QCompleter::getStaticMetaObject(void)
	?addPage@QWizard@@QAEHPAVQWizardPage@@@Z @ 66 NONAME ; int QWizard::addPage(class QWizardPage *)
	?setSortCacheEnabled@QGraphicsScene@@QAEX_N@Z @ 67 NONAME ; void QGraphicsScene::setSortCacheEnabled(bool)
	?setGeometry_sys@QWidgetPrivate@@QAEXHHHH_N@Z @ 68 NONAME ; void QWidgetPrivate::setGeometry_sys(int, int, int, int, bool)
	??_EQFileInfoGatherer@@UAE@I@Z @ 69 NONAME ; QFileInfoGatherer::~QFileInfoGatherer(unsigned int)
	?qt_metacast@QFileDialog@@UAEPAXPBD@Z @ 70 NONAME ; void * QFileDialog::qt_metacast(char const *)
	?fontLetterSpacing@QTextCharFormat@@QBEMXZ @ 71 NONAME ; float QTextCharFormat::fontLetterSpacing(void) const
	?x@QVector3D@@QBEMXZ @ 72 NONAME ; float QVector3D::x(void) const
	?tr@QCheckBox@@SA?AVQString@@PBD0H@Z @ 73 NONAME ; class QString QCheckBox::tr(char const *, char const *, int)
	?popupWidgets@QApplicationPrivate@@2PAV?$QList@PAVQWidget@@@@A @ 74 NONAME ; class QList<class QWidget *> * QApplicationPrivate::popupWidgets
	?initialSelection@QFileDialogPrivate@@SA?AVQString@@ABV2@@Z @ 75 NONAME ; class QString QFileDialogPrivate::initialSelection(class QString const &)
	??8QMatrix4x4@@QBE_NABV0@@Z @ 76 NONAME ; bool QMatrix4x4::operator==(class QMatrix4x4 const &) const
	?getStaticMetaObject@QGridLayout@@SAABUQMetaObject@@XZ @ 77 NONAME ; struct QMetaObject const & QGridLayout::getStaticMetaObject(void)
	?setGridStyle@QTableView@@QAEXW4PenStyle@Qt@@@Z @ 78 NONAME ; void QTableView::setGridStyle(enum Qt::PenStyle)
	?cellActivated@QTableWidget@@IAEXHH@Z @ 79 NONAME ; void QTableWidget::cellActivated(int, int)
	?borderBrush@QTextFrameFormat@@QBE?AVQBrush@@XZ @ 80 NONAME ; class QBrush QTextFrameFormat::borderBrush(void) const
	?staticMetaObject@QToolBox@@2UQMetaObject@@B @ 81 NONAME ; struct QMetaObject const QToolBox::staticMetaObject
	?setMenu@QAction@@QAEXPAVQMenu@@@Z @ 82 NONAME ; void QAction::setMenu(class QMenu *)
	?metric@QPaintDevice@@MBEHW4PaintDeviceMetric@1@@Z @ 83 NONAME ; int QPaintDevice::metric(enum QPaintDevice::PaintDeviceMetric) const
	?color@QPen@@QBE?AVQColor@@XZ @ 84 NONAME ; class QColor QPen::color(void) const
	?setDoubleMaximum@QInputDialog@@QAEXN@Z @ 85 NONAME ; void QInputDialog::setDoubleMaximum(double)
	?quitOnLastWindowClosed@QApplication@@SA_NXZ @ 86 NONAME ; bool QApplication::quitOnLastWindowClosed(void)
	?tr@QDataWidgetMapper@@SA?AVQString@@PBD0H@Z @ 87 NONAME ; class QString QDataWidgetMapper::tr(char const *, char const *, int)
	?currentIndexChanged@QDataWidgetMapper@@IAEXH@Z @ 88 NONAME ; void QDataWidgetMapper::currentIndexChanged(int)
	??1QStyleHintReturn@@QAE@XZ @ 89 NONAME ; QStyleHintReturn::~QStyleHintReturn(void)
	??_EQWindowSurface@@UAE@I@Z @ 90 NONAME ; QWindowSurface::~QWindowSurface(unsigned int)
	?setStatusTip@QListWidgetItem@@QAEXABVQString@@@Z @ 91 NONAME ; void QListWidgetItem::setStatusTip(class QString const &)
	?appendColumn@QStandardItem@@QAEXABV?$QList@PAVQStandardItem@@@@@Z @ 92 NONAME ; void QStandardItem::appendColumn(class QList<class QStandardItem *> const &)
	?insertBlock@QTextCursor@@QAEXABVQTextBlockFormat@@ABVQTextCharFormat@@@Z @ 93 NONAME ; void QTextCursor::insertBlock(class QTextBlockFormat const &, class QTextCharFormat const &)
	?metaObject@QGraphicsOpacityEffect@@UBEPBUQMetaObject@@XZ @ 94 NONAME ; struct QMetaObject const * QGraphicsOpacityEffect::metaObject(void) const
	?focusNextPrevChild@QLabel@@MAE_N_N@Z @ 95 NONAME ; bool QLabel::focusNextPrevChild(bool)
	?metaObject@QSlider@@UBEPBUQMetaObject@@XZ @ 96 NONAME ; struct QMetaObject const * QSlider::metaObject(void) const
	?ensureBlockLayout@QPlainTextDocumentLayout@@QBEXABVQTextBlock@@@Z @ 97 NONAME ; void QPlainTextDocumentLayout::ensureBlockLayout(class QTextBlock const &) const
	?stroke@QPaintEngineEx@@UAEXABVQVectorPath@@ABVQPen@@@Z @ 98 NONAME ; void QPaintEngineEx::stroke(class QVectorPath const &, class QPen const &)
	?filtersChildEvents@QGraphicsItem@@QBE_NXZ @ 99 NONAME ; bool QGraphicsItem::filtersChildEvents(void) const
	?addWidget@QGraphicsScene@@QAEPAVQGraphicsProxyWidget@@PAVQWidget@@V?$QFlags@W4WindowType@Qt@@@@@Z @ 100 NONAME ; class QGraphicsProxyWidget * QGraphicsScene::addWidget(class QWidget *, class QFlags<enum Qt::WindowType>)
	?setWindowTitle_sys@QWidgetPrivate@@QAEXABVQString@@@Z @ 101 NONAME ; void QWidgetPrivate::setWindowTitle_sys(class QString const &)
	?setDirtyOpaqueRegion@QWidgetPrivate@@QAEXXZ @ 102 NONAME ; void QWidgetPrivate::setDirtyOpaqueRegion(void)
	?startSeparatorMove@QMainWindowLayout@@QAE_NABVQPoint@@@Z @ 103 NONAME ; bool QMainWindowLayout::startSeparatorMove(class QPoint const &)
	??0QIcon@@QAE@PAVQIconEngineV2@@@Z @ 104 NONAME ; QIcon::QIcon(class QIconEngineV2 *)
	?qt_metacall@QFileSystemModel@@UAEHW4Call@QMetaObject@@HPAPAX@Z @ 105 NONAME ; int QFileSystemModel::qt_metacall(enum QMetaObject::Call, int, void * *)
	?getStaticMetaObject@QGraphicsDropShadowEffect@@SAABUQMetaObject@@XZ @ 106 NONAME ; struct QMetaObject const & QGraphicsDropShadowEffect::getStaticMetaObject(void)
	?staticMetaObject@QGraphicsPixelizeEffect@@2UQMetaObject@@B @ 107 NONAME ; struct QMetaObject const QGraphicsPixelizeEffect::staticMetaObject
	?eraseRect@QPainter@@QAEXHHHH@Z @ 108 NONAME ; void QPainter::eraseRect(int, int, int, int)
	?gotFocus@QFocusEvent@@QBE_NXZ @ 109 NONAME ; bool QFocusEvent::gotFocus(void) const
	?setLayout@QWidget@@QAEXPAVQLayout@@@Z @ 110 NONAME ; void QWidget::setLayout(class QLayout *)
	?qt_metacast@QListWidget@@UAEPAXPBD@Z @ 111 NONAME ; void * QListWidget::qt_metacast(char const *)
	?isActive@QPainter@@QBE_NXZ @ 112 NONAME ; bool QPainter::isActive(void) const
	?drawLine@QPainter@@QAEXABVQLineF@@@Z @ 113 NONAME ; void QPainter::drawLine(class QLineF const &)
	?tr@QGraphicsWidget@@SA?AVQString@@PBD0H@Z @ 114 NONAME ; class QString QGraphicsWidget::tr(char const *, char const *, int)
	?hasHeightForWidth@QSizePolicy@@QBE_NXZ @ 115 NONAME ; bool QSizePolicy::hasHeightForWidth(void) const
	?metaObject@QPictureFormatPlugin@@UBEPBUQMetaObject@@XZ @ 116 NONAME ; struct QMetaObject const * QPictureFormatPlugin::metaObject(void) const
	?setColumnStretch@QGridLayout@@QAEXHH@Z @ 117 NONAME ; void QGridLayout::setColumnStretch(int, int)
	?mirrored@QImage@@QBE?AV1@_N0@Z @ 118 NONAME ; class QImage QImage::mirrored(bool, bool) const
	?createHandle@QSplitter@@MAEPAVQSplitterHandle@@XZ @ 119 NONAME ; class QSplitterHandle * QSplitter::createHandle(void)
	?metric@QRasterPixmapData@@MBEHW4PaintDeviceMetric@QPaintDevice@@@Z @ 120 NONAME ; int QRasterPixmapData::metric(enum QPaintDevice::PaintDeviceMetric) const
	??0QHideEvent@@QAE@XZ @ 121 NONAME ; QHideEvent::QHideEvent(void)
	?removeDockWidget@QMainWindow@@QAEXPAVQDockWidget@@@Z @ 122 NONAME ; void QMainWindow::removeDockWidget(class QDockWidget *)
	?calendarWidget@QDateTimeEdit@@QBEPAVQCalendarWidget@@XZ @ 123 NONAME ; class QCalendarWidget * QDateTimeEdit::calendarWidget(void) const
	?canRead@QImageReader@@QBE_NXZ @ 124 NONAME ; bool QImageReader::canRead(void) const
	?qt_metacall@QCheckBox@@UAEHW4Call@QMetaObject@@HPAPAX@Z @ 125 NONAME ; int QCheckBox::qt_metacall(enum QMetaObject::Call, int, void * *)
	?updatesEnabled@QWidget@@QBE_NXZ @ 126 NONAME ; bool QWidget::updatesEnabled(void) const
	?trUtf8@QStatusBar@@SA?AVQString@@PBD0@Z @ 127 NONAME ; class QString QStatusBar::trUtf8(char const *, char const *)
	??5@YAAAVQDataStream@@AAV0@AAVQPolygonF@@@Z @ 128 NONAME ; class QDataStream & operator>>(class QDataStream &, class QPolygonF &)
	?clear@QUndoStack@@QAEXXZ @ 129 NONAME ; void QUndoStack::clear(void)
	??0QCursor@@QAE@W4CursorShape@Qt@@@Z @ 130 NONAME ; QCursor::QCursor(enum Qt::CursorShape)
	?setSizeGripEnabled@QDialog@@QAEX_N@Z @ 131 NONAME ; void QDialog::setSizeGripEnabled(bool)
	?tr@QListWidget@@SA?AVQString@@PBD0@Z @ 132 NONAME ; class QString QListWidget::tr(char const *, char const *)
	?setOverwriteMode@QPlainTextEdit@@QAEX_N@Z @ 133 NONAME ; void QPlainTextEdit::setOverwriteMode(bool)
	?focusPreviousChild@QWidget@@IAE_NXZ @ 134 NONAME ; bool QWidget::focusPreviousChild(void)
	?setDescription@QImageWriter@@QAEXABVQString@@@Z @ 135 NONAME ; void QImageWriter::setDescription(class QString const &)
	?hitTest@QTextDocumentLayout@@UBEHABVQPointF@@W4HitTestAccuracy@Qt@@@Z @ 136 NONAME ; int QTextDocumentLayout::hitTest(class QPointF const &, enum Qt::HitTestAccuracy) const
	?createMimeDataFromSelection@QTextControl@@UBEPAVQMimeData@@XZ @ 137 NONAME ; class QMimeData * QTextControl::createMimeDataFromSelection(void) const
	?value@QColor@@QBEHXZ @ 138 NONAME ; int QColor::value(void) const
	?realValue@Declaration@QCss@@QBE_NPAMPBD@Z @ 139 NONAME ; bool QCss::Declaration::realValue(float *, char const *) const
	??_EQShortcutEvent@@UAE@I@Z @ 140 NONAME ; QShortcutEvent::~QShortcutEvent(unsigned int)
	?tr@QTextBrowser@@SA?AVQString@@PBD0H@Z @ 141 NONAME ; class QString QTextBrowser::tr(char const *, char const *, int)
	?setIconProvider@QFileSystemModel@@QAEXPAVQFileIconProvider@@@Z @ 142 NONAME ; void QFileSystemModel::setIconProvider(class QFileIconProvider *)
	?setStrength@QGraphicsBloomEffect@@QAEXM@Z @ 143 NONAME ; void QGraphicsBloomEffect::setStrength(float)
	?map@QMatrix4x4@@QBE?AVQVector4D@@ABV2@@Z @ 144 NONAME ; class QVector4D QMatrix4x4::map(class QVector4D const &) const
	?clearSpans@QTableView@@QAEXXZ @ 145 NONAME ; void QTableView::clearSpans(void)
	?tr@QPanGesture@@SA?AVQString@@PBD0@Z @ 146 NONAME ; class QString QPanGesture::tr(char const *, char const *)
	?alignment@QGraphicsView@@QBE?AV?$QFlags@W4AlignmentFlag@Qt@@@@XZ @ 147 NONAME ; class QFlags<enum Qt::AlignmentFlag> QGraphicsView::alignment(void) const
	?alternatingRowColors@QAbstractItemView@@QBE_NXZ @ 148 NONAME ; bool QAbstractItemView::alternatingRowColors(void) const
	?sectionEntered@QHeaderView@@IAEXH@Z @ 149 NONAME ; void QHeaderView::sectionEntered(int)
	?removeCenterAnchors@QGraphicsAnchorLayoutPrivate@@QAEXPAVQGraphicsLayoutItem@@W4AnchorPoint@Qt@@_N@Z @ 150 NONAME ; void QGraphicsAnchorLayoutPrivate::removeCenterAnchors(class QGraphicsLayoutItem *, enum Qt::AnchorPoint, bool)
	?setStretch@QBoxLayout@@QAEXHH@Z @ 151 NONAME ; void QBoxLayout::setStretch(int, int)
	?pos@QHoverEvent@@QBEABVQPoint@@XZ @ 152 NONAME ; class QPoint const & QHoverEvent::pos(void) const
	?tr@QMouseEventTransition@@SA?AVQString@@PBD0@Z @ 153 NONAME ; class QString QMouseEventTransition::tr(char const *, char const *)
	?initializePage@QWizardPage@@UAEXXZ @ 154 NONAME ; void QWizardPage::initializePage(void)
	?dragDropOverwriteMode@QAbstractItemView@@QBE_NXZ @ 155 NONAME ; bool QAbstractItemView::dragDropOverwriteMode(void) const
	?takeChildren@QTreeWidgetItem@@QAE?AV?$QList@PAVQTreeWidgetItem@@@@XZ @ 156 NONAME ; class QList<class QTreeWidgetItem *> QTreeWidgetItem::takeChildren(void)
	?AppDllUid@QS60MainApplication@@UBE?AVTUid@@XZ @ 157 NONAME ; class TUid QS60MainApplication::AppDllUid(void) const
	??0QStyleOptionFocusRect@@IAE@H@Z @ 158 NONAME ; QStyleOptionFocusRect::QStyleOptionFocusRect(int)
	?setAngle@QConicalGradient@@QAEXM@Z @ 159 NONAME ; void QConicalGradient::setAngle(float)
	??BQKeySequence@@QBE?AVQString@@XZ @ 160 NONAME ; QKeySequence::operator class QString(void) const
	?whatsThis@QTreeWidgetItem@@QBE?AVQString@@H@Z @ 161 NONAME ; class QString QTreeWidgetItem::whatsThis(int) const
	?setIconText@QAction@@QAEXABVQString@@@Z @ 162 NONAME ; void QAction::setIconText(class QString const &)
	?cursorBackward@QLineEdit@@QAEX_NH@Z @ 163 NONAME ; void QLineEdit::cursorBackward(bool, int)
	?unite@QTextDocumentPrivate@@AAE_NI@Z @ 164 NONAME ; bool QTextDocumentPrivate::unite(unsigned int)
	?setCompletionMode@QCompleter@@QAEXW4CompletionMode@1@@Z @ 165 NONAME ; void QCompleter::setCompletionMode(enum QCompleter::CompletionMode)
	?metaObject@QGroupBox@@UBEPBUQMetaObject@@XZ @ 166 NONAME ; struct QMetaObject const * QGroupBox::metaObject(void) const
	?redoText@QUndoStack@@QBE?AVQString@@XZ @ 167 NONAME ; class QString QUndoStack::redoText(void) const
	?dropEvent@QTableWidget@@MAEXPAVQDropEvent@@@Z @ 168 NONAME ; void QTableWidget::dropEvent(class QDropEvent *)
	?setPalette@QToolTip@@SAXABVQPalette@@@Z @ 169 NONAME ; void QToolTip::setPalette(class QPalette const &)
	?tr@QGraphicsPixelizeEffect@@SA?AVQString@@PBD0@Z @ 170 NONAME ; class QString QGraphicsPixelizeEffect::tr(char const *, char const *)
	?read@QImageReader@@QAE?AVQImage@@XZ @ 171 NONAME ; class QImage QImageReader::read(void)
	?styleSheetPalette@QStyleSheetStyle@@QAE_NPBVQWidget@@PBVQStyleOption@@PAVQPalette@@@Z @ 172 NONAME ; bool QStyleSheetStyle::styleSheetPalette(class QWidget const *, class QStyleOption const *, class QPalette *)
	?tr@QPinchGesture@@SA?AVQString@@PBD0@Z @ 173 NONAME ; class QString QPinchGesture::tr(char const *, char const *)
	?setRadius@QRadialGradient@@QAEXM@Z @ 174 NONAME ; void QRadialGradient::setRadius(float)
	?d_func@QTabBar@@AAEPAVQTabBarPrivate@@XZ @ 175 NONAME ; class QTabBarPrivate * QTabBar::d_func(void)
	?width@QFontMetrics@@QBEHVQChar@@@Z @ 176 NONAME ; int QFontMetrics::width(class QChar) const
	?setCurrentCell@QTableWidget@@QAEXHHV?$QFlags@W4SelectionFlag@QItemSelectionModel@@@@@Z @ 177 NONAME ; void QTableWidget::setCurrentCell(int, int, class QFlags<enum QItemSelectionModel::SelectionFlag>)
	?metaObject@QDialog@@UBEPBUQMetaObject@@XZ @ 178 NONAME ; struct QMetaObject const * QDialog::metaObject(void) const
	?event@QComboBox@@UAE_NPAVQEvent@@@Z @ 179 NONAME ; bool QComboBox::event(class QEvent *)
	?labelAlignment@QFormLayout@@QBE?AV?$QFlags@W4AlignmentFlag@Qt@@@@XZ @ 180 NONAME ; class QFlags<enum Qt::AlignmentFlag> QFormLayout::labelAlignment(void) const
	?changeEvent@QMenuBar@@MAEXPAVQEvent@@@Z @ 181 NONAME ; void QMenuBar::changeEvent(class QEvent *)
	?tr@QActionGroup@@SA?AVQString@@PBD0@Z @ 182 NONAME ; class QString QActionGroup::tr(char const *, char const *)
	?messageChanged@QStatusBar@@IAEXABVQString@@@Z @ 183 NONAME ; void QStatusBar::messageChanged(class QString const &)
	?viewOptionsV4@QAbstractItemViewPrivate@@QBE?AVQStyleOptionViewItemV4@@XZ @ 184 NONAME ; class QStyleOptionViewItemV4 QAbstractItemViewPrivate::viewOptionsV4(void) const
	?mapToScene@QGestureEvent@@QBE?AVQPointF@@ABV2@@Z @ 185 NONAME ; class QPointF QGestureEvent::mapToScene(class QPointF const &) const
	?quality@QImageWriter@@QBEHXZ @ 186 NONAME ; int QImageWriter::quality(void) const
	?setGeometry@QSpacerItem@@UAEXABVQRect@@@Z @ 187 NONAME ; void QSpacerItem::setGeometry(class QRect const &)
	?isActive@QGraphicsItem@@QBE_NXZ @ 188 NONAME ; bool QGraphicsItem::isActive(void) const
	?d_func@QGraphicsLayout@@ABEPBVQGraphicsLayoutPrivate@@XZ @ 189 NONAME ; class QGraphicsLayoutPrivate const * QGraphicsLayout::d_func(void) const
	??0QSizePolicy@@QAE@W4Policy@0@0@Z @ 190 NONAME ; QSizePolicy::QSizePolicy(enum QSizePolicy::Policy, enum QSizePolicy::Policy)
	??1QListView@@UAE@XZ @ 191 NONAME ; QListView::~QListView(void)
	?setReadOnly@QFileSystemModel@@QAEX_N@Z @ 192 NONAME ; void QFileSystemModel::setReadOnly(bool)
	?addDefaultSuffixToFiles@QFileDialogPrivate@@QBE?AVQStringList@@V2@@Z @ 193 NONAME ; class QStringList QFileDialogPrivate::addDefaultSuffixToFiles(class QStringList) const
	??YQQuaternion@@QAEAAV0@ABV0@@Z @ 194 NONAME ; class QQuaternion & QQuaternion::operator+=(class QQuaternion const &)
	?focusNextPrevChild@QDateTimeEdit@@MAE_N_N@Z @ 195 NONAME ; bool QDateTimeEdit::focusNextPrevChild(bool)
	?resetButton@QComboBoxPrivateContainer@@IAEXXZ @ 196 NONAME ; void QComboBoxPrivateContainer::resetButton(void)
	??4QPen@@QAEAAV0@ABV0@@Z @ 197 NONAME ; class QPen & QPen::operator=(class QPen const &)
	?itemAt@QTreeWidget@@QBEPAVQTreeWidgetItem@@ABVQPoint@@@Z @ 198 NONAME ; class QTreeWidgetItem * QTreeWidget::itemAt(class QPoint const &) const
	?setFont@QToolTip@@SAXABVQFont@@@Z @ 199 NONAME ; void QToolTip::setFont(class QFont const &)
	?staticMetaObject@QStyledItemDelegate@@2UQMetaObject@@B @ 200 NONAME ; struct QMetaObject const QStyledItemDelegate::staticMetaObject
	?paintEvent@QSizeGrip@@MAEXPAVQPaintEvent@@@Z @ 201 NONAME ; void QSizeGrip::paintEvent(class QPaintEvent *)
	?fromHsl@QColor@@SA?AV1@HHHH@Z @ 202 NONAME ; class QColor QColor::fromHsl(int, int, int, int)
	?d_func@QGraphicsPathItem@@AAEPAVQGraphicsPathItemPrivate@@XZ @ 203 NONAME ; class QGraphicsPathItemPrivate * QGraphicsPathItem::d_func(void)
	?isLayout@QGraphicsLayoutItem@@QBE_NXZ @ 204 NONAME ; bool QGraphicsLayoutItem::isLayout(void) const
	?trUtf8@QGraphicsColorizeEffect@@SA?AVQString@@PBD0@Z @ 205 NONAME ; class QString QGraphicsColorizeEffect::trUtf8(char const *, char const *)
	?hasChildren@QDirModel@@UBE_NABVQModelIndex@@@Z @ 206 NONAME ; bool QDirModel::hasChildren(class QModelIndex const &) const
	?qt_metacall@QLineEdit@@UAEHW4Call@QMetaObject@@HPAPAX@Z @ 207 NONAME ; int QLineEdit::qt_metacall(enum QMetaObject::Call, int, void * *)
	?d_func@QComboBox@@AAEPAVQComboBoxPrivate@@XZ @ 208 NONAME ; class QComboBoxPrivate * QComboBox::d_func(void)
	?blocksBegin@QTextDocumentPrivate@@QBE?AVQTextBlock@@XZ @ 209 NONAME ; class QTextBlock QTextDocumentPrivate::blocksBegin(void) const
	?startDrag@QListView@@MAEXV?$QFlags@W4DropAction@Qt@@@@@Z @ 210 NONAME ; void QListView::startDrag(class QFlags<enum Qt::DropAction>)
	?sliderValueFromPosition@QStyle@@SAHHHHH_N@Z @ 211 NONAME ; int QStyle::sliderValueFromPosition(int, int, int, int, bool)
	?activeAction@QMenu@@QBEPAVQAction@@XZ @ 212 NONAME ; class QAction * QMenu::activeAction(void) const
	??1QVBoxLayout@@UAE@XZ @ 213 NONAME ; QVBoxLayout::~QVBoxLayout(void)
	?toAffine@QMatrix4x4@@QBE?AVQMatrix@@XZ @ 214 NONAME ; class QMatrix QMatrix4x4::toAffine(void) const
	?executeImageHooks@QImagePixmapCleanupHooks@@SAX_J@Z @ 215 NONAME ; void QImagePixmapCleanupHooks::executeImageHooks(long long)
	?font@QGraphicsTextItem@@QBE?AVQFont@@XZ @ 216 NONAME ; class QFont QGraphicsTextItem::font(void) const
	?cursorRect@QLineControl@@QBE?AVQRect@@XZ @ 217 NONAME ; class QRect QLineControl::cursorRect(void) const
	?qt_metacall@QShortcut@@UAEHW4Call@QMetaObject@@HPAPAX@Z @ 218 NONAME ; int QShortcut::qt_metacall(enum QMetaObject::Call, int, void * *)
	?positionInlineObject@QTextDocumentLayout@@MAEXVQTextInlineObject@@HABVQTextFormat@@@Z @ 219 NONAME ; void QTextDocumentLayout::positionInlineObject(class QTextInlineObject, int, class QTextFormat const &)
	?viewportEvent@QHeaderView@@MAE_NPAVQEvent@@@Z @ 220 NONAME ; bool QHeaderView::viewportEvent(class QEvent *)
	?staticMetaObject@QSpinBox@@2UQMetaObject@@B @ 221 NONAME ; struct QMetaObject const QSpinBox::staticMetaObject
	??_EQSyntaxHighlighter@@UAE@I@Z @ 222 NONAME ; QSyntaxHighlighter::~QSyntaxHighlighter(unsigned int)
	?hasAcceptableInput@QAbstractSpinBox@@QBE_NXZ @ 223 NONAME ; bool QAbstractSpinBox::hasAcceptableInput(void) const
	?sortIndicatorSection@QHeaderView@@QBEHXZ @ 224 NONAME ; int QHeaderView::sortIndicatorSection(void) const
	?scenePos@QGraphicsSceneDragDropEvent@@QBE?AVQPointF@@XZ @ 225 NONAME ; class QPointF QGraphicsSceneDragDropEvent::scenePos(void) const
	?top@QItemSelectionRange@@QBEHXZ @ 226 NONAME ; int QItemSelectionRange::top(void) const
	?setZValue@QGraphicsItem@@QAEXM@Z @ 227 NONAME ; void QGraphicsItem::setZValue(float)
	??1QShowEvent@@UAE@XZ @ 228 NONAME ; QShowEvent::~QShowEvent(void)
	?m22@QMatrix@@QBEMXZ @ 229 NONAME ; float QMatrix::m22(void) const
	??0QGraphicsProxyWidget@@QAE@PAVQGraphicsItem@@V?$QFlags@W4WindowType@Qt@@@@@Z @ 230 NONAME ; QGraphicsProxyWidget::QGraphicsProxyWidget(class QGraphicsItem *, class QFlags<enum Qt::WindowType>)
	??6@YAAAVQDataStream@@AAV0@ABVQVector3D@@@Z @ 231 NONAME ; class QDataStream & operator<<(class QDataStream &, class QVector3D const &)
	?setDefaultStyleSheet@QTextDocument@@QAEXABVQString@@@Z @ 232 NONAME ; void QTextDocument::setDefaultStyleSheet(class QString const &)
	?addChildLayoutItem@QGraphicsLayoutPrivate@@QAEXPAVQGraphicsLayoutItem@@@Z @ 233 NONAME ; void QGraphicsLayoutPrivate::addChildLayoutItem(class QGraphicsLayoutItem *)
	?moveTo@QPainterPath@@QAEXABVQPointF@@@Z @ 234 NONAME ; void QPainterPath::moveTo(class QPointF const &)
	?d_func@QMovie@@ABEPBVQMoviePrivate@@XZ @ 235 NONAME ; class QMoviePrivate const * QMovie::d_func(void) const
	?q_func@QFileSystemModelPrivate@@ABEPBVQFileSystemModel@@XZ @ 236 NONAME ; class QFileSystemModel const * QFileSystemModelPrivate::q_func(void) const
	?metaObject@QProgressBar@@UBEPBUQMetaObject@@XZ @ 237 NONAME ; struct QMetaObject const * QProgressBar::metaObject(void) const
	?trUtf8@QGraphicsScene@@SA?AVQString@@PBD0@Z @ 238 NONAME ; class QString QGraphicsScene::trUtf8(char const *, char const *)
	??1QActionGroup@@UAE@XZ @ 239 NONAME ; QActionGroup::~QActionGroup(void)
	?font@QListWidgetItem@@QBE?AVQFont@@XZ @ 240 NONAME ; class QFont QListWidgetItem::font(void) const
	?size@QTextDocument@@QBE?AVQSizeF@@XZ @ 241 NONAME ; class QSizeF QTextDocument::size(void) const
	?metaObject@QMovie@@UBEPBUQMetaObject@@XZ @ 242 NONAME ; struct QMetaObject const * QMovie::metaObject(void) const
	?mainWindowLayout@QDockAreaLayoutInfo@@QBEPAVQMainWindowLayout@@XZ @ 243 NONAME ; class QMainWindowLayout * QDockAreaLayoutInfo::mainWindowLayout(void) const
	?cursorToX@QLineControl@@QBEMXZ @ 244 NONAME ; float QLineControl::cursorToX(void) const
	?anchorName@QTextCharFormat@@QBE?AVQString@@XZ @ 245 NONAME ; class QString QTextCharFormat::anchorName(void) const
	?select@QItemSelectionModel@@UAEXABVQModelIndex@@V?$QFlags@W4SelectionFlag@QItemSelectionModel@@@@@Z @ 246 NONAME ; void QItemSelectionModel::select(class QModelIndex const &, class QFlags<enum QItemSelectionModel::SelectionFlag>)
	?restoreState@QSplitter@@QAE_NABVQByteArray@@@Z @ 247 NONAME ; bool QSplitter::restoreState(class QByteArray const &)
	?minimum@QAbstractSlider@@QBEHXZ @ 248 NONAME ; int QAbstractSlider::minimum(void) const
	?format@QImageReader@@QBE?AVQByteArray@@XZ @ 249 NONAME ; class QByteArray QImageReader::format(void) const
	?removePath@QFileInfoGatherer@@QAEXABVQString@@@Z @ 250 NONAME ; void QFileInfoGatherer::removePath(class QString const &)
	?point@QPolygon@@QBE?AVQPoint@@H@Z @ 251 NONAME ; class QPoint QPolygon::point(int) const
	?exists@QZipWriter@@QBE_NXZ @ 252 NONAME ; bool QZipWriter::exists(void) const
	?fontStrikeOut@QTextCharFormat@@QBE_NXZ @ 253 NONAME ; bool QTextCharFormat::fontStrikeOut(void) const
	?_q_rowsInserted@QFileDialogPrivate@@QAEXABVQModelIndex@@@Z @ 254 NONAME ; void QFileDialogPrivate::_q_rowsInserted(class QModelIndex const &)
	?qt_metacall@QDialogButtonBox@@UAEHW4Call@QMetaObject@@HPAPAX@Z @ 255 NONAME ; int QDialogButtonBox::qt_metacall(enum QMetaObject::Call, int, void * *)
	?trUtf8@QDrag@@SA?AVQString@@PBD0H@Z @ 256 NONAME ; class QString QDrag::trUtf8(char const *, char const *, int)
	?metaObject@QCommonStyle@@UBEPBUQMetaObject@@XZ @ 257 NONAME ; struct QMetaObject const * QCommonStyle::metaObject(void) const
	?qt_pixmap_cleanup_hook_64@@3P6AX_J@ZA @ 258 NONAME ; void (*qt_pixmap_cleanup_hook_64)(long long)
	?setMask_sys@QWidgetPrivate@@QAEXABVQRegion@@@Z @ 259 NONAME ; void QWidgetPrivate::setMask_sys(class QRegion const &)
	?mapToScene@QGraphicsItem@@QBE?AVQPolygonF@@ABV2@@Z @ 260 NONAME ; class QPolygonF QGraphicsItem::mapToScene(class QPolygonF const &) const
	?modifiersMask@QBasicKeyEventTransition@@QBE?AV?$QFlags@W4KeyboardModifier@Qt@@@@XZ @ 261 NONAME ; class QFlags<enum Qt::KeyboardModifier> QBasicKeyEventTransition::modifiersMask(void) const
	?metaObject@QStyledItemDelegate@@UBEPBUQMetaObject@@XZ @ 262 NONAME ; struct QMetaObject const * QStyledItemDelegate::metaObject(void) const
	?tr@QFontDialog@@SA?AVQString@@PBD0H@Z @ 263 NONAME ; class QString QFontDialog::tr(char const *, char const *, int)
	?textChanged@QTextControl@@IAEXXZ @ 264 NONAME ; void QTextControl::textChanged(void)
	?qt_metacall@QMdiArea@@UAEHW4Call@QMetaObject@@HPAPAX@Z @ 265 NONAME ; int QMdiArea::qt_metacall(enum QMetaObject::Call, int, void * *)
	?setBackgroundRole@QWidget@@QAEXW4ColorRole@QPalette@@@Z @ 266 NONAME ; void QWidget::setBackgroundRole(enum QPalette::ColorRole)
	?setPaintDeviceFormat@QEglProperties@@QAEXPAVQPaintDevice@@@Z @ 267 NONAME ; void QEglProperties::setPaintDeviceFormat(class QPaintDevice *)
	??4QTextBlock@@QAEAAV0@ABV0@@Z @ 268 NONAME ; class QTextBlock & QTextBlock::operator=(class QTextBlock const &)
	?setSelectionModel@QColumnView@@UAEXPAVQItemSelectionModel@@@Z @ 269 NONAME ; void QColumnView::setSelectionModel(class QItemSelectionModel *)
	?toGraphicsObject@QGraphicsItem@@QAEPAVQGraphicsObject@@XZ @ 270 NONAME ; class QGraphicsObject * QGraphicsItem::toGraphicsObject(void)
	??1QPaintEngine@@UAE@XZ @ 271 NONAME ; QPaintEngine::~QPaintEngine(void)
	?addSeparator@QToolBar@@QAEPAVQAction@@XZ @ 272 NONAME ; class QAction * QToolBar::addSeparator(void)
	?rootIndex@QFileDialogPrivate@@QBE?AVQModelIndex@@XZ @ 273 NONAME ; class QModelIndex QFileDialogPrivate::rootIndex(void) const
	?whatsThis@QShortcut@@QBE?AVQString@@XZ @ 274 NONAME ; class QString QShortcut::whatsThis(void) const
	?setReadOnly@QLineEdit@@QAEX_N@Z @ 275 NONAME ; void QLineEdit::setReadOnly(bool)
	?qt_metacall@QItemDelegate@@UAEHW4Call@QMetaObject@@HPAPAX@Z @ 276 NONAME ; int QItemDelegate::qt_metacall(enum QMetaObject::Call, int, void * *)
	?maximizedSystemMenuIconWidget@QMdiSubWindow@@QBEPAVQWidget@@XZ @ 277 NONAME ; class QWidget * QMdiSubWindow::maximizedSystemMenuIconWidget(void) const
	?scrollChildren@QWidgetPrivate@@QAEXHH@Z @ 278 NONAME ; void QWidgetPrivate::scrollChildren(int, int)
	?insertWidget@QStatusBar@@QAEHHPAVQWidget@@H@Z @ 279 NONAME ; int QStatusBar::insertWidget(int, class QWidget *, int)
	?text@QToolTip@@SA?AVQString@@XZ @ 280 NONAME ; class QString QToolTip::text(void)
	?releaseMouse@QWidget@@QAEXXZ @ 281 NONAME ; void QWidget::releaseMouse(void)
	??1QStyleOptionProgressBar@@QAE@XZ @ 282 NONAME ; QStyleOptionProgressBar::~QStyleOptionProgressBar(void)
	?doItemsLayout@QTreeView@@UAEXXZ @ 283 NONAME ; void QTreeView::doItemsLayout(void)
	?blockCharFormat@QTextCursor@@QBE?AVQTextCharFormat@@XZ @ 284 NONAME ; class QTextCharFormat QTextCursor::blockCharFormat(void) const
	?addLayout@QGridLayout@@QAEXPAVQLayout@@HHV?$QFlags@W4AlignmentFlag@Qt@@@@@Z @ 285 NONAME ; void QGridLayout::addLayout(class QLayout *, int, int, class QFlags<enum Qt::AlignmentFlag>)
	?d_func@QGraphicsOpacityEffect@@AAEPAVQGraphicsOpacityEffectPrivate@@XZ @ 286 NONAME ; class QGraphicsOpacityEffectPrivate * QGraphicsOpacityEffect::d_func(void)
	?gridSize@QListView@@QBE?AVQSize@@XZ @ 287 NONAME ; class QSize QListView::gridSize(void) const
	?staticMetaObject@QStylePlugin@@2UQMetaObject@@B @ 288 NONAME ; struct QMetaObject const QStylePlugin::staticMetaObject
	??8QFontMetricsF@@QBE_NABV0@@Z @ 289 NONAME ; bool QFontMetricsF::operator==(class QFontMetricsF const &) const
	?perspective@QMatrix4x4@@QAEAAV1@MMMM@Z @ 290 NONAME ; class QMatrix4x4 & QMatrix4x4::perspective(float, float, float, float)
	?isScaling@QTransform@@QBE_NXZ @ 291 NONAME ; bool QTransform::isScaling(void) const
	?writeFrameFormat@QTextOdfWriter@@QBEXAAVQXmlStreamWriter@@VQTextFrameFormat@@H@Z @ 292 NONAME ; void QTextOdfWriter::writeFrameFormat(class QXmlStreamWriter &, class QTextFrameFormat, int) const
	?drawLines@QPainter@@QAEXABV?$QVector@VQPointF@@@@@Z @ 293 NONAME ; void QPainter::drawLines(class QVector<class QPointF> const &)
	??0QCloseEvent@@QAE@XZ @ 294 NONAME ; QCloseEvent::QCloseEvent(void)
	?staticMetaObject@QPixmapColorizeFilter@@2UQMetaObject@@B @ 295 NONAME ; struct QMetaObject const QPixmapColorizeFilter::staticMetaObject
	?isVisible@QTextBlock@@QBE_NXZ @ 296 NONAME ; bool QTextBlock::isVisible(void) const
	??9QColor@@QBE_NABV0@@Z @ 297 NONAME ; bool QColor::operator!=(class QColor const &) const
	?setTabChangesFocus@QPlainTextEdit@@QAEX_N@Z @ 298 NONAME ; void QPlainTextEdit::setTabChangesFocus(bool)
	?qt_metacast@QTextBlockGroup@@UAEPAXPBD@Z @ 299 NONAME ; void * QTextBlockGroup::qt_metacast(char const *)
	?setSingleStep@QSpinBox@@QAEXH@Z @ 300 NONAME ; void QSpinBox::setSingleStep(int)
	??1QIcon@@QAE@XZ @ 301 NONAME ; QIcon::~QIcon(void)
	?setResolveSymlinks@QFileDialog@@QAEX_N@Z @ 302 NONAME ; void QFileDialog::setResolveSymlinks(bool)
	??1QTextFormatCollection@@QAE@XZ @ 303 NONAME ; QTextFormatCollection::~QTextFormatCollection(void)
	?staticMetaObject@QTextFormat@@2UQMetaObject@@B @ 304 NONAME ; struct QMetaObject const QTextFormat::staticMetaObject
	?paintEvent@QMenuBar@@MAEXPAVQPaintEvent@@@Z @ 305 NONAME ; void QMenuBar::paintEvent(class QPaintEvent *)
	?metaObject@QPixmapBlurFilter@@UBEPBUQMetaObject@@XZ @ 306 NONAME ; struct QMetaObject const * QPixmapBlurFilter::metaObject(void) const
	?currentBlock@iterator@QTextFrame@@QBE?AVQTextBlock@@XZ @ 307 NONAME ; class QTextBlock QTextFrame::iterator::currentBlock(void) const
	?mkdir@QDirModel@@QAE?AVQModelIndex@@ABV2@ABVQString@@@Z @ 308 NONAME ; class QModelIndex QDirModel::mkdir(class QModelIndex const &, class QString const &)
	?drawPixmap@QPainter@@QAEXHHHHABVQPixmap@@@Z @ 309 NONAME ; void QPainter::drawPixmap(int, int, int, int, class QPixmap const &)
	?setContext@QEglContext@@QAEXH@Z @ 310 NONAME ; void QEglContext::setContext(int)
	?scaled@QImage@@QBE?AV1@ABVQSize@@W4AspectRatioMode@Qt@@W4TransformationMode@4@@Z @ 311 NONAME ; class QImage QImage::scaled(class QSize const &, enum Qt::AspectRatioMode, enum Qt::TransformationMode) const
	?sizeConstraint@QLayout@@QBE?AW4SizeConstraint@1@XZ @ 312 NONAME ; enum QLayout::SizeConstraint QLayout::sizeConstraint(void) const
	?checkStateSet@QCheckBox@@MAEXXZ @ 313 NONAME ; void QCheckBox::checkStateSet(void)
	?closeEvent@QMessageBox@@MAEXPAVQCloseEvent@@@Z @ 314 NONAME ; void QMessageBox::closeEvent(class QCloseEvent *)
	?loadPicture@QPictureFormatPlugin@@UAE_NABVQString@@0PAVQPicture@@@Z @ 315 NONAME ; bool QPictureFormatPlugin::loadPicture(class QString const &, class QString const &, class QPicture *)
	?width@QTextImageFormat@@QBEMXZ @ 316 NONAME ; float QTextImageFormat::width(void) const
	?isItemEnabled@QToolBox@@QBE_NH@Z @ 317 NONAME ; bool QToolBox::isItemEnabled(int) const
	?editingFinished@QAbstractSpinBox@@IAEXXZ @ 318 NONAME ; void QAbstractSpinBox::editingFinished(void)
	?setDefaultDropAction@QAbstractItemView@@QAEXW4DropAction@Qt@@@Z @ 319 NONAME ; void QAbstractItemView::setDefaultDropAction(enum Qt::DropAction)
	?trUtf8@QActionGroup@@SA?AVQString@@PBD0H@Z @ 320 NONAME ; class QString QActionGroup::trUtf8(char const *, char const *, int)
	?getHsl@QColor@@QBEXPAH000@Z @ 321 NONAME ; void QColor::getHsl(int *, int *, int *, int *) const
	?strengthChanged@QGraphicsColorizeEffect@@IAEXM@Z @ 322 NONAME ; void QGraphicsColorizeEffect::strengthChanged(float)
	?isIndexDropEnabled@QAbstractItemViewPrivate@@QBE_NABVQModelIndex@@@Z @ 323 NONAME ; bool QAbstractItemViewPrivate::isIndexDropEnabled(class QModelIndex const &) const
	?font@QGraphicsWidget@@QBE?AVQFont@@XZ @ 324 NONAME ; class QFont QGraphicsWidget::font(void) const
	??0QPaintEngine@@QAE@V?$QFlags@W4PaintEngineFeature@QPaintEngine@@@@@Z @ 325 NONAME ; QPaintEngine::QPaintEngine(class QFlags<enum QPaintEngine::PaintEngineFeature>)
	?tr@QStackedWidget@@SA?AVQString@@PBD0H@Z @ 326 NONAME ; class QString QStackedWidget::tr(char const *, char const *, int)
	?standardPixmap@QWindowsStyle@@UBE?AVQPixmap@@W4StandardPixmap@QStyle@@PBVQStyleOption@@PBVQWidget@@@Z @ 327 NONAME ; class QPixmap QWindowsStyle::standardPixmap(enum QStyle::StandardPixmap, class QStyleOption const *, class QWidget const *) const
	?setStyleSheet@QApplication@@QAEXABVQString@@@Z @ 328 NONAME ; void QApplication::setStyleSheet(class QString const &)
	?minLeftBearing@QFontMetrics@@QBEHXZ @ 329 NONAME ; int QFontMetrics::minLeftBearing(void) const
	?isComposing@QCoeFepInputContext@@UBE_NXZ @ 330 NONAME ; bool QCoeFepInputContext::isComposing(void) const
	??8iterator@QTextFrame@@QBE_NABV01@@Z @ 331 NONAME ; bool QTextFrame::iterator::operator==(class QTextFrame::iterator const &) const
	?toolBarArea@QMainWindow@@QBE?AW4ToolBarArea@Qt@@PAVQToolBar@@@Z @ 332 NONAME ; enum Qt::ToolBarArea QMainWindow::toolBarArea(class QToolBar *) const
	?mode@QColormap@@QBE?AW4Mode@1@XZ @ 333 NONAME ; enum QColormap::Mode QColormap::mode(void) const
	??_EQGraphicsOpacityEffect@@UAE@I@Z @ 334 NONAME ; QGraphicsOpacityEffect::~QGraphicsOpacityEffect(unsigned int)
	?clearColumnWidthConstraints@QTextTableFormat@@QAEXXZ @ 335 NONAME ; void QTextTableFormat::clearColumnWidthConstraints(void)
	?_q_useNameFilter@QFileDialogPrivate@@QAEXH@Z @ 336 NONAME ; void QFileDialogPrivate::_q_useNameFilter(int)
	?setModifiersMask@QMouseEventTransition@@QAEXV?$QFlags@W4KeyboardModifier@Qt@@@@@Z @ 337 NONAME ; void QMouseEventTransition::setModifiersMask(class QFlags<enum Qt::KeyboardModifier>)
	?setColor@QBrush@@QAEXW4GlobalColor@Qt@@@Z @ 338 NONAME ; void QBrush::setColor(enum Qt::GlobalColor)
	?setBrush@QAbstractGraphicsShapeItem@@QAEXABVQBrush@@@Z @ 339 NONAME ; void QAbstractGraphicsShapeItem::setBrush(class QBrush const &)
	?sort@QFileSystemModel@@UAEXHW4SortOrder@Qt@@@Z @ 340 NONAME ; void QFileSystemModel::sort(int, enum Qt::SortOrder)
	?setFormat@QMovie@@QAEXABVQByteArray@@@Z @ 341 NONAME ; void QMovie::setFormat(class QByteArray const &)
	?qt_metacall@QPaintBufferSignalProxy@@UAEHW4Call@QMetaObject@@HPAPAX@Z @ 342 NONAME ; int QPaintBufferSignalProxy::qt_metacall(enum QMetaObject::Call, int, void * *)
	?metaObject@QColorDialog@@UBEPBUQMetaObject@@XZ @ 343 NONAME ; struct QMetaObject const * QColorDialog::metaObject(void) const
	?addDockWidget@QMainWindowLayout@@QAEXW4DockWidgetArea@Qt@@PAVQDockWidget@@W4Orientation@3@@Z @ 344 NONAME ; void QMainWindowLayout::addDockWidget(enum Qt::DockWidgetArea, class QDockWidget *, enum Qt::Orientation)
	?setPos@QGraphicsItem@@QAEXABVQPointF@@@Z @ 345 NONAME ; void QGraphicsItem::setPos(class QPointF const &)
	?setIndent@QTextBlockFormat@@QAEXH@Z @ 346 NONAME ; void QTextBlockFormat::setIndent(int)
	?setEditorData@QItemDelegate@@UBEXPAVQWidget@@ABVQModelIndex@@@Z @ 347 NONAME ; void QItemDelegate::setEditorData(class QWidget *, class QModelIndex const &) const
	??1QGraphicsScale@@UAE@XZ @ 348 NONAME ; QGraphicsScale::~QGraphicsScale(void)
	?toPlainText@QTextEdit@@QBE?AVQString@@XZ @ 349 NONAME ; class QString QTextEdit::toPlainText(void) const
	?pictureFormat@QPicture@@SAPBDABVQString@@@Z @ 350 NONAME ; char const * QPicture::pictureFormat(class QString const &)
	?metaObject@QInputContext@@UBEPBUQMetaObject@@XZ @ 351 NONAME ; struct QMetaObject const * QInputContext::metaObject(void) const
	??1QHideEvent@@UAE@XZ @ 352 NONAME ; QHideEvent::~QHideEvent(void)
	?qt_metacast@QSyntaxHighlighter@@UAEPAXPBD@Z @ 353 NONAME ; void * QSyntaxHighlighter::qt_metacast(char const *)
	?removeRows@QTextTable@@QAEXHH@Z @ 354 NONAME ; void QTextTable::removeRows(int, int)
	?cursorWidth@QTextControl@@QBEHXZ @ 355 NONAME ; int QTextControl::cursorWidth(void) const
	?trUtf8@QIconEnginePluginV2@@SA?AVQString@@PBD0@Z @ 356 NONAME ; class QString QIconEnginePluginV2::trUtf8(char const *, char const *)
	?document@QGraphicsTextItem@@QBEPAVQTextDocument@@XZ @ 357 NONAME ; class QTextDocument * QGraphicsTextItem::document(void) const
	?opaqueArea@QGraphicsPolygonItem@@UBE?AVQPainterPath@@XZ @ 358 NONAME ; class QPainterPath QGraphicsPolygonItem::opaqueArea(void) const
	?linkActivated@QLabel@@IAEXABVQString@@@Z @ 359 NONAME ; void QLabel::linkActivated(class QString const &)
	?hoverLeaveEvent@QGraphicsItem@@MAEXPAVQGraphicsSceneHoverEvent@@@Z @ 360 NONAME ; void QGraphicsItem::hoverLeaveEvent(class QGraphicsSceneHoverEvent *)
	?getStaticMetaObject@QGraphicsObject@@SAABUQMetaObject@@XZ @ 361 NONAME ; struct QMetaObject const & QGraphicsObject::getStaticMetaObject(void)
	?setResizeAnchor@QGraphicsView@@QAEXW4ViewportAnchor@1@@Z @ 362 NONAME ; void QGraphicsView::setResizeAnchor(enum QGraphicsView::ViewportAnchor)
	?textDirection@QTextInlineObject@@QBE?AW4LayoutDirection@Qt@@XZ @ 363 NONAME ; enum Qt::LayoutDirection QTextInlineObject::textDirection(void) const
	?setPointSize@QFont@@QAEXH@Z @ 364 NONAME ; void QFont::setPointSize(int)
	?nearestGraphicsProxyWidget@QWidgetPrivate@@SAPAVQGraphicsProxyWidget@@PBVQWidget@@@Z @ 365 NONAME ; class QGraphicsProxyWidget * QWidgetPrivate::nearestGraphicsProxyWidget(class QWidget const *)
	??4QStyleOptionToolButton@@QAEAAV0@ABV0@@Z @ 366 NONAME ; class QStyleOptionToolButton & QStyleOptionToolButton::operator=(class QStyleOptionToolButton const &)
	??0QBrush@@QAE@XZ @ 367 NONAME ; QBrush::QBrush(void)
	?rmdir@QDirModel@@QAE_NABVQModelIndex@@@Z @ 368 NONAME ; bool QDirModel::rmdir(class QModelIndex const &)
	?trUtf8@QMessageBox@@SA?AVQString@@PBD0H@Z @ 369 NONAME ; class QString QMessageBox::trUtf8(char const *, char const *, int)
	?initializeSections@QHeaderView@@IAEXXZ @ 370 NONAME ; void QHeaderView::initializeSections(void)
	??0QStyleOptionProgressBarV2@@IAE@H@Z @ 371 NONAME ; QStyleOptionProgressBarV2::QStyleOptionProgressBarV2(int)
	?setUseDesignMetrics@QTextOption@@QAEX_N@Z @ 372 NONAME ; void QTextOption::setUseDesignMetrics(bool)
	?CreateAppUiL@QS60MainDocument@@UAEPAVCEikAppUi@@XZ @ 373 NONAME ; class CEikAppUi * QS60MainDocument::CreateAppUiL(void)
	?setScene@QGraphicsView@@QAEXPAVQGraphicsScene@@@Z @ 374 NONAME ; void QGraphicsView::setScene(class QGraphicsScene *)
	?returnPressed@QLineEdit@@IAEXXZ @ 375 NONAME ; void QLineEdit::returnPressed(void)
	?windowTitle@QWidget@@QBE?AVQString@@XZ @ 376 NONAME ; class QString QWidget::windowTitle(void) const
	?scaledToWidth@QPixmap@@QBE?AV1@HW4TransformationMode@Qt@@@Z @ 377 NONAME ; class QPixmap QPixmap::scaledToWidth(int, enum Qt::TransformationMode) const
	?setDisabled@QActionGroup@@QAEX_N@Z @ 378 NONAME ; void QActionGroup::setDisabled(bool)
	?elidedText@QFontMetrics@@QBE?AVQString@@ABV2@W4TextElideMode@Qt@@HH@Z @ 379 NONAME ; class QString QFontMetrics::elidedText(class QString const &, enum Qt::TextElideMode, int, int) const
	?d_func@QPlainTextDocumentLayout@@AAEPAVQPlainTextDocumentLayoutPrivate@@XZ @ 380 NONAME ; class QPlainTextDocumentLayoutPrivate * QPlainTextDocumentLayout::d_func(void)
	?setDefaultWidget@QWidgetAction@@QAEXPAVQWidget@@@Z @ 381 NONAME ; void QWidgetAction::setDefaultWidget(class QWidget *)
	?heightForWidth@QLabel@@UBEHH@Z @ 382 NONAME ; int QLabel::heightForWidth(int) const
	??_EQAbstractScrollAreaPrivate@@UAE@I@Z @ 383 NONAME ; QAbstractScrollAreaPrivate::~QAbstractScrollAreaPrivate(unsigned int)
	??0QVector3D@@QAE@ABV0@@Z @ 384 NONAME ; QVector3D::QVector3D(class QVector3D const &)
	?q_func@QGraphicsLayoutPrivate@@AAEPAVQGraphicsLayout@@XZ @ 385 NONAME ; class QGraphicsLayout * QGraphicsLayoutPrivate::q_func(void)
	??_EQSoftKeyManager@@UAE@I@Z @ 386 NONAME ; QSoftKeyManager::~QSoftKeyManager(unsigned int)
	?setFileName@QImageReader@@QAEXABVQString@@@Z @ 387 NONAME ; void QImageReader::setFileName(class QString const &)
	?d_func@QGraphicsSceneResizeEvent@@ABEPBVQGraphicsSceneResizeEventPrivate@@XZ @ 388 NONAME ; class QGraphicsSceneResizeEventPrivate const * QGraphicsSceneResizeEvent::d_func(void) const
	?staticMetaObject@QPlainTextEdit@@2UQMetaObject@@B @ 389 NONAME ; struct QMetaObject const QPlainTextEdit::staticMetaObject
	?drawForeground@QGraphicsView@@MAEXPAVQPainter@@ABVQRectF@@@Z @ 390 NONAME ; void QGraphicsView::drawForeground(class QPainter *, class QRectF const &)
	?setColor@QPixmapDropShadowFilter@@QAEXABVQColor@@@Z @ 391 NONAME ; void QPixmapDropShadowFilter::setColor(class QColor const &)
	?tableWidget@QTableWidgetItem@@QBEPAVQTableWidget@@XZ @ 392 NONAME ; class QTableWidget * QTableWidgetItem::tableWidget(void) const
	?pageCount@QTextDocument@@QBEHXZ @ 393 NONAME ; int QTextDocument::pageCount(void) const
	?isNull@QVector3D@@QBE_NXZ @ 394 NONAME ; bool QVector3D::isNull(void) const
	?clearSelection@QAbstractItemView@@QAEXXZ @ 395 NONAME ; void QAbstractItemView::clearSelection(void)
	?trUtf8@QWizardPage@@SA?AVQString@@PBD0H@Z @ 396 NONAME ; class QString QWizardPage::trUtf8(char const *, char const *, int)
	?setScreenPos@QGraphicsSceneHelpEvent@@QAEXABVQPoint@@@Z @ 397 NONAME ; void QGraphicsSceneHelpEvent::setScreenPos(class QPoint const &)
	?trUtf8@QUndoView@@SA?AVQString@@PBD0@Z @ 398 NONAME ; class QString QUndoView::trUtf8(char const *, char const *)
	?setTextAlignment@QTreeWidgetItem@@QAEXHH@Z @ 399 NONAME ; void QTreeWidgetItem::setTextAlignment(int, int)
	?extension@QGraphicsEllipseItem@@MBE?AVQVariant@@ABV2@@Z @ 400 NONAME ; class QVariant QGraphicsEllipseItem::extension(class QVariant const &) const
	?subtractOpaqueChildren@QWidgetPrivate@@QBEXAAVQRegion@@ABVQRect@@@Z @ 401 NONAME ; void QWidgetPrivate::subtractOpaqueChildren(class QRegion &, class QRect const &) const
	?qt_metacall@QGraphicsSceneIndex@@UAEHW4Call@QMetaObject@@HPAPAX@Z @ 402 NONAME ; int QGraphicsSceneIndex::qt_metacall(enum QMetaObject::Call, int, void * *)
	??_EQTextureGlyphCache@@UAE@I@Z @ 403 NONAME ; QTextureGlyphCache::~QTextureGlyphCache(unsigned int)
	?fontFixedPitch@QTextCharFormat@@QBE_NXZ @ 404 NONAME ; bool QTextCharFormat::fontFixedPitch(void) const
	?metaObject@QBasicKeyEventTransition@@UBEPBUQMetaObject@@XZ @ 405 NONAME ; struct QMetaObject const * QBasicKeyEventTransition::metaObject(void) const
	?rowCount@QStandardItemModel@@UBEHABVQModelIndex@@@Z @ 406 NONAME ; int QStandardItemModel::rowCount(class QModelIndex const &) const
	?invalidateCachedClipPathRecursively@QGraphicsItemPrivate@@QAEX_NABVQRectF@@@Z @ 407 NONAME ; void QGraphicsItemPrivate::invalidateCachedClipPathRecursively(bool, class QRectF const &)
	?fromSymbianCFbsBitmap@QPixmap@@SA?AV1@PAVCFbsBitmap@@@Z @ 408 NONAME ; class QPixmap QPixmap::fromSymbianCFbsBitmap(class CFbsBitmap *)
	?qt_metacast@QBoxLayout@@UAEPAXPBD@Z @ 409 NONAME ; void * QBoxLayout::qt_metacast(char const *)
	?copyAvailable@QTextEdit@@IAEX_N@Z @ 410 NONAME ; void QTextEdit::copyAvailable(bool)
	?childrenClippedToShape@QGraphicsItemPrivate@@QBE_NXZ @ 411 NONAME ; bool QGraphicsItemPrivate::childrenClippedToShape(void) const
	?removeTab@QTabBar@@QAEXH@Z @ 412 NONAME ; void QTabBar::removeTab(int)
	?hasNext@Parser@QCss@@QBE_NXZ @ 413 NONAME ; bool QCss::Parser::hasNext(void) const
	?displayText@QStyledItemDelegate@@UBE?AVQString@@ABVQVariant@@ABVQLocale@@@Z @ 414 NONAME ; class QString QStyledItemDelegate::displayText(class QVariant const &, class QLocale const &) const
	?openEditor@QAbstractItemViewPrivate@@QAE_NABVQModelIndex@@PAVQEvent@@@Z @ 415 NONAME ; bool QAbstractItemViewPrivate::openEditor(class QModelIndex const &, class QEvent *)
	?cleanText@QSpinBox@@QBE?AVQString@@XZ @ 416 NONAME ; class QString QSpinBox::cleanText(void) const
	??0QTextBlock@@QAE@XZ @ 417 NONAME ; QTextBlock::QTextBlock(void)
	??0QStyleOptionHeader@@IAE@H@Z @ 418 NONAME ; QStyleOptionHeader::QStyleOptionHeader(int)
	?opaqueArea@QGraphicsLineItem@@UBE?AVQPainterPath@@XZ @ 419 NONAME ; class QPainterPath QGraphicsLineItem::opaqueArea(void) const
	?begin@QTextTableCell@@QBE?AViterator@QTextFrame@@XZ @ 420 NONAME ; class QTextFrame::iterator QTextTableCell::begin(void) const
	??0QMatrix4x4@@QAE@MMMMMMMMMMMMMMMM@Z @ 421 NONAME ; QMatrix4x4::QMatrix4x4(float, float, float, float, float, float, float, float, float, float, float, float, float, float, float, float)
	?focusNextPrevChild@QGraphicsProxyWidget@@MAE_N_N@Z @ 422 NONAME ; bool QGraphicsProxyWidget::focusNextPrevChild(bool)
	?boundingRect@QFontMetricsF@@QBE?AVQRectF@@VQChar@@@Z @ 423 NONAME ; class QRectF QFontMetricsF::boundingRect(class QChar) const
	?mapSelectionFromSource@QAbstractProxyModel@@UBE?AVQItemSelection@@ABV2@@Z @ 424 NONAME ; class QItemSelection QAbstractProxyModel::mapSelectionFromSource(class QItemSelection const &) const
	?setDirty@QPainterPath@@AAEX_N@Z @ 425 NONAME ; void QPainterPath::setDirty(bool)
	?selectColumn@QTableView@@QAEXH@Z @ 426 NONAME ; void QTableView::selectColumn(int)
	?next@QDockAreaLayoutInfo@@QBEHH@Z @ 427 NONAME ; int QDockAreaLayoutInfo::next(int) const
	?staticMetaObject@QDateTimeEdit@@2UQMetaObject@@B @ 428 NONAME ; struct QMetaObject const QDateTimeEdit::staticMetaObject
	?hoverEnterEvent@QGraphicsTextItem@@MAEXPAVQGraphicsSceneHoverEvent@@@Z @ 429 NONAME ; void QGraphicsTextItem::hoverEnterEvent(class QGraphicsSceneHoverEvent *)
	?mimeTypes@QProxyModel@@UBE?AVQStringList@@XZ @ 430 NONAME ; class QStringList QProxyModel::mimeTypes(void) const
	?correctionMode@QAbstractSpinBox@@QBE?AW4CorrectionMode@1@XZ @ 431 NONAME ; enum QAbstractSpinBox::CorrectionMode QAbstractSpinBox::correctionMode(void) const
	?getStaticMetaObject@QAbstractItemView@@SAABUQMetaObject@@XZ @ 432 NONAME ; struct QMetaObject const & QAbstractItemView::getStaticMetaObject(void)
	?update@QGraphicsItem@@QAEXMMMM@Z @ 433 NONAME ; void QGraphicsItem::update(float, float, float, float)
	??_EQGraphicsRotation@@UAE@I@Z @ 434 NONAME ; QGraphicsRotation::~QGraphicsRotation(unsigned int)
	?setSelection@QHeaderView@@MAEXABVQRect@@V?$QFlags@W4SelectionFlag@QItemSelectionModel@@@@@Z @ 435 NONAME ; void QHeaderView::setSelection(class QRect const &, class QFlags<enum QItemSelectionModel::SelectionFlag>)
	?selectionStart@QLineEdit@@QBEHXZ @ 436 NONAME ; int QLineEdit::selectionStart(void) const
	?adjustSize@QWidget@@QAEXXZ @ 437 NONAME ; void QWidget::adjustSize(void)
	??0QGraphicsEllipseItem@@QAE@PAVQGraphicsItem@@PAVQGraphicsScene@@@Z @ 438 NONAME ; QGraphicsEllipseItem::QGraphicsEllipseItem(class QGraphicsItem *, class QGraphicsScene *)
	?selectedItems@QGraphicsScene@@QBE?AV?$QList@PAVQGraphicsItem@@@@XZ @ 439 NONAME ; class QList<class QGraphicsItem *> QGraphicsScene::selectedItems(void) const
	?startCenterPoint@QPinchGesture@@QBE?AVQPointF@@XZ @ 440 NONAME ; class QPointF QPinchGesture::startCenterPoint(void) const
	??0QImageIOHandler@@IAE@AAVQImageIOHandlerPrivate@@@Z @ 441 NONAME ; QImageIOHandler::QImageIOHandler(class QImageIOHandlerPrivate &)
	?setTextColor@QTextEdit@@QAEXABVQColor@@@Z @ 442 NONAME ; void QTextEdit::setTextColor(class QColor const &)
	?setModifiersMask@QBasicMouseEventTransition@@QAEXV?$QFlags@W4KeyboardModifier@Qt@@@@@Z @ 443 NONAME ; void QBasicMouseEventTransition::setModifiersMask(class QFlags<enum Qt::KeyboardModifier>)
	?qt_metacast@QGraphicsView@@UAEPAXPBD@Z @ 444 NONAME ; void * QGraphicsView::qt_metacast(char const *)
	?d_func@QPinchGesture@@ABEPBVQPinchGesturePrivate@@XZ @ 445 NONAME ; class QPinchGesturePrivate const * QPinchGesture::d_func(void) const
	?imageFormat@QImageReader@@QBE?AW4Format@QImage@@XZ @ 446 NONAME ; enum QImage::Format QImageReader::imageFormat(void) const
	?d_func@QSpinBox@@ABEPBVQSpinBoxPrivate@@XZ @ 447 NONAME ; class QSpinBoxPrivate const * QSpinBox::d_func(void) const
	??1QMovie@@UAE@XZ @ 448 NONAME ; QMovie::~QMovie(void)
	?setDrawBase@QTabBar@@QAEX_N@Z @ 449 NONAME ; void QTabBar::setDrawBase(bool)
	?findNextPrevAnchor@QTextControl@@QAE_NABVQTextCursor@@_NAAV2@@Z @ 450 NONAME ; bool QTextControl::findNextPrevAnchor(class QTextCursor const &, bool, class QTextCursor &)
	?qt_metacast@QGraphicsGrayscaleEffect@@UAEPAXPBD@Z @ 451 NONAME ; void * QGraphicsGrayscaleEffect::qt_metacast(char const *)
	?paintEvent@QToolButton@@MAEXPAVQPaintEvent@@@Z @ 452 NONAME ; void QToolButton::paintEvent(class QPaintEvent *)
	?createHeuristicMask@QImage@@QBE?AV1@_N@Z @ 453 NONAME ; class QImage QImage::createHeuristicMask(bool) const
	?setDefaultHeight@QScriptLine@@QAEXPAVQTextEngine@@@Z @ 454 NONAME ; void QScriptLine::setDefaultHeight(class QTextEngine *)
	?supportsAnimation@QImageReader@@QBE_NXZ @ 455 NONAME ; bool QImageReader::supportsAnimation(void) const
	?copy@QTextControl@@QAEXXZ @ 456 NONAME ; void QTextControl::copy(void)
	?d_func@QScrollBar@@ABEPBVQScrollBarPrivate@@XZ @ 457 NONAME ; class QScrollBarPrivate const * QScrollBar::d_func(void) const
	?setClipRect@QPainter@@QAEXABVQRect@@W4ClipOperation@Qt@@@Z @ 458 NONAME ; void QPainter::setClipRect(class QRect const &, enum Qt::ClipOperation)
	?open@QColorDialog@@QAEXPAVQObject@@PBD@Z @ 459 NONAME ; void QColorDialog::open(class QObject *, char const *)
	?trUtf8@QWidget@@SA?AVQString@@PBD0H@Z @ 460 NONAME ; class QString QWidget::trUtf8(char const *, char const *, int)
	?invalidate@QGraphicsAnchorLayout@@UAEXXZ @ 461 NONAME ; void QGraphicsAnchorLayout::invalidate(void)
	?timerEvent@QTextDocumentLayout@@MAEXPAVQTimerEvent@@@Z @ 462 NONAME ; void QTextDocumentLayout::timerEvent(class QTimerEvent *)
	?setHidden@QListWidgetItem@@QAEX_N@Z @ 463 NONAME ; void QListWidgetItem::setHidden(bool)
	?cleanText@QDoubleSpinBox@@QBE?AVQString@@XZ @ 464 NONAME ; class QString QDoubleSpinBox::cleanText(void) const
	??_EQStroker@@UAE@I@Z @ 465 NONAME ; QStroker::~QStroker(unsigned int)
	?allowedAreasChanged@QToolBar@@IAEXV?$QFlags@W4ToolBarArea@Qt@@@@@Z @ 466 NONAME ; void QToolBar::allowedAreasChanged(class QFlags<enum Qt::ToolBarArea>)
	?app_compile_version@QApplicationPrivate@@2HA @ 467 NONAME ; int QApplicationPrivate::app_compile_version
	??_EQFormLayout@@UAE@I@Z @ 468 NONAME ; QFormLayout::~QFormLayout(unsigned int)
	?percentAtLength@QPainterPath@@QBEMM@Z @ 469 NONAME ; float QPainterPath::percentAtLength(float) const
	?metaObject@QDockWidgetLayout@@UBEPBUQMetaObject@@XZ @ 470 NONAME ; struct QMetaObject const * QDockWidgetLayout::metaObject(void) const
	?metaObject@QValidator@@UBEPBUQMetaObject@@XZ @ 471 NONAME ; struct QMetaObject const * QValidator::metaObject(void) const
	??1QGridLayout@@UAE@XZ @ 472 NONAME ; QGridLayout::~QGridLayout(void)
	?itemDelegate@QDataWidgetMapper@@QBEPAVQAbstractItemDelegate@@XZ @ 473 NONAME ; class QAbstractItemDelegate * QDataWidgetMapper::itemDelegate(void) const
	?clearFocus@QWidget@@QAEXXZ @ 474 NONAME ; void QWidget::clearFocus(void)
	??1QUndoGroup@@UAE@XZ @ 475 NONAME ; QUndoGroup::~QUndoGroup(void)
	?sizeHint@QMainWindowLayout@@UBE?AVQSize@@XZ @ 476 NONAME ; class QSize QMainWindowLayout::sizeHint(void) const
	?insertRow@QFormLayout@@QAEXHABVQString@@PAVQLayout@@@Z @ 477 NONAME ; void QFormLayout::insertRow(int, class QString const &, class QLayout *)
	?sizeHint@QItemDelegate@@UBE?AVQSize@@ABVQStyleOptionViewItem@@ABVQModelIndex@@@Z @ 478 NONAME ; class QSize QItemDelegate::sizeHint(class QStyleOptionViewItem const &, class QModelIndex const &) const
	?calculateVertexPositions@QGraphicsAnchorLayoutPrivate@@QAEXW4Orientation@1@@Z @ 479 NONAME ; void QGraphicsAnchorLayoutPrivate::calculateVertexPositions(enum QGraphicsAnchorLayoutPrivate::Orientation)
	?invalidate@QLayout@@UAEXXZ @ 480 NONAME ; void QLayout::invalidate(void)
	?metaObject@QFocusFrame@@UBEPBUQMetaObject@@XZ @ 481 NONAME ; struct QMetaObject const * QFocusFrame::metaObject(void) const
	??1QIntValidator@@UAE@XZ @ 482 NONAME ; QIntValidator::~QIntValidator(void)
	?focusInEvent@QTextEdit@@MAEXPAVQFocusEvent@@@Z @ 483 NONAME ; void QTextEdit::focusInEvent(class QFocusEvent *)
	?selectFile_sys@QFileDialogPrivate@@QAEXABVQString@@@Z @ 484 NONAME ; void QFileDialogPrivate::selectFile_sys(class QString const &)
	?items@QGraphicsView@@QBE?AV?$QList@PAVQGraphicsItem@@@@ABVQPainterPath@@W4ItemSelectionMode@Qt@@@Z @ 485 NONAME ; class QList<class QGraphicsItem *> QGraphicsView::items(class QPainterPath const &, enum Qt::ItemSelectionMode) const
	?dragEnterEvent@QLineEdit@@MAEXPAVQDragEnterEvent@@@Z @ 486 NONAME ; void QLineEdit::dragEnterEvent(class QDragEnterEvent *)
	?name@QImageIOHandler@@UBE?AVQByteArray@@XZ @ 487 NONAME ; class QByteArray QImageIOHandler::name(void) const
	?trUtf8@QMainWindow@@SA?AVQString@@PBD0H@Z @ 488 NONAME ; class QString QMainWindow::trUtf8(char const *, char const *, int)
	?height@QScriptLine@@QBE?AUQFixed@@XZ @ 489 NONAME ; struct QFixed QScriptLine::height(void) const
	??0QPlainTextEdit@@QAE@ABVQString@@PAVQWidget@@@Z @ 490 NONAME ; QPlainTextEdit::QPlainTextEdit(class QString const &, class QWidget *)
	?cursorForPosition@QTextControl@@QBE?AVQTextCursor@@ABVQPointF@@@Z @ 491 NONAME ; class QTextCursor QTextControl::cursorForPosition(class QPointF const &) const
	?tr@QSplitterHandle@@SA?AVQString@@PBD0H@Z @ 492 NONAME ; class QString QSplitterHandle::tr(char const *, char const *, int)
	?lastScaleFactor@QPinchGesture@@QBEMXZ @ 493 NONAME ; float QPinchGesture::lastScaleFactor(void) const
	?isModified@QTextDocumentPrivate@@QBE_NXZ @ 494 NONAME ; bool QTextDocumentPrivate::isModified(void) const
	?updateStyleSheetFont@QStyleSheetStyle@@QBEXPAVQWidget@@@Z @ 495 NONAME ; void QStyleSheetStyle::updateStyleSheetFont(class QWidget *) const
	?dragLeaveEvent@QAbstractScrollArea@@MAEXPAVQDragLeaveEvent@@@Z @ 496 NONAME ; void QAbstractScrollArea::dragLeaveEvent(class QDragLeaveEvent *)
	?showEvent@QComboBoxPrivateContainer@@MAEXPAVQShowEvent@@@Z @ 497 NONAME ; void QComboBoxPrivateContainer::showEvent(class QShowEvent *)
	?dispatchPendingUpdateRequests@QGraphicsViewPrivate@@QAEXXZ @ 498 NONAME ; void QGraphicsViewPrivate::dispatchPendingUpdateRequests(void)
	?appendRows@QTextTable@@QAEXH@Z @ 499 NONAME ; void QTextTable::appendRows(int)
	?tr@QLabel@@SA?AVQString@@PBD0@Z @ 500 NONAME ; class QString QLabel::tr(char const *, char const *)
	??1QPixmap@@UAE@XZ @ 501 NONAME ; QPixmap::~QPixmap(void)
	?tr@QTextObject@@SA?AVQString@@PBD0@Z @ 502 NONAME ; class QString QTextObject::tr(char const *, char const *)
	?sizeHint@QSplitter@@UBE?AVQSize@@XZ @ 503 NONAME ; class QSize QSplitter::sizeHint(void) const
	?setFocusPolicy@QWidget@@QAEXW4FocusPolicy@Qt@@@Z @ 504 NONAME ; void QWidget::setFocusPolicy(enum Qt::FocusPolicy)
	?removeAnchor_helper@QGraphicsAnchorLayoutPrivate@@QAEXPAUAnchorVertex@@0@Z @ 505 NONAME ; void QGraphicsAnchorLayoutPrivate::removeAnchor_helper(struct AnchorVertex *, struct AnchorVertex *)
	?getTabBar@QMainWindowLayout@@QAEPAVQTabBar@@XZ @ 506 NONAME ; class QTabBar * QMainWindowLayout::getTabBar(void)
	??0QStackedLayout@@QAE@XZ @ 507 NONAME ; QStackedLayout::QStackedLayout(void)
	??0QRegion@@QAE@ABVQPolygon@@W4FillRule@Qt@@@Z @ 508 NONAME ; QRegion::QRegion(class QPolygon const &, enum Qt::FillRule)
	?qt_metacast@QBasicKeyEventTransition@@UAEPAXPBD@Z @ 509 NONAME ; void * QBasicKeyEventTransition::qt_metacast(char const *)
	??0QGraphicsPixmapItem@@QAE@ABVQPixmap@@PAVQGraphicsItem@@PAVQGraphicsScene@@@Z @ 510 NONAME ; QGraphicsPixmapItem::QGraphicsPixmapItem(class QPixmap const &, class QGraphicsItem *, class QGraphicsScene *)
	?removeMapping@QDataWidgetMapper@@QAEXPAVQWidget@@@Z @ 511 NONAME ; void QDataWidgetMapper::removeMapping(class QWidget *)
	?insertItem@QComboBox@@QAEXHABVQIcon@@ABVQString@@ABVQVariant@@@Z @ 512 NONAME ; void QComboBox::insertItem(int, class QIcon const &, class QString const &, class QVariant const &)
	?setRubberBand@QSplitter@@IAEXH@Z @ 513 NONAME ; void QSplitter::setRubberBand(int)
	?setFrame@QComboBox@@QAEX_N@Z @ 514 NONAME ; void QComboBox::setFrame(bool)
	?setLineWidth@QFrame@@QAEXH@Z @ 515 NONAME ; void QFrame::setLineWidth(int)
	?autoScrollMargin@QAbstractItemView@@QBEHXZ @ 516 NONAME ; int QAbstractItemView::autoScrollMargin(void) const
	?tr@QLineControl@@SA?AVQString@@PBD0H@Z @ 517 NONAME ; class QString QLineControl::tr(char const *, char const *, int)
	?selectionChanged@QTreeView@@MAEXABVQItemSelection@@0@Z @ 518 NONAME ; void QTreeView::selectionChanged(class QItemSelection const &, class QItemSelection const &)
	?strikeOut@QFont@@QBE_NXZ @ 519 NONAME ; bool QFont::strikeOut(void) const
	?nlerp@QQuaternion@@SA?AV1@ABV1@0M@Z @ 520 NONAME ; class QQuaternion QQuaternion::nlerp(class QQuaternion const &, class QQuaternion const &, float)
	??0QValidator@@IAE@AAVQValidatorPrivate@@PAVQObject@@@Z @ 521 NONAME ; QValidator::QValidator(class QValidatorPrivate &, class QObject *)
	?isEnabled@QAction@@QBE_NXZ @ 522 NONAME ; bool QAction::isEnabled(void) const
	?save@QImage@@QBE_NPAVQIODevice@@PBDH@Z @ 523 NONAME ; bool QImage::save(class QIODevice *, char const *, int) const
	?focusInEvent@QAbstractButton@@MAEXPAVQFocusEvent@@@Z @ 524 NONAME ; void QAbstractButton::focusInEvent(class QFocusEvent *)
	??_EQAbstractScrollArea@@UAE@I@Z @ 525 NONAME ; QAbstractScrollArea::~QAbstractScrollArea(unsigned int)
	?testSimpleSelector@Parser@QCss@@QAE_NXZ @ 526 NONAME ; bool QCss::Parser::testSimpleSelector(void)
	?setMaximumBlockCount@QTextDocument@@QAEXH@Z @ 527 NONAME ; void QTextDocument::setMaximumBlockCount(int)
	?fade_menu@QApplicationPrivate@@2_NA @ 528 NONAME ; bool QApplicationPrivate::fade_menu
	??0QAbstractItemDelegate@@QAE@PAVQObject@@@Z @ 529 NONAME ; QAbstractItemDelegate::QAbstractItemDelegate(class QObject *)
	?setHorizontalSpacing@QGraphicsGridLayout@@QAEXM@Z @ 530 NONAME ; void QGraphicsGridLayout::setHorizontalSpacing(float)
	?initializeWidgetPaletteHash@QApplicationPrivate@@SAXXZ @ 531 NONAME ; void QApplicationPrivate::initializeWidgetPaletteHash(void)
	?write@QImageWriter@@QAE_NABVQImage@@@Z @ 532 NONAME ; bool QImageWriter::write(class QImage const &)
	?tabifiedDockWidgets@QMainWindow@@QBE?AV?$QList@PAVQDockWidget@@@@PAVQDockWidget@@@Z @ 533 NONAME ; class QList<class QDockWidget *> QMainWindow::tabifiedDockWidgets(class QDockWidget *) const
	?qt_metacast@QWizard@@UAEPAXPBD@Z @ 534 NONAME ; void * QWizard::qt_metacast(char const *)
	?getStaticMetaObject@QColumnView@@SAABUQMetaObject@@XZ @ 535 NONAME ; struct QMetaObject const & QColumnView::getStaticMetaObject(void)
	?verticalScrollBar@QAbstractScrollArea@@QBEPAVQScrollBar@@XZ @ 536 NONAME ; class QScrollBar * QAbstractScrollArea::verticalScrollBar(void) const
	?setScreenPos@QGraphicsSceneDragDropEvent@@QAEXABVQPoint@@@Z @ 537 NONAME ; void QGraphicsSceneDragDropEvent::setScreenPos(class QPoint const &)
	??0QPixmapColorizeFilter@@QAE@PAVQObject@@@Z @ 538 NONAME ; QPixmapColorizeFilter::QPixmapColorizeFilter(class QObject *)
	?hasAlphaChannel@QImage@@QBE_NXZ @ 539 NONAME ; bool QImage::hasAlphaChannel(void) const
	?drawBranches@QTreeView@@MBEXPAVQPainter@@ABVQRect@@ABVQModelIndex@@@Z @ 540 NONAME ; void QTreeView::drawBranches(class QPainter *, class QRect const &, class QModelIndex const &) const
	?d_func@QGraphicsWidget@@ABEPBVQGraphicsWidgetPrivate@@XZ @ 541 NONAME ; class QGraphicsWidgetPrivate const * QGraphicsWidget::d_func(void) const
	?mimeTypes@QStandardItemModel@@UBE?AVQStringList@@XZ @ 542 NONAME ; class QStringList QStandardItemModel::mimeTypes(void) const
	?setBlue@QColor@@QAEXH@Z @ 543 NONAME ; void QColor::setBlue(int)
	?visualRect@QListView@@UBE?AVQRect@@ABVQModelIndex@@@Z @ 544 NONAME ; class QRect QListView::visualRect(class QModelIndex const &) const
	?pageBreakPolicy@QTextBlockFormat@@QBE?AV?$QFlags@W4PageBreakFlag@QTextFormat@@@@XZ @ 545 NONAME ; class QFlags<enum QTextFormat::PageBreakFlag> QTextBlockFormat::pageBreakPolicy(void) const
	?mimeTypes@QListWidget@@MBE?AVQStringList@@XZ @ 546 NONAME ; class QStringList QListWidget::mimeTypes(void) const
	?information@QMessageBox@@SA?AW4StandardButton@1@PAVQWidget@@ABVQString@@1V?$QFlags@W4StandardButton@QMessageBox@@@@W421@@Z @ 547 NONAME ; enum QMessageBox::StandardButton QMessageBox::information(class QWidget *, class QString const &, class QString const &, class QFlags<enum QMessageBox::StandardButton>, enum QMessageBox::StandardButton)
	?setSelected@QGraphicsItem@@QAEX_N@Z @ 548 NONAME ; void QGraphicsItem::setSelected(bool)
	?matrix@QPainter@@QBEABVQMatrix@@XZ @ 549 NONAME ; class QMatrix const & QPainter::matrix(void) const
	?canRedoChanged@QUndoStack@@IAEX_N@Z @ 550 NONAME ; void QUndoStack::canRedoChanged(bool)
	?setVector@QQuaternion@@QAEXMMM@Z @ 551 NONAME ; void QQuaternion::setVector(float, float, float)
	?serialNumber@QPixmapData@@QBEHXZ @ 552 NONAME ; int QPixmapData::serialNumber(void) const
	?mapFromItem@QGraphicsItem@@QBE?AVQPointF@@PBV1@MM@Z @ 553 NONAME ; class QPointF QGraphicsItem::mapFromItem(class QGraphicsItem const *, float, float) const
	?getInt@QInputDialog@@SAHPAVQWidget@@ABVQString@@1HHHHPA_NV?$QFlags@W4WindowType@Qt@@@@@Z @ 554 NONAME ; int QInputDialog::getInt(class QWidget *, class QString const &, class QString const &, int, int, int, int, bool *, class QFlags<enum Qt::WindowType>)
	??D@YA?AVQLineF@@ABV0@ABVQMatrix@@@Z @ 555 NONAME ; class QLineF operator*(class QLineF const &, class QMatrix const &)
	?tr@QTextDocument@@SA?AVQString@@PBD0H@Z @ 556 NONAME ; class QString QTextDocument::tr(char const *, char const *, int)
	?setDirectory_sys@QFileDialogPrivate@@QAEXABVQString@@@Z @ 557 NONAME ; void QFileDialogPrivate::setDirectory_sys(class QString const &)
	?beginNativePainting@QPaintEngineEx@@UAEXXZ @ 558 NONAME ; void QPaintEngineEx::beginNativePainting(void)
	?fillRect@QPainter@@QAEXABVQRect@@ABVQBrush@@@Z @ 559 NONAME ; void QPainter::fillRect(class QRect const &, class QBrush const &)
	?setPixmap@QLabel@@QAEXABVQPixmap@@@Z @ 560 NONAME ; void QLabel::setPixmap(class QPixmap const &)
	??0QTextListFormat@@IAE@ABVQTextFormat@@@Z @ 561 NONAME ; QTextListFormat::QTextListFormat(class QTextFormat const &)
	?hasTracking@QAbstractSlider@@QBE_NXZ @ 562 NONAME ; bool QAbstractSlider::hasTracking(void) const
	?drawPath@QPaintEngineEx@@UAEXABVQPainterPath@@@Z @ 563 NONAME ; void QPaintEngineEx::drawPath(class QPainterPath const &)
	?itemDoubleClicked@QTableWidget@@IAEXPAVQTableWidgetItem@@@Z @ 564 NONAME ; void QTableWidget::itemDoubleClicked(class QTableWidgetItem *)
	?currentChanged@QListView@@MAEXABVQModelIndex@@0@Z @ 565 NONAME ; void QListView::currentChanged(class QModelIndex const &, class QModelIndex const &)
	?getItemPosition@QGridLayout@@QAEXHPAH000@Z @ 566 NONAME ; void QGridLayout::getItemPosition(int, int *, int *, int *, int *)
	?begin@QStrokerOps@@UAEXPAX@Z @ 567 NONAME ; void QStrokerOps::begin(void *)
	?data@QClipboardEvent@@QAEPAVQEventPrivate@@XZ @ 568 NONAME ; class QEventPrivate * QClipboardEvent::data(void)
	?clearEditText@QComboBox@@QAEXXZ @ 569 NONAME ; void QComboBox::clearEditText(void)
	?modelColumn@QListView@@QBEHXZ @ 570 NONAME ; int QListView::modelColumn(void) const
	?staticMetaObject@QWizard@@2UQMetaObject@@B @ 571 NONAME ; struct QMetaObject const QWizard::staticMetaObject
	?saveState@QMainWindow@@QBE?AVQByteArray@@H@Z @ 572 NONAME ; class QByteArray QMainWindow::saveState(int) const
	?sortIndicatorChanged@QHeaderView@@IAEXHW4SortOrder@Qt@@@Z @ 573 NONAME ; void QHeaderView::sortIndicatorChanged(int, enum Qt::SortOrder)
	?overrideCursor@QApplication@@SAPAVQCursor@@XZ @ 574 NONAME ; class QCursor * QApplication::overrideCursor(void)
	?metaObject@QIconEnginePlugin@@UBEPBUQMetaObject@@XZ @ 575 NONAME ; struct QMetaObject const * QIconEnginePlugin::metaObject(void) const
	?setColumnStretchFactor@QGraphicsGridLayout@@QAEXHH@Z @ 576 NONAME ; void QGraphicsGridLayout::setColumnStretchFactor(int, int)
	?copy@QImage@@QBE?AV1@ABVQRect@@@Z @ 577 NONAME ; class QImage QImage::copy(class QRect const &) const
	?setGraphicsEffectSource@QGraphicsEffectPrivate@@QAEXPAVQGraphicsEffectSource@@@Z @ 578 NONAME ; void QGraphicsEffectPrivate::setGraphicsEffectSource(class QGraphicsEffectSource *)
	?active_window@QApplicationPrivate@@2PAVQWidget@@A @ 579 NONAME ; class QWidget * QApplicationPrivate::active_window
	?calculateGraphs@QGraphicsAnchorLayoutPrivate@@QAEXW4Orientation@1@@Z @ 580 NONAME ; void QGraphicsAnchorLayoutPrivate::calculateGraphs(enum QGraphicsAnchorLayoutPrivate::Orientation)
	?save@QPixmap@@QBE_NPAVQIODevice@@PBDH@Z @ 581 NONAME ; bool QPixmap::save(class QIODevice *, char const *, int) const
	?setX@QVector3D@@QAEXM@Z @ 582 NONAME ; void QVector3D::setX(float)
	?selectionChanged@QGraphicsScene@@IAEXXZ @ 583 NONAME ; void QGraphicsScene::selectionChanged(void)
	?resizeEvent@QDial@@MAEXPAVQResizeEvent@@@Z @ 584 NONAME ; void QDial::resizeEvent(class QResizeEvent *)
	?addPixmap@QGraphicsScene@@QAEPAVQGraphicsPixmapItem@@ABVQPixmap@@@Z @ 585 NONAME ; class QGraphicsPixmapItem * QGraphicsScene::addPixmap(class QPixmap const &)
	??9QPainterPath@@QBE_NABV0@@Z @ 586 NONAME ; bool QPainterPath::operator!=(class QPainterPath const &) const
	?spec@QColor@@QBE?AW4Spec@1@XZ @ 587 NONAME ; enum QColor::Spec QColor::spec(void) const
	?setWorldMatrixEnabled@QPainter@@QAEX_N@Z @ 588 NONAME ; void QPainter::setWorldMatrixEnabled(bool)
	?internalSetSloppyAction@QMenu@@AAEXXZ @ 589 NONAME ; void QMenu::internalSetSloppyAction(void)
	?layoutBlock@QPlainTextDocumentLayout@@AAEXABVQTextBlock@@@Z @ 590 NONAME ; void QPlainTextDocumentLayout::layoutBlock(class QTextBlock const &)
	?itemAt@QTableWidget@@QBEPAVQTableWidgetItem@@ABVQPoint@@@Z @ 591 NONAME ; class QTableWidgetItem * QTableWidget::itemAt(class QPoint const &) const
	?getStaticMetaObject@QGraphicsTransform@@SAABUQMetaObject@@XZ @ 592 NONAME ; struct QMetaObject const & QGraphicsTransform::getStaticMetaObject(void)
	??1QGraphicsEffectPrivate@@UAE@XZ @ 593 NONAME ; QGraphicsEffectPrivate::~QGraphicsEffectPrivate(void)
	??0QInputContext@@QAE@PAVQObject@@@Z @ 594 NONAME ; QInputContext::QInputContext(class QObject *)
	?dragMoveEvent@QTreeView@@MAEXPAVQDragMoveEvent@@@Z @ 595 NONAME ; void QTreeView::dragMoveEvent(class QDragMoveEvent *)
	?createEditor@QItemEditorFactory@@UBEPAVQWidget@@W4Type@QVariant@@PAV2@@Z @ 596 NONAME ; class QWidget * QItemEditorFactory::createEditor(enum QVariant::Type, class QWidget *) const
	?dotsPerMeterX@QImage@@QBEHXZ @ 597 NONAME ; int QImage::dotsPerMeterX(void) const
	?restoreState@QDockAreaLayout@@QAE_NAAVQDataStream@@ABV?$QList@PAVQDockWidget@@@@_N@Z @ 598 NONAME ; bool QDockAreaLayout::restoreState(class QDataStream &, class QList<class QDockWidget *> const &, bool)
	??0QStyleOptionComboBox@@QAE@ABV0@@Z @ 599 NONAME ; QStyleOptionComboBox::QStyleOptionComboBox(class QStyleOptionComboBox const &)
	?setBackground@QWorkspace@@QAEXABVQBrush@@@Z @ 600 NONAME ; void QWorkspace::setBackground(class QBrush const &)
	?pixelSizeChanged@QGraphicsPixelizeEffect@@IAEXH@Z @ 601 NONAME ; void QGraphicsPixelizeEffect::pixelSizeChanged(int)
	?cursorForPosition@QTextEdit@@QBE?AVQTextCursor@@ABVQPoint@@@Z @ 602 NONAME ; class QTextCursor QTextEdit::cursorForPosition(class QPoint const &) const
	??0QQuaternion@@QAE@XZ @ 603 NONAME ; QQuaternion::QQuaternion(void)
	?modificationChanged@QPlainTextEdit@@IAEX_N@Z @ 604 NONAME ; void QPlainTextEdit::modificationChanged(bool)
	?sizeHint@QMdiSubWindow@@UBE?AVQSize@@XZ @ 605 NONAME ; class QSize QMdiSubWindow::sizeHint(void) const
	?setDefault@QPushButton@@QAEX_N@Z @ 606 NONAME ; void QPushButton::setDefault(bool)
	?setNoReplayFor@QMenu@@QAEXPAVQWidget@@@Z @ 607 NONAME ; void QMenu::setNoReplayFor(class QWidget *)
	?mousePressEvent@QGraphicsProxyWidget@@MAEXPAVQGraphicsSceneMouseEvent@@@Z @ 608 NONAME ; void QGraphicsProxyWidget::mousePressEvent(class QGraphicsSceneMouseEvent *)
	?format@QAbstractTextDocumentLayout@@IAE?AVQTextCharFormat@@H@Z @ 609 NONAME ; class QTextCharFormat QAbstractTextDocumentLayout::format(int)
	?trUtf8@QButtonGroup@@SA?AVQString@@PBD0H@Z @ 610 NONAME ; class QString QButtonGroup::trUtf8(char const *, char const *, int)
	?qt_metacall@QDockWidgetLayout@@UAEHW4Call@QMetaObject@@HPAPAX@Z @ 611 NONAME ; int QDockWidgetLayout::qt_metacall(enum QMetaObject::Call, int, void * *)
	?redoGrab@QActionPrivate@@QAEXAAVQShortcutMap@@@Z @ 612 NONAME ; void QActionPrivate::redoGrab(class QShortcutMap &)
	?offset@QImage@@QBE?AVQPoint@@XZ @ 613 NONAME ; class QPoint QImage::offset(void) const
	?metaObject@QMenu@@UBEPBUQMetaObject@@XZ @ 614 NONAME ; struct QMetaObject const * QMenu::metaObject(void) const
	?qt_scaleForTransform@@YA_NABVQTransform@@PAM@Z @ 615 NONAME ; bool qt_scaleForTransform(class QTransform const &, float *)
	??0QLineEdit@@QAE@PAVQWidget@@@Z @ 616 NONAME ; QLineEdit::QLineEdit(class QWidget *)
	?text@QAction@@QBE?AVQString@@XZ @ 617 NONAME ; class QString QAction::text(void) const
	?setMovable@QTabWidget@@QAEX_N@Z @ 618 NONAME ; void QTabWidget::setMovable(bool)
	?orientation@QDataWidgetMapper@@QBE?AW4Orientation@Qt@@XZ @ 619 NONAME ; enum Qt::Orientation QDataWidgetMapper::orientation(void) const
	??_EQPaintEngineExReplayer@@UAE@I@Z @ 620 NONAME ; QPaintEngineExReplayer::~QPaintEngineExReplayer(unsigned int)
	??BQCursor@@QBE?AVQVariant@@XZ @ 621 NONAME ; QCursor::operator class QVariant(void) const
	?setLineEdit@QComboBox@@QAEXPAVQLineEdit@@@Z @ 622 NONAME ; void QComboBox::setLineEdit(class QLineEdit *)
	?setOverrideCursor@QApplication@@SAXABVQCursor@@@Z @ 623 NONAME ; void QApplication::setOverrideCursor(class QCursor const &)
	?model@QDataWidgetMapper@@QBEPAVQAbstractItemModel@@XZ @ 624 NONAME ; class QAbstractItemModel * QDataWidgetMapper::model(void) const
	??4QBrush@@QAEAAV0@ABV0@@Z @ 625 NONAME ; class QBrush & QBrush::operator=(class QBrush const &)
	?metaObject@QUrlModel@@UBEPBUQMetaObject@@XZ @ 626 NONAME ; struct QMetaObject const * QUrlModel::metaObject(void) const
	?hasFixedSize@QDockAreaLayoutInfo@@QBE_NXZ @ 627 NONAME ; bool QDockAreaLayoutInfo::hasFixedSize(void) const
	?boundingRect@QGraphicsPixmapItem@@UBE?AVQRectF@@XZ @ 628 NONAME ; class QRectF QGraphicsPixmapItem::boundingRect(void) const
	?accepted@QDialog@@IAEXXZ @ 629 NONAME ; void QDialog::accepted(void)
	?trUtf8@QHBoxLayout@@SA?AVQString@@PBD0@Z @ 630 NONAME ; class QString QHBoxLayout::trUtf8(char const *, char const *)
	?drawRoundRect@QPainter@@QAEXABVQRectF@@HH@Z @ 631 NONAME ; void QPainter::drawRoundRect(class QRectF const &, int, int)
	??1QUndoStack@@UAE@XZ @ 632 NONAME ; QUndoStack::~QUndoStack(void)
	??6@YAAAVQDataStream@@AAV0@ABVQSizePolicy@@@Z @ 633 NONAME ; class QDataStream & operator<<(class QDataStream &, class QSizePolicy const &)
	?setCurrentTabId@QDockAreaLayoutInfo@@QAEXI@Z @ 634 NONAME ; void QDockAreaLayoutInfo::setCurrentTabId(unsigned int)
	?trUtf8@QStylePlugin@@SA?AVQString@@PBD0H@Z @ 635 NONAME ; class QString QStylePlugin::trUtf8(char const *, char const *, int)
	?showEvent@QMdiSubWindow@@MAEXPAVQShowEvent@@@Z @ 636 NONAME ; void QMdiSubWindow::showEvent(class QShowEvent *)
	?setPageSize@QTextDocument@@QAEXABVQSizeF@@@Z @ 637 NONAME ; void QTextDocument::setPageSize(class QSizeF const &)
	?selectAll@QTextControl@@QAEXXZ @ 638 NONAME ; void QTextControl::selectAll(void)
	?rotate@QMatrix4x4@@QAEAAV1@ABVQQuaternion@@@Z @ 639 NONAME ; class QMatrix4x4 & QMatrix4x4::rotate(class QQuaternion const &)
	?setFont@QStandardItem@@QAEXABVQFont@@@Z @ 640 NONAME ; void QStandardItem::setFont(class QFont const &)
	?checkOverflow@QLCDNumber@@QBE_NN@Z @ 641 NONAME ; bool QLCDNumber::checkOverflow(double) const
	?dropMimeData@QTreeWidget@@MAE_NPAVQTreeWidgetItem@@HPBVQMimeData@@W4DropAction@Qt@@@Z @ 642 NONAME ; bool QTreeWidget::dropMimeData(class QTreeWidgetItem *, int, class QMimeData const *, enum Qt::DropAction)
	?trUtf8@QStylePlugin@@SA?AVQString@@PBD0@Z @ 643 NONAME ; class QString QStylePlugin::trUtf8(char const *, char const *)
	?setViewTransformEnabled@QPainter@@QAEX_N@Z @ 644 NONAME ; void QPainter::setViewTransformEnabled(bool)
	?_q_goHome@QFileDialogPrivate@@QAEXXZ @ 645 NONAME ; void QFileDialogPrivate::_q_goHome(void)
	??0QIcon@@QAE@ABVQPixmap@@@Z @ 646 NONAME ; QIcon::QIcon(class QPixmap const &)
	?requestUpdate@QPlainTextDocumentLayout@@QAEXXZ @ 647 NONAME ; void QPlainTextDocumentLayout::requestUpdate(void)
	?mapToScene@QGraphicsViewPrivate@@QBE?AVQRectF@@ABV2@@Z @ 648 NONAME ; class QRectF QGraphicsViewPrivate::mapToScene(class QRectF const &) const
	?height@QFontMetrics@@QBEHXZ @ 649 NONAME ; int QFontMetrics::height(void) const
	?closestLegalPosition@QSplitter@@IAEHHH@Z @ 650 NONAME ; int QSplitter::closestLegalPosition(int, int)
	?testFunction@Parser@QCss@@QAE_NXZ @ 651 NONAME ; bool QCss::Parser::testFunction(void)
	?moveTo@QPainterPath@@QAEXMM@Z @ 652 NONAME ; void QPainterPath::moveTo(float, float)
	?font@QFontDatabase@@QBE?AVQFont@@ABVQString@@0H@Z @ 653 NONAME ; class QFont QFontDatabase::font(class QString const &, class QString const &, int) const
	?fillRule@QPainterPath@@QBE?AW4FillRule@Qt@@XZ @ 654 NONAME ; enum Qt::FillRule QPainterPath::fillRule(void) const
	?event@QRubberBand@@MAE_NPAVQEvent@@@Z @ 655 NONAME ; bool QRubberBand::event(class QEvent *)
	?setWinId@QWidgetPrivate@@QAEXPAVCCoeControl@@@Z @ 656 NONAME ; void QWidgetPrivate::setWinId(class CCoeControl *)
	?setSpacing@QListView@@QAEXH@Z @ 657 NONAME ; void QListView::setSpacing(int)
	?trUtf8@QSoftKeyManager@@SA?AVQString@@PBD0@Z @ 658 NONAME ; class QString QSoftKeyManager::trUtf8(char const *, char const *)
	?mouseReleaseEvent@QGraphicsTextItem@@MAEXPAVQGraphicsSceneMouseEvent@@@Z @ 659 NONAME ; void QGraphicsTextItem::mouseReleaseEvent(class QGraphicsSceneMouseEvent *)
	?trUtf8@QDateEdit@@SA?AVQString@@PBD0@Z @ 660 NONAME ; class QString QDateEdit::trUtf8(char const *, char const *)
	?items@QGraphicsSceneBspTreeIndex@@UBE?AV?$QList@PAVQGraphicsItem@@@@W4SortOrder@Qt@@@Z @ 661 NONAME ; class QList<class QGraphicsItem *> QGraphicsSceneBspTreeIndex::items(enum Qt::SortOrder) const
	?draw@QTextDocumentLayout@@UAEXPAVQPainter@@ABUPaintContext@QAbstractTextDocumentLayout@@@Z @ 662 NONAME ; void QTextDocumentLayout::draw(class QPainter *, struct QAbstractTextDocumentLayout::PaintContext const &)
	?text@QTreeWidgetItem@@QBE?AVQString@@H@Z @ 663 NONAME ; class QString QTreeWidgetItem::text(int) const
	?_q_rowsRemoved@QAbstractItemViewPrivate@@UAEXABVQModelIndex@@HH@Z @ 664 NONAME ; void QAbstractItemViewPrivate::_q_rowsRemoved(class QModelIndex const &, int, int)
	?setPosition@QTextFrameFormat@@QAEXW4Position@1@@Z @ 665 NONAME ; void QTextFrameFormat::setPosition(enum QTextFrameFormat::Position)
	??_EQPlainTextEdit@@UAE@I@Z @ 666 NONAME ; QPlainTextEdit::~QPlainTextEdit(unsigned int)
	?updateFile@QFileInfoGatherer@@QAEXABVQString@@@Z @ 667 NONAME ; void QFileInfoGatherer::updateFile(class QString const &)
	?tr@QHBoxLayout@@SA?AVQString@@PBD0H@Z @ 668 NONAME ; class QString QHBoxLayout::tr(char const *, char const *, int)
	?getHsv@QColor@@QBEXPAH000@Z @ 669 NONAME ; void QColor::getHsv(int *, int *, int *, int *) const
	??8QItemSelectionRange@@QBE_NABV0@@Z @ 670 NONAME ; bool QItemSelectionRange::operator==(class QItemSelectionRange const &) const
	?translationList@QGraphicsItemAnimation@@QBE?AV?$QList@U?$QPair@MVQPointF@@@@@@XZ @ 671 NONAME ; class QList<struct QPair<float, class QPointF> > QGraphicsItemAnimation::translationList(void) const
	?undoTextChanged@QUndoGroup@@IAEXABVQString@@@Z @ 672 NONAME ; void QUndoGroup::undoTextChanged(class QString const &)
	?addMenu@QMenu@@QAEPAV1@ABVQIcon@@ABVQString@@@Z @ 673 NONAME ; class QMenu * QMenu::addMenu(class QIcon const &, class QString const &)
	??1QCheckBox@@UAE@XZ @ 674 NONAME ; QCheckBox::~QCheckBox(void)
	?unsetUrlHandler@QDesktopServices@@SAXABVQString@@@Z @ 675 NONAME ; void QDesktopServices::unsetUrlHandler(class QString const &)
	?unsetHotSpot@QGesture@@QAEXXZ @ 676 NONAME ; void QGesture::unsetHotSpot(void)
	?brushValue@Declaration@QCss@@QBE?AVQBrush@@ABVQPalette@@@Z @ 677 NONAME ; class QBrush QCss::Declaration::brushValue(class QPalette const &) const
	?sizeHint@QDockAreaLayout@@QBE?AVQSize@@XZ @ 678 NONAME ; class QSize QDockAreaLayout::sizeHint(void) const
	?drawPoints@QPainter@@QAEXABVQPolygonF@@@Z @ 679 NONAME ; void QPainter::drawPoints(class QPolygonF const &)
	?setModel@QTableWidget@@EAEXPAVQAbstractItemModel@@@Z @ 680 NONAME ; void QTableWidget::setModel(class QAbstractItemModel *)
	?parseNextMedium@Parser@QCss@@QAE_NPAVQStringList@@@Z @ 681 NONAME ; bool QCss::Parser::parseNextMedium(class QStringList *)
	?addEllipse@QPainterPath@@QAEXMMMM@Z @ 682 NONAME ; void QPainterPath::addEllipse(float, float, float, float)
	??D@YA?AVQPainterPath@@ABV0@ABVQTransform@@@Z @ 683 NONAME ; class QPainterPath operator*(class QPainterPath const &, class QTransform const &)
	?setTabToolTip@QTabBar@@QAEXHABVQString@@@Z @ 684 NONAME ; void QTabBar::setTabToolTip(int, class QString const &)
	??0QStyleOptionProgressBar@@QAE@XZ @ 685 NONAME ; QStyleOptionProgressBar::QStyleOptionProgressBar(void)
	?staticMetaObject@QPaintBufferResource@@2UQMetaObject@@B @ 686 NONAME ; struct QMetaObject const QPaintBufferResource::staticMetaObject
	?buddy@QLabel@@QBEPAVQWidget@@XZ @ 687 NONAME ; class QWidget * QLabel::buddy(void) const
	?testClass@Parser@QCss@@QAE_NXZ @ 688 NONAME ; bool QCss::Parser::testClass(void)
	?updatePasswordEchoEditing@QLineControl@@QAEX_N@Z @ 689 NONAME ; void QLineControl::updatePasswordEchoEditing(bool)
	??1QSidebar@@UAE@XZ @ 690 NONAME ; QSidebar::~QSidebar(void)
	?textEdited@QLineControl@@IAEXABVQString@@@Z @ 691 NONAME ; void QLineControl::textEdited(class QString const &)
	?refresh@QSplitter@@QAEXXZ @ 692 NONAME ; void QSplitter::refresh(void)
	?setBackgroundMode@QPainter@@QAEXW4BGMode@Qt@@@Z @ 693 NONAME ; void QPainter::setBackgroundMode(enum Qt::BGMode)
	?mouseReleaseEvent@QSplitterHandle@@MAEXPAVQMouseEvent@@@Z @ 694 NONAME ; void QSplitterHandle::mouseReleaseEvent(class QMouseEvent *)
	??0QStyleOptionTabV3@@QAE@ABVQStyleOptionTabV2@@@Z @ 695 NONAME ; QStyleOptionTabV3::QStyleOptionTabV3(class QStyleOptionTabV2 const &)
	?setMaximumHeight@QWidget@@QAEXH@Z @ 696 NONAME ; void QWidget::setMaximumHeight(int)
	?setActiveWindow@QGraphicsScene@@QAEXPAVQGraphicsWidget@@@Z @ 697 NONAME ; void QGraphicsScene::setActiveWindow(class QGraphicsWidget *)
	?items@QGraphicsScene@@QBE?AV?$QList@PAVQGraphicsItem@@@@ABVQPointF@@W4ItemSelectionMode@Qt@@W4SortOrder@5@ABVQTransform@@@Z @ 698 NONAME ; class QList<class QGraphicsItem *> QGraphicsScene::items(class QPointF const &, enum Qt::ItemSelectionMode, enum Qt::SortOrder, class QTransform const &) const
	?height@QItemSelectionRange@@QBEHXZ @ 699 NONAME ; int QItemSelectionRange::height(void) const
	??0QImageReader@@QAE@PAVQIODevice@@ABVQByteArray@@@Z @ 700 NONAME ; QImageReader::QImageReader(class QIODevice *, class QByteArray const &)
	?setCurrentRow@QListWidget@@QAEXHV?$QFlags@W4SelectionFlag@QItemSelectionModel@@@@@Z @ 701 NONAME ; void QListWidget::setCurrentRow(int, class QFlags<enum QItemSelectionModel::SelectionFlag>)
	?trUtf8@QWorkspace@@SA?AVQString@@PBD0H@Z @ 702 NONAME ; class QString QWorkspace::trUtf8(char const *, char const *, int)
	?maximum@QSpinBox@@QBEHXZ @ 703 NONAME ; int QSpinBox::maximum(void) const
	?d_func@QLCDNumber@@ABEPBVQLCDNumberPrivate@@XZ @ 704 NONAME ; class QLCDNumberPrivate const * QLCDNumber::d_func(void) const
	?tr@QDoubleSpinBox@@SA?AVQString@@PBD0H@Z @ 705 NONAME ; class QString QDoubleSpinBox::tr(char const *, char const *, int)
	?jumpToImage@QImageReader@@QAE_NH@Z @ 706 NONAME ; bool QImageReader::jumpToImage(int)
	?scalar@QQuaternion@@QBEMXZ @ 707 NONAME ; float QQuaternion::scalar(void) const
	?getStaticMetaObject@QTimeEdit@@SAABUQMetaObject@@XZ @ 708 NONAME ; struct QMetaObject const & QTimeEdit::getStaticMetaObject(void)
	??BQPalette@@QBE?AVQVariant@@XZ @ 709 NONAME ; QPalette::operator class QVariant(void) const
	?getStaticMetaObject@QTreeView@@SAABUQMetaObject@@XZ @ 710 NONAME ; struct QMetaObject const & QTreeView::getStaticMetaObject(void)
	?setStretchLastSection@QHeaderView@@QAEX_N@Z @ 711 NONAME ; void QHeaderView::setStretchLastSection(bool)
	?map@QTransform@@QBE?AVQPainterPath@@ABV2@@Z @ 712 NONAME ; class QPainterPath QTransform::map(class QPainterPath const &) const
	?currentIndex@QToolBox@@QBEHXZ @ 713 NONAME ; int QToolBox::currentIndex(void) const
	?setUnderlineStyle@QTextCharFormat@@QAEXW4UnderlineStyle@1@@Z @ 714 NONAME ; void QTextCharFormat::setUnderlineStyle(enum QTextCharFormat::UnderlineStyle)
	??0QTableWidgetItem@@QAE@ABV0@@Z @ 715 NONAME ; QTableWidgetItem::QTableWidgetItem(class QTableWidgetItem const &)
	?setText@QTreeWidgetItem@@QAEXHABVQString@@@Z @ 716 NONAME ; void QTreeWidgetItem::setText(int, class QString const &)
	?removeItem@QGraphicsLinearLayout@@QAEXPAVQGraphicsLayoutItem@@@Z @ 717 NONAME ; void QGraphicsLinearLayout::removeItem(class QGraphicsLayoutItem *)
	?headerData@QDirModel@@UBE?AVQVariant@@HW4Orientation@Qt@@H@Z @ 718 NONAME ; class QVariant QDirModel::headerData(int, enum Qt::Orientation, int) const
	?tr@QLineEdit@@SA?AVQString@@PBD0@Z @ 719 NONAME ; class QString QLineEdit::tr(char const *, char const *)
	?globalY@QWheelEvent@@QBEHXZ @ 720 NONAME ; int QWheelEvent::globalY(void) const
	??1QClipboard@@EAE@XZ @ 721 NONAME ; QClipboard::~QClipboard(void)
	??0QTextLayout@@QAE@XZ @ 722 NONAME ; QTextLayout::QTextLayout(void)
	?keyPressEvent@QTabBar@@MAEXPAVQKeyEvent@@@Z @ 723 NONAME ; void QTabBar::keyPressEvent(class QKeyEvent *)
	?colorProperty@QTextFormat@@QBE?AVQColor@@H@Z @ 724 NONAME ; class QColor QTextFormat::colorProperty(int) const
	?addLayout@QBoxLayout@@QAEXPAVQLayout@@H@Z @ 725 NONAME ; void QBoxLayout::addLayout(class QLayout *, int)
	?hovered@QActionGroup@@IAEXPAVQAction@@@Z @ 726 NONAME ; void QActionGroup::hovered(class QAction *)
	?stack@QUndoView@@QBEPAVQUndoStack@@XZ @ 727 NONAME ; class QUndoStack * QUndoView::stack(void) const
	?squareToQuad@QTransform@@SA_NABVQPolygonF@@AAV1@@Z @ 728 NONAME ; bool QTransform::squareToQuad(class QPolygonF const &, class QTransform &)
	?controlPointRect@QPainterPath@@QBE?AVQRectF@@XZ @ 729 NONAME ; class QRectF QPainterPath::controlPointRect(void) const
	?language@QCoeFepInputContext@@UAE?AVQString@@XZ @ 730 NONAME ; class QString QCoeFepInputContext::language(void)
	?horizontalScrollbarAction@QTableView@@MAEXH@Z @ 731 NONAME ; void QTableView::horizontalScrollbarAction(int)
	?paintEvent@QColumnViewGrip@@MAEXPAVQPaintEvent@@@Z @ 732 NONAME ; void QColumnViewGrip::paintEvent(class QPaintEvent *)
	?qt_metacall@QGraphicsView@@UAEHW4Call@QMetaObject@@HPAPAX@Z @ 733 NONAME ; int QGraphicsView::qt_metacall(enum QMetaObject::Call, int, void * *)
	?itemPrototype@QStandardItemModel@@QBEPBVQStandardItem@@XZ @ 734 NONAME ; class QStandardItem const * QStandardItemModel::itemPrototype(void) const
	?shortcut@QAbstractButton@@QBE?AVQKeySequence@@XZ @ 735 NONAME ; class QKeySequence QAbstractButton::shortcut(void) const
	?sizeHint@QMessageBox@@UBE?AVQSize@@XZ @ 736 NONAME ; class QSize QMessageBox::sizeHint(void) const
	?joinPreviousEditBlock@QTextCursor@@QAEXXZ @ 737 NONAME ; void QTextCursor::joinPreviousEditBlock(void)
	?setRightPadding@QTextTableCellFormat@@QAEXM@Z @ 738 NONAME ; void QTextTableCellFormat::setRightPadding(float)
	??_EQGraphicsRectItem@@UAE@I@Z @ 739 NONAME ; QGraphicsRectItem::~QGraphicsRectItem(unsigned int)
	?qtVectorPathForPath@@YAABVQVectorPath@@ABVQPainterPath@@@Z @ 740 NONAME ; class QVectorPath const & qtVectorPathForPath(class QPainterPath const &)
	?effectiveSizeHints@QGraphicsLayoutItemPrivate@@QBEPAVQSizeF@@ABV2@@Z @ 741 NONAME ; class QSizeF * QGraphicsLayoutItemPrivate::effectiveSizeHints(class QSizeF const &) const
	??4QStyleOptionProgressBarV2@@QAEAAV0@ABVQStyleOptionProgressBar@@@Z @ 742 NONAME ; class QStyleOptionProgressBarV2 & QStyleOptionProgressBarV2::operator=(class QStyleOptionProgressBar const &)
	?rowSpacing@QGraphicsGridLayout@@QBEMH@Z @ 743 NONAME ; float QGraphicsGridLayout::rowSpacing(int) const
	?d_func@QWorkspace@@AAEPAVQWorkspacePrivate@@XZ @ 744 NONAME ; class QWorkspacePrivate * QWorkspace::d_func(void)
	?translate@QPolygonF@@QAEXABVQPointF@@@Z @ 745 NONAME ; void QPolygonF::translate(class QPointF const &)
	?getGraphParts@QGraphicsAnchorLayoutPrivate@@QAE?AV?$QList@V?$QList@PAUQSimplexConstraint@@@@@@W4Orientation@1@@Z @ 746 NONAME ; class QList<class QList<struct QSimplexConstraint *> > QGraphicsAnchorLayoutPrivate::getGraphParts(enum QGraphicsAnchorLayoutPrivate::Orientation)
	?translated@QPolygonF@@QBE?AV1@ABVQPointF@@@Z @ 747 NONAME ; class QPolygonF QPolygonF::translated(class QPointF const &) const
	?setPositionForIndex@QListView@@IAEXABVQPoint@@ABVQModelIndex@@@Z @ 748 NONAME ; void QListView::setPositionForIndex(class QPoint const &, class QModelIndex const &)
	?smallDecimalPoint@QLCDNumber@@QBE_NXZ @ 749 NONAME ; bool QLCDNumber::smallDecimalPoint(void) const
	?getStaticMetaObject@QAction@@SAABUQMetaObject@@XZ @ 750 NONAME ; struct QMetaObject const & QAction::getStaticMetaObject(void)
	?description@QImageWriter@@QBE?AVQString@@XZ @ 751 NONAME ; class QString QImageWriter::description(void) const
	??1QStyleOptionToolBoxV2@@QAE@XZ @ 752 NONAME ; QStyleOptionToolBoxV2::~QStyleOptionToolBoxV2(void)
	??_EQMdiSubWindow@@UAE@I@Z @ 753 NONAME ; QMdiSubWindow::~QMdiSubWindow(unsigned int)
	?setAccelerated@QAbstractSpinBox@@QAEX_N@Z @ 754 NONAME ; void QAbstractSpinBox::setAccelerated(bool)
	??1QGesture@@UAE@XZ @ 755 NONAME ; QGesture::~QGesture(void)
	?rehighlight@QSyntaxHighlighter@@QAEXXZ @ 756 NONAME ; void QSyntaxHighlighter::rehighlight(void)
	?d_func@QComboBox@@ABEPBVQComboBoxPrivate@@XZ @ 757 NONAME ; class QComboBoxPrivate const * QComboBox::d_func(void) const
	?clearUndo@QLineControl@@QAEXXZ @ 758 NONAME ; void QLineControl::clearUndo(void)
	?setNameFilters@QFileDialog@@QAEXABVQStringList@@@Z @ 759 NONAME ; void QFileDialog::setNameFilters(class QStringList const &)
	?fixup@QAbstractSpinBox@@UBEXAAVQString@@@Z @ 760 NONAME ; void QAbstractSpinBox::fixup(class QString &) const
	?length@QTextDocumentPrivate@@QBEHXZ @ 761 NONAME ; int QTextDocumentPrivate::length(void) const
	?minimum@QProgressBar@@QBEHXZ @ 762 NONAME ; int QProgressBar::minimum(void) const
	?focusInEvent@QGraphicsItem@@MAEXPAVQFocusEvent@@@Z @ 763 NONAME ; void QGraphicsItem::focusInEvent(class QFocusEvent *)
	??_EQToolBarExtension@@UAE@I@Z @ 764 NONAME ; QToolBarExtension::~QToolBarExtension(unsigned int)
	?removePage@QWizard@@QAEXH@Z @ 765 NONAME ; void QWizard::removePage(int)
	?stepUp@QAbstractSpinBox@@QAEXXZ @ 766 NONAME ; void QAbstractSpinBox::stepUp(void)
	?removeFrame@QTextDocumentPrivate@@QAEXPAVQTextFrame@@@Z @ 767 NONAME ; void QTextDocumentPrivate::removeFrame(class QTextFrame *)
	?currentIndex@QStackedWidget@@QBEHXZ @ 768 NONAME ; int QStackedWidget::currentIndex(void) const
	?scrollToItem@QTableWidget@@QAEXPBVQTableWidgetItem@@W4ScrollHint@QAbstractItemView@@@Z @ 769 NONAME ; void QTableWidget::scrollToItem(class QTableWidgetItem const *, enum QAbstractItemView::ScrollHint)
	??0QGraphicsLinearLayout@@QAE@PAVQGraphicsLayoutItem@@@Z @ 770 NONAME ; QGraphicsLinearLayout::QGraphicsLinearLayout(class QGraphicsLayoutItem *)
	?setTitle@QGroupBox@@QAEXABVQString@@@Z @ 771 NONAME ; void QGroupBox::setTitle(class QString const &)
	?paint@QGraphicsTextItem@@UAEXPAVQPainter@@PBVQStyleOptionGraphicsItem@@PAVQWidget@@@Z @ 772 NONAME ; void QGraphicsTextItem::paint(class QPainter *, class QStyleOptionGraphicsItem const *, class QWidget *)
	?hoverEnterEvent@QGraphicsProxyWidget@@MAEXPAVQGraphicsSceneHoverEvent@@@Z @ 773 NONAME ; void QGraphicsProxyWidget::hoverEnterEvent(class QGraphicsSceneHoverEvent *)
	?pixelSize@QFontInfo@@QBEHXZ @ 774 NONAME ; int QFontInfo::pixelSize(void) const
	?visualItemRect@QListWidget@@QBE?AVQRect@@PBVQListWidgetItem@@@Z @ 775 NONAME ; class QRect QListWidget::visualItemRect(class QListWidgetItem const *) const
	?undoLimit@QUndoStack@@QBEHXZ @ 776 NONAME ; int QUndoStack::undoLimit(void) const
	?setSuffix@QDoubleSpinBox@@QAEXABVQString@@@Z @ 777 NONAME ; void QDoubleSpinBox::setSuffix(class QString const &)
	?takeAt@QDockAreaLayout@@QAEPAVQLayoutItem@@PAHH@Z @ 778 NONAME ; class QLayoutItem * QDockAreaLayout::takeAt(int *, int)
	?fontStyleHint@QTextCharFormat@@QBE?AW4StyleHint@QFont@@XZ @ 779 NONAME ; enum QFont::StyleHint QTextCharFormat::fontStyleHint(void) const
	?mouseMoveEventHandler@QGraphicsViewPrivate@@QAEXPAVQMouseEvent@@@Z @ 780 NONAME ; void QGraphicsViewPrivate::mouseMoveEventHandler(class QMouseEvent *)
	?trUtf8@QDockWidget@@SA?AVQString@@PBD0@Z @ 781 NONAME ; class QString QDockWidget::trUtf8(char const *, char const *)
	?tr@QWidgetAction@@SA?AVQString@@PBD0@Z @ 782 NONAME ; class QString QWidgetAction::tr(char const *, char const *)
	?resolveFont@QGraphicsItemPrivate@@UAEXI@Z @ 783 NONAME ; void QGraphicsItemPrivate::resolveFont(unsigned int)
	?getStaticMetaObject@QStackedWidget@@SAABUQMetaObject@@XZ @ 784 NONAME ; struct QMetaObject const & QStackedWidget::getStaticMetaObject(void)
	??_EQValidator@@UAE@I@Z @ 785 NONAME ; QValidator::~QValidator(unsigned int)
	?changeEvent@QGraphicsWidget@@MAEXPAVQEvent@@@Z @ 786 NONAME ; void QGraphicsWidget::changeEvent(class QEvent *)
	?tr@QAbstractItemView@@SA?AVQString@@PBD0@Z @ 787 NONAME ; class QString QAbstractItemView::tr(char const *, char const *)
	??0QStyleOptionFrameV3@@IAE@H@Z @ 788 NONAME ; QStyleOptionFrameV3::QStyleOptionFrameV3(int)
	?messageChanged@QSplashScreen@@IAEXABVQString@@@Z @ 789 NONAME ; void QSplashScreen::messageChanged(class QString const &)
	?separatorRect@QDockAreaLayout@@QBE?AVQRect@@ABV?$QList@H@@@Z @ 790 NONAME ; class QRect QDockAreaLayout::separatorRect(class QList<int> const &) const
	?rootPathChanged@QFileSystemModel@@IAEXABVQString@@@Z @ 791 NONAME ; void QFileSystemModel::rootPathChanged(class QString const &)
	?getStaticMetaObject@QPixmapDropShadowFilter@@SAABUQMetaObject@@XZ @ 792 NONAME ; struct QMetaObject const & QPixmapDropShadowFilter::getStaticMetaObject(void)
	?visibilityRequest@QTextControl@@IAEXABVQRectF@@@Z @ 793 NONAME ; void QTextControl::visibilityRequest(class QRectF const &)
	?qt_metacall@QPushButton@@UAEHW4Call@QMetaObject@@HPAPAX@Z @ 794 NONAME ; int QPushButton::qt_metacall(enum QMetaObject::Call, int, void * *)
	?isOverlapped@QWidgetPrivate@@QBE_NABVQRect@@@Z @ 795 NONAME ; bool QWidgetPrivate::isOverlapped(class QRect const &) const
	?trUtf8@QHeaderView@@SA?AVQString@@PBD0H@Z @ 796 NONAME ; class QString QHeaderView::trUtf8(char const *, char const *, int)
	??1QWidget@@UAE@XZ @ 797 NONAME ; QWidget::~QWidget(void)
	?valueF@QColor@@QBEMXZ @ 798 NONAME ; float QColor::valueF(void) const
	??0QGraphicsItem@@QAE@PAV0@PAVQGraphicsScene@@@Z @ 799 NONAME ; QGraphicsItem::QGraphicsItem(class QGraphicsItem *, class QGraphicsScene *)
	?writeFormats@QTextOdfWriter@@QBEXAAVQXmlStreamWriter@@V?$QSet@H@@@Z @ 800 NONAME ; void QTextOdfWriter::writeFormats(class QXmlStreamWriter &, class QSet<int>) const
	?setOption@QImageIOHandler@@UAEXW4ImageOption@1@ABVQVariant@@@Z @ 801 NONAME ; void QImageIOHandler::setOption(enum QImageIOHandler::ImageOption, class QVariant const &)
	?mouseMoveEvent@QLineEdit@@MAEXPAVQMouseEvent@@@Z @ 802 NONAME ; void QLineEdit::mouseMoveEvent(class QMouseEvent *)
	?drawArc@QPainter@@QAEXHHHHHH@Z @ 803 NONAME ; void QPainter::drawArc(int, int, int, int, int, int)
	?setInvertedControls@QAbstractSlider@@QAEX_N@Z @ 804 NONAME ; void QAbstractSlider::setInvertedControls(bool)
	?delegateForIndex@QAbstractItemViewPrivate@@QBEPAVQAbstractItemDelegate@@ABVQModelIndex@@@Z @ 805 NONAME ; class QAbstractItemDelegate * QAbstractItemViewPrivate::delegateForIndex(class QModelIndex const &) const
	?q_func@QLayoutPrivate@@ABEPBVQLayout@@XZ @ 806 NONAME ; class QLayout const * QLayoutPrivate::q_func(void) const
	?d_func@QSortFilterProxyModel@@AAEPAVQSortFilterProxyModelPrivate@@XZ @ 807 NONAME ; class QSortFilterProxyModelPrivate * QSortFilterProxyModel::d_func(void)
	?separate@QLineControl@@AAEXXZ @ 808 NONAME ; void QLineControl::separate(void)
	?dirtyOnScreenWidgetsRemoveAll@QWidgetBackingStore@@AAEXPAVQWidget@@@Z @ 809 NONAME ; void QWidgetBackingStore::dirtyOnScreenWidgetsRemoveAll(class QWidget *)
	?createDatabase@QFontDatabase@@CAXXZ @ 810 NONAME ; void QFontDatabase::createDatabase(void)
	?wheelEvent@QAbstractSlider@@MAEXPAVQWheelEvent@@@Z @ 811 NONAME ; void QAbstractSlider::wheelEvent(class QWheelEvent *)
	?tabsClosable@QTabBar@@QBE_NXZ @ 812 NONAME ; bool QTabBar::tabsClosable(void) const
	?loopCount@QImageReader@@QBEHXZ @ 813 NONAME ; int QImageReader::loopCount(void) const
	?staticMetaObject@QDrag@@2UQMetaObject@@B @ 814 NONAME ; struct QMetaObject const QDrag::staticMetaObject
	?parameterSplitLeft@QBezier@@QAEXMPAV1@@Z @ 815 NONAME ; void QBezier::parameterSplitLeft(float, class QBezier *)
	?simplify@QWingedEdge@@QAEXXZ @ 816 NONAME ; void QWingedEdge::simplify(void)
	?drawComplexControl@QStyleSheetStyle@@UBEXW4ComplexControl@QStyle@@PBVQStyleOptionComplex@@PAVQPainter@@PBVQWidget@@@Z @ 817 NONAME ; void QStyleSheetStyle::drawComplexControl(enum QStyle::ComplexControl, class QStyleOptionComplex const *, class QPainter *, class QWidget const *) const
	?remove@QDockAreaLayoutInfo@@QAEXABV?$QList@H@@@Z @ 818 NONAME ; void QDockAreaLayoutInfo::remove(class QList<int> const &)
	?qt_metacall@QComboBox@@UAEHW4Call@QMetaObject@@HPAPAX@Z @ 819 NONAME ; int QComboBox::qt_metacall(enum QMetaObject::Call, int, void * *)
	??EQTreeWidgetItemIterator@@QAEAAV0@XZ @ 820 NONAME ; class QTreeWidgetItemIterator & QTreeWidgetItemIterator::operator++(void)
	?move@QRubberBand@@QAEXHH@Z @ 821 NONAME ; void QRubberBand::move(int, int)
	??0QTabletEvent@@QAE@W4Type@QEvent@@ABVQPoint@@1ABVQPointF@@HHMHHMMHV?$QFlags@W4KeyboardModifier@Qt@@@@_J@Z @ 822 NONAME ; QTabletEvent::QTabletEvent(enum QEvent::Type, class QPoint const &, class QPoint const &, class QPointF const &, int, int, float, int, int, float, float, int, class QFlags<enum Qt::KeyboardModifier>, long long)
	?setTransform@QBrush@@QAEXABVQTransform@@@Z @ 823 NONAME ; void QBrush::setTransform(class QTransform const &)
	??Fiterator@QTextBlock@@QAE?AV01@H@Z @ 824 NONAME ; class QTextBlock::iterator QTextBlock::iterator::operator--(int)
	?setToolButtonStyle@QToolButton@@QAEXW4ToolButtonStyle@Qt@@@Z @ 825 NONAME ; void QToolButton::setToolButtonStyle(enum Qt::ToolButtonStyle)
	?setCurrentPage@QCalendarWidget@@QAEXHH@Z @ 826 NONAME ; void QCalendarWidget::setCurrentPage(int, int)
	?restoreDockWidget@QMainWindowLayout@@QAE_NPAVQDockWidget@@@Z @ 827 NONAME ; bool QMainWindowLayout::restoreDockWidget(class QDockWidget *)
	?mimeData@QDrag@@QBEPAVQMimeData@@XZ @ 828 NONAME ; class QMimeData * QDrag::mimeData(void) const
	?registerDropSite@QWidgetPrivate@@QAEX_N@Z @ 829 NONAME ; void QWidgetPrivate::registerDropSite(bool)
	?metaObject@QShortcut@@UBEPBUQMetaObject@@XZ @ 830 NONAME ; struct QMetaObject const * QShortcut::metaObject(void) const
	?format@QDropEvent@@UBEPBDH@Z @ 831 NONAME ; char const * QDropEvent::format(int) const
	??0QStyleOptionTabBarBase@@IAE@H@Z @ 832 NONAME ; QStyleOptionTabBarBase::QStyleOptionTabBarBase(int)
	?sizeHint@QGraphicsGridLayout@@UBE?AVQSizeF@@W4SizeHint@Qt@@ABV2@@Z @ 833 NONAME ; class QSizeF QGraphicsGridLayout::sizeHint(enum Qt::SizeHint, class QSizeF const &) const
	??_EQDragLeaveEvent@@UAE@I@Z @ 834 NONAME ; QDragLeaveEvent::~QDragLeaveEvent(unsigned int)
	?toLast@QDataWidgetMapper@@QAEXXZ @ 835 NONAME ; void QDataWidgetMapper::toLast(void)
	?setSize@QGraphicsLayoutItemPrivate@@QAEXW4SizeHint@Qt@@ABVQSizeF@@@Z @ 836 NONAME ; void QGraphicsLayoutItemPrivate::setSize(enum Qt::SizeHint, class QSizeF const &)
	??0QStyleOptionFocusRect@@QAE@XZ @ 837 NONAME ; QStyleOptionFocusRect::QStyleOptionFocusRect(void)
	?setActiveAction@QMenu@@QAEXPAVQAction@@@Z @ 838 NONAME ; void QMenu::setActiveAction(class QAction *)
	?d_func@QGraphicsView@@ABEPBVQGraphicsViewPrivate@@XZ @ 839 NONAME ; class QGraphicsViewPrivate const * QGraphicsView::d_func(void) const
	?rootPath@QFileDialogPrivate@@QBE?AVQString@@XZ @ 840 NONAME ; class QString QFileDialogPrivate::rootPath(void) const
	?drawContents@QTextControl@@QAEXPAVQPainter@@ABVQRectF@@PAVQWidget@@@Z @ 841 NONAME ; void QTextControl::drawContents(class QPainter *, class QRectF const &, class QWidget *)
	?cellPadding@QTextTableFormat@@QBEMXZ @ 842 NONAME ; float QTextTableFormat::cellPadding(void) const
	?trUtf8@QGraphicsScene@@SA?AVQString@@PBD0H@Z @ 843 NONAME ; class QString QGraphicsScene::trUtf8(char const *, char const *, int)
	?setTouchPointStates@QTouchEvent@@QAEXV?$QFlags@W4TouchPointState@Qt@@@@@Z @ 844 NONAME ; void QTouchEvent::setTouchPointStates(class QFlags<enum Qt::TouchPointState>)
	??_EQPaintEvent@@UAE@I@Z @ 845 NONAME ; QPaintEvent::~QPaintEvent(unsigned int)
	?screenPos@QGraphicsSceneHelpEvent@@QBE?AVQPoint@@XZ @ 846 NONAME ; class QPoint QGraphicsSceneHelpEvent::screenPos(void) const
	?subTitleFormat@QWizard@@QBE?AW4TextFormat@Qt@@XZ @ 847 NONAME ; enum Qt::TextFormat QWizard::subTitleFormat(void) const
	?clear@QLabel@@QAEXXZ @ 848 NONAME ; void QLabel::clear(void)
	?removeEntry@QSidebar@@AAEXXZ @ 849 NONAME ; void QSidebar::removeEntry(void)
	?flags@QStandardItemModel@@UBE?AV?$QFlags@W4ItemFlag@Qt@@@@ABVQModelIndex@@@Z @ 850 NONAME ; class QFlags<enum Qt::ItemFlag> QStandardItemModel::flags(class QModelIndex const &) const
	?inputMethodHints@QGraphicsItem@@QBE?AV?$QFlags@W4InputMethodHint@Qt@@@@XZ @ 851 NONAME ; class QFlags<enum Qt::InputMethodHint> QGraphicsItem::inputMethodHints(void) const
	?hue@QColor@@QBEHXZ @ 852 NONAME ; int QColor::hue(void) const
	?tr@QFrame@@SA?AVQString@@PBD0@Z @ 853 NONAME ; class QString QFrame::tr(char const *, char const *)
	?grabShortcut@QGraphicsWidget@@QAEHABVQKeySequence@@W4ShortcutContext@Qt@@@Z @ 854 NONAME ; int QGraphicsWidget::grabShortcut(class QKeySequence const &, enum Qt::ShortcutContext)
	??0QLabel@@QAE@ABVQString@@PAVQWidget@@V?$QFlags@W4WindowType@Qt@@@@@Z @ 855 NONAME ; QLabel::QLabel(class QString const &, class QWidget *, class QFlags<enum Qt::WindowType>)
	?yellowF@QColor@@QBEMXZ @ 856 NONAME ; float QColor::yellowF(void) const
	?setStickyFocus@QGraphicsScene@@QAEX_N@Z @ 857 NONAME ; void QGraphicsScene::setStickyFocus(bool)
	?isUndoAvailable@QLineControl@@QBE_NXZ @ 858 NONAME ; bool QLineControl::isUndoAvailable(void) const
	??1QTouchEvent@@UAE@XZ @ 859 NONAME ; QTouchEvent::~QTouchEvent(void)
	?itemPressed@QTreeWidget@@IAEXPAVQTreeWidgetItem@@H@Z @ 860 NONAME ; void QTreeWidget::itemPressed(class QTreeWidgetItem *, int)
	?textAlignment@QTableWidgetItem@@QBEHXZ @ 861 NONAME ; int QTableWidgetItem::textAlignment(void) const
	??0QItemDelegate@@QAE@PAVQObject@@@Z @ 862 NONAME ; QItemDelegate::QItemDelegate(class QObject *)
	?qt_metacast@QPinchGesture@@UAEPAXPBD@Z @ 863 NONAME ; void * QPinchGesture::qt_metacast(char const *)
	?accessibleDescription@QStandardItem@@QBE?AVQString@@XZ @ 864 NONAME ; class QString QStandardItem::accessibleDescription(void) const
	?toPlainText@QPlainTextEdit@@QBE?AVQString@@XZ @ 865 NONAME ; class QString QPlainTextEdit::toPlainText(void) const
	?pos@QGraphicsSceneDragDropEvent@@QBE?AVQPointF@@XZ @ 866 NONAME ; class QPointF QGraphicsSceneDragDropEvent::pos(void) const
	?qt_metacall@QScrollArea@@UAEHW4Call@QMetaObject@@HPAPAX@Z @ 867 NONAME ; int QScrollArea::qt_metacall(enum QMetaObject::Call, int, void * *)
	?setIndex@QUndoStack@@QAEXH@Z @ 868 NONAME ; void QUndoStack::setIndex(int)
	??0QConicalGradient@@QAE@XZ @ 869 NONAME ; QConicalGradient::QConicalGradient(void)
	??4QMatrix@@QAEAAV0@ABV0@@Z @ 870 NONAME ; class QMatrix & QMatrix::operator=(class QMatrix const &)
	?isCopyOf@QFont@@QBE_NABV1@@Z @ 871 NONAME ; bool QFont::isCopyOf(class QFont const &) const
	?regExp@QRegExpValidator@@QBEABVQRegExp@@XZ @ 872 NONAME ; class QRegExp const & QRegExpValidator::regExp(void) const
	?interpolateParallelEdges@QGraphicsAnchorLayoutPrivate@@QAEXPAUAnchorVertex@@PAUParallelAnchorData@@W4Orientation@1@@Z @ 873 NONAME ; void QGraphicsAnchorLayoutPrivate::interpolateParallelEdges(struct AnchorVertex *, struct ParallelAnchorData *, enum QGraphicsAnchorLayoutPrivate::Orientation)
	?setShape@QTabBar@@QAEXW4Shape@1@@Z @ 874 NONAME ; void QTabBar::setShape(enum QTabBar::Shape)
	?push@QUndoStack@@QAEXPAVQUndoCommand@@@Z @ 875 NONAME ; void QUndoStack::push(class QUndoCommand *)
	?staticMetaObject@QGraphicsWidget@@2UQMetaObject@@B @ 876 NONAME ; struct QMetaObject const QGraphicsWidget::staticMetaObject
	?quadToSquare@QTransform@@SA_NABVQPolygonF@@AAV1@@Z @ 877 NONAME ; bool QTransform::quadToSquare(class QPolygonF const &, class QTransform &)
	?_q_autoCompleteFileName@QFileDialogPrivate@@QAEXABVQString@@@Z @ 878 NONAME ; void QFileDialogPrivate::_q_autoCompleteFileName(class QString const &)
	?tr@QStringListModel@@SA?AVQString@@PBD0H@Z @ 879 NONAME ; class QString QStringListModel::tr(char const *, char const *, int)
	?tr@QDial@@SA?AVQString@@PBD0@Z @ 880 NONAME ; class QString QDial::tr(char const *, char const *)
	?excludeUserInputEvents@QEventDispatcherS60@@QAE_NXZ @ 881 NONAME ; bool QEventDispatcherS60::excludeUserInputEvents(void)
	?setWhatsThis@QListWidgetItem@@QAEXABVQString@@@Z @ 882 NONAME ; void QListWidgetItem::setWhatsThis(class QString const &)
	?setLayoutItemMargins@QWidgetPrivate@@QAEXW4SubElement@QStyle@@PBVQStyleOption@@@Z @ 883 NONAME ; void QWidgetPrivate::setLayoutItemMargins(enum QStyle::SubElement, class QStyleOption const *)
	?qt_metacast@QGraphicsSystemPlugin@@UAEPAXPBD@Z @ 884 NONAME ; void * QGraphicsSystemPlugin::qt_metacast(char const *)
	?getStaticMetaObject@QLCDNumber@@SAABUQMetaObject@@XZ @ 885 NONAME ; struct QMetaObject const & QLCDNumber::getStaticMetaObject(void)
	?trUtf8@QDateTimeEdit@@SA?AVQString@@PBD0H@Z @ 886 NONAME ; class QString QDateTimeEdit::trUtf8(char const *, char const *, int)
	?tabChangesFocus@QPlainTextEdit@@QBE_NXZ @ 887 NONAME ; bool QPlainTextEdit::tabChangesFocus(void) const
	?scrollToTop@QAbstractItemView@@QAEXXZ @ 888 NONAME ; void QAbstractItemView::scrollToTop(void)
	?detach@QPalette@@AAEXXZ @ 889 NONAME ; void QPalette::detach(void)
	?action@QActionEvent@@QBEPAVQAction@@XZ @ 890 NONAME ; class QAction * QActionEvent::action(void) const
	?event@QClipboard@@MAE_NPAVQEvent@@@Z @ 891 NONAME ; bool QClipboard::event(class QEvent *)
	?setSelectionBehavior@QAbstractItemView@@QAEXW4SelectionBehavior@1@@Z @ 892 NONAME ; void QAbstractItemView::setSelectionBehavior(enum QAbstractItemView::SelectionBehavior)
	?staticMetaObject@QMenu@@2UQMetaObject@@B @ 893 NONAME ; struct QMetaObject const QMenu::staticMetaObject
	?qt_metacall@QProgressDialog@@UAEHW4Call@QMetaObject@@HPAPAX@Z @ 894 NONAME ; int QProgressDialog::qt_metacall(enum QMetaObject::Call, int, void * *)
	?toVector4D@QQuaternion@@QBE?AVQVector4D@@XZ @ 895 NONAME ; class QVector4D QQuaternion::toVector4D(void) const
	?tr@QGraphicsAnchor@@SA?AVQString@@PBD0@Z @ 896 NONAME ; class QString QGraphicsAnchor::tr(char const *, char const *)
	?status@QZipReader@@QBE?AW4Status@1@XZ @ 897 NONAME ; enum QZipReader::Status QZipReader::status(void) const
	?insertTopLevelItems@QTreeWidget@@QAEXHABV?$QList@PAVQTreeWidgetItem@@@@@Z @ 898 NONAME ; void QTreeWidget::insertTopLevelItems(int, class QList<class QTreeWidgetItem *> const &)
	?updateGeometries@QTreeView@@MAEXXZ @ 899 NONAME ; void QTreeView::updateGeometries(void)
	?setOptions@QColorDialog@@QAEXV?$QFlags@W4ColorDialogOption@QColorDialog@@@@@Z @ 900 NONAME ; void QColorDialog::setOptions(class QFlags<enum QColorDialog::ColorDialogOption>)
	?qt_find_ellipse_coords@@YAXABVQRectF@@MMPAVQPointF@@1@Z @ 901 NONAME ; void qt_find_ellipse_coords(class QRectF const &, float, float, class QPointF *, class QPointF *)
	?anchor@QGraphicsAnchorLayout@@QAEPAVQGraphicsAnchor@@PAVQGraphicsLayoutItem@@W4AnchorPoint@Qt@@01@Z @ 902 NONAME ; class QGraphicsAnchor * QGraphicsAnchorLayout::anchor(class QGraphicsLayoutItem *, enum Qt::AnchorPoint, class QGraphicsLayoutItem *, enum Qt::AnchorPoint)
	?mapSelectionToSource@QAbstractProxyModel@@UBE?AVQItemSelection@@ABV2@@Z @ 903 NONAME ; class QItemSelection QAbstractProxyModel::mapSelectionToSource(class QItemSelection const &) const
	?doubleValueChanged@QInputDialog@@IAEXN@Z @ 904 NONAME ; void QInputDialog::doubleValueChanged(double)
	?start@QDrag@@QAE?AW4DropAction@Qt@@V?$QFlags@W4DropAction@Qt@@@@@Z @ 905 NONAME ; enum Qt::DropAction QDrag::start(class QFlags<enum Qt::DropAction>)
	?nativeWindowDeco@QDockWidgetLayout@@QBE_NXZ @ 906 NONAME ; bool QDockWidgetLayout::nativeWindowDeco(void) const
	?itemTextRect@QStyle@@UBE?AVQRect@@ABVQFontMetrics@@ABV2@H_NABVQString@@@Z @ 907 NONAME ; class QRect QStyle::itemTextRect(class QFontMetrics const &, class QRect const &, int, bool, class QString const &) const
	?_q_deleteSelected@QLineControl@@AAEXXZ @ 908 NONAME ; void QLineControl::_q_deleteSelected(void)
	?notchTarget@QDial@@QBEMXZ @ 909 NONAME ; float QDial::notchTarget(void) const
	?replace@QPixmapCache@@SA_NABVKey@1@ABVQPixmap@@@Z @ 910 NONAME ; bool QPixmapCache::replace(class QPixmapCache::Key const &, class QPixmap const &)
	?init@QLineControl@@AAEXABVQString@@@Z @ 911 NONAME ; void QLineControl::init(class QString const &)
	?qt_metacast@QTextControl@@UAEPAXPBD@Z @ 912 NONAME ; void * QTextControl::qt_metacast(char const *)
	?insertRow@QFormLayout@@QAEXHPAVQWidget@@0@Z @ 913 NONAME ; void QFormLayout::insertRow(int, class QWidget *, class QWidget *)
	?mergeCurrentCharFormat@QTextEdit@@QAEXABVQTextCharFormat@@@Z @ 914 NONAME ; void QTextEdit::mergeCurrentCharFormat(class QTextCharFormat const &)
	??_EQImageIOHandler@@UAE@I@Z @ 915 NONAME ; QImageIOHandler::~QImageIOHandler(unsigned int)
	?doubleMinimum@QInputDialog@@QBENXZ @ 916 NONAME ; double QInputDialog::doubleMinimum(void) const
	?qt_defaultDpiX@@YAHXZ @ 917 NONAME ; int qt_defaultDpiX(void)
	?event@QMessageBox@@MAE_NPAVQEvent@@@Z @ 918 NONAME ; bool QMessageBox::event(class QEvent *)
	?getStaticMetaObject@QListView@@SAABUQMetaObject@@XZ @ 919 NONAME ; struct QMetaObject const & QListView::getStaticMetaObject(void)
	?derivedAt@QBezier@@QBE?AVQPointF@@M@Z @ 920 NONAME ; class QPointF QBezier::derivedAt(float) const
	?size@QImage@@QBE?AVQSize@@XZ @ 921 NONAME ; class QSize QImage::size(void) const
	?staticMetaObject@QWizardPage@@2UQMetaObject@@B @ 922 NONAME ; struct QMetaObject const QWizardPage::staticMetaObject
	?dropEvent@QTreeWidget@@MAEXPAVQDropEvent@@@Z @ 923 NONAME ; void QTreeWidget::dropEvent(class QDropEvent *)
	?graphicsItem@QGraphicsEffectSource@@QBEPBVQGraphicsItem@@XZ @ 924 NONAME ; class QGraphicsItem const * QGraphicsEffectSource::graphicsItem(void) const
	?setSpecialValueText@QAbstractSpinBox@@QAEXABVQString@@@Z @ 925 NONAME ; void QAbstractSpinBox::setSpecialValueText(class QString const &)
	??4QPainterPath@@QAEAAV0@ABV0@@Z @ 926 NONAME ; class QPainterPath & QPainterPath::operator=(class QPainterPath const &)
	?trUtf8@QSound@@SA?AVQString@@PBD0H@Z @ 927 NONAME ; class QString QSound::trUtf8(char const *, char const *, int)
	?shear@QTransform@@QAEAAV1@MM@Z @ 928 NONAME ; class QTransform & QTransform::shear(float, float)
	?mapFromItem@QGraphicsItem@@QBE?AVQPolygonF@@PBV1@MMMM@Z @ 929 NONAME ; class QPolygonF QGraphicsItem::mapFromItem(class QGraphicsItem const *, float, float, float, float) const
	?sizeFromContent@QDockWidgetLayout@@QBE?AVQSize@@ABV2@_N@Z @ 930 NONAME ; class QSize QDockWidgetLayout::sizeFromContent(class QSize const &, bool) const
	?render@QGraphicsScene@@QAEXPAVQPainter@@ABVQRectF@@1W4AspectRatioMode@Qt@@@Z @ 931 NONAME ; void QGraphicsScene::render(class QPainter *, class QRectF const &, class QRectF const &, enum Qt::AspectRatioMode)
	??_EQGraphicsPixmapItem@@UAE@I@Z @ 932 NONAME ; QGraphicsPixmapItem::~QGraphicsPixmapItem(unsigned int)
	??1QLineControl@@UAE@XZ @ 933 NONAME ; QLineControl::~QLineControl(void)
	?metaObject@QActionGroup@@UBEPBUQMetaObject@@XZ @ 934 NONAME ; struct QMetaObject const * QActionGroup::metaObject(void) const
	?maxInstances@QWidgetPrivate@@2HA @ 935 NONAME ; int QWidgetPrivate::maxInstances
	??0QUndoCommand@@QAE@ABVQString@@PAV0@@Z @ 936 NONAME ; QUndoCommand::QUndoCommand(class QString const &, class QUndoCommand *)
	?tr@QSlider@@SA?AVQString@@PBD0H@Z @ 937 NONAME ; class QString QSlider::tr(char const *, char const *, int)
	??_EQAbstractButton@@UAE@I@Z @ 938 NONAME ; QAbstractButton::~QAbstractButton(unsigned int)
	?setShape@QCursor@@QAEXW4CursorShape@Qt@@@Z @ 939 NONAME ; void QCursor::setShape(enum Qt::CursorShape)
	?documentSize@QTextDocumentLayout@@UBE?AVQSizeF@@XZ @ 940 NONAME ; class QSizeF QTextDocumentLayout::documentSize(void) const
	?d_func@QGraphicsRectItem@@ABEPBVQGraphicsRectItemPrivate@@XZ @ 941 NONAME ; class QGraphicsRectItemPrivate const * QGraphicsRectItem::d_func(void) const
	?addItem@QComboBox@@QAEXABVQString@@ABVQVariant@@@Z @ 942 NONAME ; void QComboBox::addItem(class QString const &, class QVariant const &)
	?setUserState@QTextBlock@@QAEXH@Z @ 943 NONAME ; void QTextBlock::setUserState(int)
	?map@QMatrix@@QBE?AVQPolygon@@ABV2@@Z @ 944 NONAME ; class QPolygon QMatrix::map(class QPolygon const &) const
	?cacheKey@QPalette@@QBE_JXZ @ 945 NONAME ; long long QPalette::cacheKey(void) const
	?numBlocks@QTextDocumentPrivate@@QBEHXZ @ 946 NONAME ; int QTextDocumentPrivate::numBlocks(void) const
	?update@QLayout@@QAEXXZ @ 947 NONAME ; void QLayout::update(void)
	?getStaticMetaObject@QGraphicsSystemPlugin@@SAABUQMetaObject@@XZ @ 948 NONAME ; struct QMetaObject const & QGraphicsSystemPlugin::getStaticMetaObject(void)
	?tabChanged@QMainWindowLayout@@AAEXXZ @ 949 NONAME ; void QMainWindowLayout::tabChanged(void)
	?count@QKeyEvent@@QBEHXZ @ 950 NONAME ; int QKeyEvent::count(void) const
	?setSceneRect@TouchPoint@QTouchEvent@@QAEXABVQRectF@@@Z @ 951 NONAME ; void QTouchEvent::TouchPoint::setSceneRect(class QRectF const &)
	?mergeWith@QUndoCommand@@UAE_NPBV1@@Z @ 952 NONAME ; bool QUndoCommand::mergeWith(class QUndoCommand const *)
	?next@Parser@QCss@@QAE?AW4TokenType@2@XZ @ 953 NONAME ; enum QCss::TokenType QCss::Parser::next(void)
	?tr@QFontComboBox@@SA?AVQString@@PBD0@Z @ 954 NONAME ; class QString QFontComboBox::tr(char const *, char const *)
	?fromImage@QBitmap@@SA?AV1@ABVQImage@@V?$QFlags@W4ImageConversionFlag@Qt@@@@@Z @ 955 NONAME ; class QBitmap QBitmap::fromImage(class QImage const &, class QFlags<enum Qt::ImageConversionFlag>)
	?numScreens@QDesktopWidget@@QBEHXZ @ 956 NONAME ; int QDesktopWidget::numScreens(void) const
	?parsePseudoPage@Parser@QCss@@QAE_NPAVQString@@@Z @ 957 NONAME ; bool QCss::Parser::parsePseudoPage(class QString *)
	?pixmap@QDrag@@QBE?AVQPixmap@@XZ @ 958 NONAME ; class QPixmap QDrag::pixmap(void) const
	?drawFocus@QItemDelegate@@MBEXPAVQPainter@@ABVQStyleOptionViewItem@@ABVQRect@@@Z @ 959 NONAME ; void QItemDelegate::drawFocus(class QPainter *, class QStyleOptionViewItem const &, class QRect const &) const
	?d_func@QFontComboBox@@ABEPBVQFontComboBoxPrivate@@XZ @ 960 NONAME ; class QFontComboBoxPrivate const * QFontComboBox::d_func(void) const
	?d_func@QGesture@@ABEPBVQGesturePrivate@@XZ @ 961 NONAME ; class QGesturePrivate const * QGesture::d_func(void) const
	?textPosition@QTextInlineObject@@QBEHXZ @ 962 NONAME ; int QTextInlineObject::textPosition(void) const
	?m11@QTransform@@QBEMXZ @ 963 NONAME ; float QTransform::m11(void) const
	?sceneRect@QGraphicsScene@@QBE?AVQRectF@@XZ @ 964 NONAME ; class QRectF QGraphicsScene::sceneRect(void) const
	?setButtonDownScreenPos@QGraphicsSceneMouseEvent@@QAEXW4MouseButton@Qt@@ABVQPoint@@@Z @ 965 NONAME ; void QGraphicsSceneMouseEvent::setButtonDownScreenPos(enum Qt::MouseButton, class QPoint const &)
	?tabs@QTextOption@@QBE?AV?$QList@UTab@QTextOption@@@@XZ @ 966 NONAME ; class QList<struct QTextOption::Tab> QTextOption::tabs(void) const
	?mapSelectionFromSource@QSortFilterProxyModel@@UBE?AVQItemSelection@@ABV2@@Z @ 967 NONAME ; class QItemSelection QSortFilterProxyModel::mapSelectionFromSource(class QItemSelection const &) const
	?getStaticMetaObject@QInputContextPlugin@@SAABUQMetaObject@@XZ @ 968 NONAME ; struct QMetaObject const & QInputContextPlugin::getStaticMetaObject(void)
	?lessThan@QSortFilterProxyModel@@MBE_NABVQModelIndex@@0@Z @ 969 NONAME ; bool QSortFilterProxyModel::lessThan(class QModelIndex const &, class QModelIndex const &) const
	?setCurrentItem@QTableWidget@@QAEXPAVQTableWidgetItem@@@Z @ 970 NONAME ; void QTableWidget::setCurrentItem(class QTableWidgetItem *)
	?qt_metacast@QStandardItemModel@@UAEPAXPBD@Z @ 971 NONAME ; void * QStandardItemModel::qt_metacast(char const *)
	??0QKeyEventTransition@@QAE@PAVQState@@@Z @ 972 NONAME ; QKeyEventTransition::QKeyEventTransition(class QState *)
	??0QColumnViewGrip@@IAE@AAVQColumnViewGripPrivate@@PAVQWidget@@V?$QFlags@W4WindowType@Qt@@@@@Z @ 973 NONAME ; QColumnViewGrip::QColumnViewGrip(class QColumnViewGripPrivate &, class QWidget *, class QFlags<enum Qt::WindowType>)
	?setActive@QWidgetResizeHandler@@QAEX_N@Z @ 974 NONAME ; void QWidgetResizeHandler::setActive(bool)
	?harfbuzzFace@QFontEngine@@QBEPAUHB_FaceRec_@@XZ @ 975 NONAME ; struct HB_FaceRec_ * QFontEngine::harfbuzzFace(void) const
	??1QGraphicsOpacityEffect@@UAE@XZ @ 976 NONAME ; QGraphicsOpacityEffect::~QGraphicsOpacityEffect(void)
	?dragLeaveEvent@QGraphicsItem@@MAEXPAVQGraphicsSceneDragDropEvent@@@Z @ 977 NONAME ; void QGraphicsItem::dragLeaveEvent(class QGraphicsSceneDragDropEvent *)
	??H@YA?AVQTransform@@ABV0@M@Z @ 978 NONAME ; class QTransform operator+(class QTransform const &, float)
	?setAutoScrollMargin@QAbstractItemView@@QAEXH@Z @ 979 NONAME ; void QAbstractItemView::setAutoScrollMargin(int)
	?zoomOut@QTextEdit@@QAEXH@Z @ 980 NONAME ; void QTextEdit::zoomOut(int)
	?mouseReleaseEvent@QAbstractSpinBox@@MAEXPAVQMouseEvent@@@Z @ 981 NONAME ; void QAbstractSpinBox::mouseReleaseEvent(class QMouseEvent *)
	?stackingMode@QStackedLayout@@QBE?AW4StackingMode@1@XZ @ 982 NONAME ; enum QStackedLayout::StackingMode QStackedLayout::stackingMode(void) const
	?metaObject@QCommandLinkButton@@UBEPBUQMetaObject@@XZ @ 983 NONAME ; struct QMetaObject const * QCommandLinkButton::metaObject(void) const
	?staticMetaObject@QStringListModel@@2UQMetaObject@@B @ 984 NONAME ; struct QMetaObject const QStringListModel::staticMetaObject
	?maximumBlockCount@QPlainTextEdit@@QBEHXZ @ 985 NONAME ; int QPlainTextEdit::maximumBlockCount(void) const
	?drawDisplay@QItemDelegate@@MBEXPAVQPainter@@ABVQStyleOptionViewItem@@ABVQRect@@ABVQString@@@Z @ 986 NONAME ; void QItemDelegate::drawDisplay(class QPainter *, class QStyleOptionViewItem const &, class QRect const &, class QString const &) const
	?setModifiers@QGraphicsSceneWheelEvent@@QAEXV?$QFlags@W4KeyboardModifier@Qt@@@@@Z @ 987 NONAME ; void QGraphicsSceneWheelEvent::setModifiers(class QFlags<enum Qt::KeyboardModifier>)
	?save@QPicture@@QAE_NPAVQIODevice@@PBD@Z @ 988 NONAME ; bool QPicture::save(class QIODevice *, char const *)
	?angleAtPercent@QPainterPath@@QBEMM@Z @ 989 NONAME ; float QPainterPath::angleAtPercent(float) const
	?setWindowTitle_helper@QWidgetPrivate@@QAEXABVQString@@@Z @ 990 NONAME ; void QWidgetPrivate::setWindowTitle_helper(class QString const &)
	??0QShortcutEvent@@QAE@ABVQKeySequence@@H_N@Z @ 991 NONAME ; QShortcutEvent::QShortcutEvent(class QKeySequence const &, int, bool)
	?mapRectToItem@QGraphicsItem@@QBE?AVQRectF@@PBV1@MMMM@Z @ 992 NONAME ; class QRectF QGraphicsItem::mapRectToItem(class QGraphicsItem const *, float, float, float, float) const
	?basicSelectorMatches@StyleSelector@QCss@@AAE_NABUBasicSelector@2@TNodePtr@12@@Z @ 993 NONAME ; bool QCss::StyleSelector::basicSelectorMatches(struct QCss::BasicSelector const &, union QCss::StyleSelector::NodePtr)
	?trUtf8@QSoftKeyManager@@SA?AVQString@@PBD0H@Z @ 994 NONAME ; class QString QSoftKeyManager::trUtf8(char const *, char const *, int)
	?setSizeProtection@QWidgetResizeHandler@@QAEX_N@Z @ 995 NONAME ; void QWidgetResizeHandler::setSizeProtection(bool)
	?editTriggers@QAbstractItemView@@QBE?AV?$QFlags@W4EditTrigger@QAbstractItemView@@@@XZ @ 996 NONAME ; class QFlags<enum QAbstractItemView::EditTrigger> QAbstractItemView::editTriggers(void) const
	?setTabChangesFocus@QTextEdit@@QAEX_N@Z @ 997 NONAME ; void QTextEdit::setTabChangesFocus(bool)
	?buttonClicked@QMessageBox@@IAEXPAVQAbstractButton@@@Z @ 998 NONAME ; void QMessageBox::buttonClicked(class QAbstractButton *)
	?mapper@QWidgetPrivate@@2PAV?$QHash@PAVCCoeControl@@PAVQWidget@@@@A @ 999 NONAME ; class QHash<class CCoeControl *, class QWidget *> * QWidgetPrivate::mapper
	?clear@QSortFilterProxyModel@@QAEXXZ @ 1000 NONAME ; void QSortFilterProxyModel::clear(void)
	??D@YA?AVQTransform@@ABV0@M@Z @ 1001 NONAME ; class QTransform operator*(class QTransform const &, float)
	?setTristate@QStandardItem@@QAEX_N@Z @ 1002 NONAME ; void QStandardItem::setTristate(bool)
	?setFilterWildcard@QSortFilterProxyModel@@QAEXABVQString@@@Z @ 1003 NONAME ; void QSortFilterProxyModel::setFilterWildcard(class QString const &)
	?fromRgb@QColor@@SA?AV1@HHHH@Z @ 1004 NONAME ; class QColor QColor::fromRgb(int, int, int, int)
	?setText@QGraphicsSimpleTextItem@@QAEXABVQString@@@Z @ 1005 NONAME ; void QGraphicsSimpleTextItem::setText(class QString const &)
	?focusNextPrevChild@QTextBrowser@@MAE_N_N@Z @ 1006 NONAME ; bool QTextBrowser::focusNextPrevChild(bool)
	?cursorToX@QTextLine@@QBEMHW4Edge@1@@Z @ 1007 NONAME ; float QTextLine::cursorToX(int, enum QTextLine::Edge) const
	?setConfirmOverwrite@QFileDialog@@QAEX_N@Z @ 1008 NONAME ; void QFileDialog::setConfirmOverwrite(bool)
	?reset@QAbstractItemView@@UAEXXZ @ 1009 NONAME ; void QAbstractItemView::reset(void)
	?next@QTextBlock@@QBE?AV1@XZ @ 1010 NONAME ; class QTextBlock QTextBlock::next(void) const
	?mouseMoveEvent@QTextBrowser@@MAEXPAVQMouseEvent@@@Z @ 1011 NONAME ; void QTextBrowser::mouseMoveEvent(class QMouseEvent *)
	?doMove@QWidgetResizeHandler@@QAEXXZ @ 1012 NONAME ; void QWidgetResizeHandler::doMove(void)
	?invertedAppearance@QAbstractSlider@@QBE_NXZ @ 1013 NONAME ; bool QAbstractSlider::invertedAppearance(void) const
	?unplug@QDockAreaLayoutInfo@@QAEPAVQLayoutItem@@ABV?$QList@H@@@Z @ 1014 NONAME ; class QLayoutItem * QDockAreaLayoutInfo::unplug(class QList<int> const &)
	?updateIsTranslucent@QWidgetPrivate@@QAEXXZ @ 1015 NONAME ; void QWidgetPrivate::updateIsTranslucent(void)
	??0QTableWidgetItem@@QAE@H@Z @ 1016 NONAME ; QTableWidgetItem::QTableWidgetItem(int)
	?updates@QFileInfoGatherer@@IAEXABVQString@@ABV?$QList@U?$QPair@VQString@@VQFileInfo@@@@@@@Z @ 1017 NONAME ; void QFileInfoGatherer::updates(class QString const &, class QList<struct QPair<class QString, class QFileInfo> > const &)
	?d_func@QSoftKeyManager@@ABEPBVQSoftKeyManagerPrivate@@XZ @ 1018 NONAME ; class QSoftKeyManagerPrivate const * QSoftKeyManager::d_func(void) const
	?append@QTextEdit@@QAEXABVQString@@@Z @ 1019 NONAME ; void QTextEdit::append(class QString const &)
	?setHidden@QWidget@@QAEX_N@Z @ 1020 NONAME ; void QWidget::setHidden(bool)
	?actionEvent@QMenuBar@@MAEXPAVQActionEvent@@@Z @ 1021 NONAME ; void QMenuBar::actionEvent(class QActionEvent *)
	?addBezierEdge@QWingedEdge@@AAEXPBVQBezier@@ABVQPointF@@1MMH@Z @ 1022 NONAME ; void QWingedEdge::addBezierEdge(class QBezier const *, class QPointF const &, class QPointF const &, float, float, int)
	??_EQIconEngine@@UAE@I@Z @ 1023 NONAME ; QIconEngine::~QIconEngine(unsigned int)
	?tr@QDialog@@SA?AVQString@@PBD0H@Z @ 1024 NONAME ; class QString QDialog::tr(char const *, char const *, int)
	?sortItems@QTableWidget@@QAEXHW4SortOrder@Qt@@@Z @ 1025 NONAME ; void QTableWidget::sortItems(int, enum Qt::SortOrder)
	?setCurveThreshold@QPainterPathStroker@@QAEXM@Z @ 1026 NONAME ; void QPainterPathStroker::setCurveThreshold(float)
	??_EQSidebar@@UAE@I@Z @ 1027 NONAME ; QSidebar::~QSidebar(unsigned int)
	??_EQPicture@@UAE@I@Z @ 1028 NONAME ; QPicture::~QPicture(unsigned int)
	?setTextWidth@QTextControl@@QAEXM@Z @ 1029 NONAME ; void QTextControl::setTextWidth(float)
	?acceptProposedAction@QDropEvent@@QAEXXZ @ 1030 NONAME ; void QDropEvent::acceptProposedAction(void)
	?borderStyle@QTextFrameFormat@@QBE?AW4BorderStyle@1@XZ @ 1031 NONAME ; enum QTextFrameFormat::BorderStyle QTextFrameFormat::borderStyle(void) const
	?trUtf8@QErrorMessage@@SA?AVQString@@PBD0@Z @ 1032 NONAME ; class QString QErrorMessage::trUtf8(char const *, char const *)
	?showText@QToolTip@@SAXABVQPoint@@ABVQString@@PAVQWidget@@@Z @ 1033 NONAME ; void QToolTip::showText(class QPoint const &, class QString const &, class QWidget *)
	?d_func@QGraphicsSceneEvent@@IAEPAVQGraphicsSceneEventPrivate@@XZ @ 1034 NONAME ; class QGraphicsSceneEventPrivate * QGraphicsSceneEvent::d_func(void)
	?setInputMethodHints@QWidget@@QAEXV?$QFlags@W4InputMethodHint@Qt@@@@@Z @ 1035 NONAME ; void QWidget::setInputMethodHints(class QFlags<enum Qt::InputMethodHint>)
	?keyReleaseEvent@QGraphicsItem@@MAEXPAVQKeyEvent@@@Z @ 1036 NONAME ; void QGraphicsItem::keyReleaseEvent(class QKeyEvent *)
	?inputMethodEvent@QGraphicsView@@MAEXPAVQInputMethodEvent@@@Z @ 1037 NONAME ; void QGraphicsView::inputMethodEvent(class QInputMethodEvent *)
	??0QCursor@@QAE@XZ @ 1038 NONAME ; QCursor::QCursor(void)
	??0QHBoxLayout@@QAE@XZ @ 1039 NONAME ; QHBoxLayout::QHBoxLayout(void)
	??1QS60MainDocument@@UAE@XZ @ 1040 NONAME ; QS60MainDocument::~QS60MainDocument(void)
	?wrapMode@QTextOption@@QBE?AW4WrapMode@1@XZ @ 1041 NONAME ; enum QTextOption::WrapMode QTextOption::wrapMode(void) const
	?tr@QMovie@@SA?AVQString@@PBD0@Z @ 1042 NONAME ; class QString QMovie::tr(char const *, char const *)
	?qt_metacall@QButtonGroup@@UAEHW4Call@QMetaObject@@HPAPAX@Z @ 1043 NONAME ; int QButtonGroup::qt_metacall(enum QMetaObject::Call, int, void * *)
	?tr@QAction@@SA?AVQString@@PBD0@Z @ 1044 NONAME ; class QString QAction::tr(char const *, char const *)
	?staticMetaObject@QTableWidget@@2UQMetaObject@@B @ 1045 NONAME ; struct QMetaObject const QTableWidget::staticMetaObject
	?insertSeparator@QToolBar@@QAEPAVQAction@@PAV2@@Z @ 1046 NONAME ; class QAction * QToolBar::insertSeparator(class QAction *)
	?hasAutoScroll@QAbstractItemView@@QBE_NXZ @ 1047 NONAME ; bool QAbstractItemView::hasAutoScroll(void) const
	?setReadOnly@QAbstractSpinBox@@QAEX_N@Z @ 1048 NONAME ; void QAbstractSpinBox::setReadOnly(bool)
	?setLayout@QGraphicsWidget@@QAEXPAVQGraphicsLayout@@@Z @ 1049 NONAME ; void QGraphicsWidget::setLayout(class QGraphicsLayout *)
	?setFlags@QTextLayout@@QAEXH@Z @ 1050 NONAME ; void QTextLayout::setFlags(int)
	?d_func@QPaintEngine@@ABEPBVQPaintEnginePrivate@@XZ @ 1051 NONAME ; class QPaintEnginePrivate const * QPaintEngine::d_func(void) const
	??0QStandardItemModel@@IAE@AAVQStandardItemModelPrivate@@PAVQObject@@@Z @ 1052 NONAME ; QStandardItemModel::QStandardItemModel(class QStandardItemModelPrivate &, class QObject *)
	?loadResource@QTextControl@@UAE?AVQVariant@@HABVQUrl@@@Z @ 1053 NONAME ; class QVariant QTextControl::loadResource(int, class QUrl const &)
	??0QGraphicsEffectPrivate@@QAE@XZ @ 1054 NONAME ; QGraphicsEffectPrivate::QGraphicsEffectPrivate(void)
	?key@QShortcut@@QBE?AVQKeySequence@@XZ @ 1055 NONAME ; class QKeySequence QShortcut::key(void) const
	?trUtf8@QTextEdit@@SA?AVQString@@PBD0H@Z @ 1056 NONAME ; class QString QTextEdit::trUtf8(char const *, char const *, int)
	?setColumnCount@QTableWidget@@QAEXH@Z @ 1057 NONAME ; void QTableWidget::setColumnCount(int)
	??XQVector3D@@QAEAAV0@M@Z @ 1058 NONAME ; class QVector3D & QVector3D::operator*=(float)
	?trUtf8@QToolBox@@SA?AVQString@@PBD0H@Z @ 1059 NONAME ; class QString QToolBox::trUtf8(char const *, char const *, int)
	?rotate@QPainter@@QAEXM@Z @ 1060 NONAME ; void QPainter::rotate(float)
	?qt_metacast@QWidget@@UAEPAXPBD@Z @ 1061 NONAME ; void * QWidget::qt_metacast(char const *)
	?move@QTextDocumentPrivate@@QAEXHHHW4Operation@QTextUndoCommand@@@Z @ 1062 NONAME ; void QTextDocumentPrivate::move(int, int, int, enum QTextUndoCommand::Operation)
	?qt_metacall@QUndoView@@UAEHW4Call@QMetaObject@@HPAPAX@Z @ 1063 NONAME ; int QUndoView::qt_metacall(enum QMetaObject::Call, int, void * *)
	?overlinePos@QFontMetrics@@QBEHXZ @ 1064 NONAME ; int QFontMetrics::overlinePos(void) const
	?modifiers@QKeyEvent@@QBE?AV?$QFlags@W4KeyboardModifier@Qt@@@@XZ @ 1065 NONAME ; class QFlags<enum Qt::KeyboardModifier> QKeyEvent::modifiers(void) const
	?blurRadius@QPixmapDropShadowFilter@@QBEHXZ @ 1066 NONAME ; int QPixmapDropShadowFilter::blurRadius(void) const
	?trUtf8@QButtonGroup@@SA?AVQString@@PBD0@Z @ 1067 NONAME ; class QString QButtonGroup::trUtf8(char const *, char const *)
	?staticMetaObject@QWidget@@2UQMetaObject@@B @ 1068 NONAME ; struct QMetaObject const QWidget::staticMetaObject
	?mapToScene@QGraphicsView@@QBE?AVQPointF@@ABVQPoint@@@Z @ 1069 NONAME ; class QPointF QGraphicsView::mapToScene(class QPoint const &) const
	?d_func@QFileIconProvider@@AAEPAVQFileIconProviderPrivate@@XZ @ 1070 NONAME ; class QFileIconProviderPrivate * QFileIconProvider::d_func(void)
	?layoutDirection@QTextFormat@@QBE?AW4LayoutDirection@Qt@@XZ @ 1071 NONAME ; enum Qt::LayoutDirection QTextFormat::layoutDirection(void) const
	??0QStackedLayout@@QAE@PAVQLayout@@@Z @ 1072 NONAME ; QStackedLayout::QStackedLayout(class QLayout *)
	?viewOptions@QListView@@MBE?AVQStyleOptionViewItem@@XZ @ 1073 NONAME ; class QStyleOptionViewItem QListView::viewOptions(void) const
	?pos@TouchPoint@QTouchEvent@@QBE?AVQPointF@@XZ @ 1074 NONAME ; class QPointF QTouchEvent::TouchPoint::pos(void) const
	?trUtf8@QDateTimeEdit@@SA?AVQString@@PBD0@Z @ 1075 NONAME ; class QString QDateTimeEdit::trUtf8(char const *, char const *)
	?singleStep@QSpinBox@@QBEHXZ @ 1076 NONAME ; int QSpinBox::singleStep(void) const
	?resizeRowToContents@QTableView@@QAEXH@Z @ 1077 NONAME ; void QTableView::resizeRowToContents(int)
	?alignment@QGroupBox@@QBE?AV?$QFlags@W4AlignmentFlag@Qt@@@@XZ @ 1078 NONAME ; class QFlags<enum Qt::AlignmentFlag> QGroupBox::alignment(void) const
	?addEllipse@QPainterPath@@QAEXABVQRectF@@@Z @ 1079 NONAME ; void QPainterPath::addEllipse(class QRectF const &)
	?keyBindings@QKeySequencePrivate@@2QBUQKeyBinding@@B @ 1080 NONAME ; struct QKeyBinding const * const QKeySequencePrivate::keyBindings
	?hasStyleRule@QStyleSheetStyle@@ABE_NPBVQWidget@@H@Z @ 1081 NONAME ; bool QStyleSheetStyle::hasStyleRule(class QWidget const *, int) const
	?event@QMenuBar@@MAE_NPAVQEvent@@@Z @ 1082 NONAME ; bool QMenuBar::event(class QEvent *)
	?tabifyDockWidget@QMainWindowLayout@@QAEXPAVQDockWidget@@0@Z @ 1083 NONAME ; void QMainWindowLayout::tabifyDockWidget(class QDockWidget *, class QDockWidget *)
	?changeEvent@QColorDialog@@MAEXPAVQEvent@@@Z @ 1084 NONAME ; void QColorDialog::changeEvent(class QEvent *)
	?setMimeData@QClipboard@@QAEXPAVQMimeData@@W4Mode@1@@Z @ 1085 NONAME ; void QClipboard::setMimeData(class QMimeData *, enum QClipboard::Mode)
	?focusNextPrevChild@QTextEdit@@MAE_N_N@Z @ 1086 NONAME ; bool QTextEdit::focusNextPrevChild(bool)
	?setTristate@QCheckBox@@QAEX_N@Z @ 1087 NONAME ; void QCheckBox::setTristate(bool)
	?createList@QTextCursor@@QAEPAVQTextList@@ABVQTextListFormat@@@Z @ 1088 NONAME ; class QTextList * QTextCursor::createList(class QTextListFormat const &)
	?visibleChanged@QGraphicsObject@@IAEXXZ @ 1089 NONAME ; void QGraphicsObject::visibleChanged(void)
	?cut@QPlainTextEdit@@QAEXXZ @ 1090 NONAME ; void QPlainTextEdit::cut(void)
	??0QAbstractGraphicsShapeItem@@QAE@PAVQGraphicsItem@@PAVQGraphicsScene@@@Z @ 1091 NONAME ; QAbstractGraphicsShapeItem::QAbstractGraphicsShapeItem(class QGraphicsItem *, class QGraphicsScene *)
	?d_func@QGraphicsLineItem@@AAEPAVQGraphicsLineItemPrivate@@XZ @ 1092 NONAME ; class QGraphicsLineItemPrivate * QGraphicsLineItem::d_func(void)
	??0QPathClipper@@QAE@ABVQPainterPath@@0@Z @ 1093 NONAME ; QPathClipper::QPathClipper(class QPainterPath const &, class QPainterPath const &)
	?setWindowFilePath@QWidget@@QAEXABVQString@@@Z @ 1094 NONAME ; void QWidget::setWindowFilePath(class QString const &)
	?atBlockStart@QTextCursor@@QBE_NXZ @ 1095 NONAME ; bool QTextCursor::atBlockStart(void) const
	?drawInlineObject@QTextDocumentLayout@@MAEXPAVQPainter@@ABVQRectF@@VQTextInlineObject@@HABVQTextFormat@@@Z @ 1096 NONAME ; void QTextDocumentLayout::drawInlineObject(class QPainter *, class QRectF const &, class QTextInlineObject, int, class QTextFormat const &)
	?expandsOnDoubleClick@QTreeView@@QBE_NXZ @ 1097 NONAME ; bool QTreeView::expandsOnDoubleClick(void) const
	?timerEvent@QMdiArea@@MAEXPAVQTimerEvent@@@Z @ 1098 NONAME ; void QMdiArea::timerEvent(class QTimerEvent *)
	?getStaticMetaObject@QSplashScreen@@SAABUQMetaObject@@XZ @ 1099 NONAME ; struct QMetaObject const & QSplashScreen::getStaticMetaObject(void)
	?moveEvent@QRubberBand@@MAEXPAVQMoveEvent@@@Z @ 1100 NONAME ; void QRubberBand::moveEvent(class QMoveEvent *)
	?d_func@QGraphicsPolygonItem@@AAEPAVQGraphicsPolygonItemPrivate@@XZ @ 1101 NONAME ; class QGraphicsPolygonItemPrivate * QGraphicsPolygonItem::d_func(void)
	?mouse_double_click_time@QApplicationPrivate@@2HA @ 1102 NONAME ; int QApplicationPrivate::mouse_double_click_time
	?mousePressEvent@QScrollBar@@MAEXPAVQMouseEvent@@@Z @ 1103 NONAME ; void QScrollBar::mousePressEvent(class QMouseEvent *)
	?metaObject@QSwipeGesture@@UBEPBUQMetaObject@@XZ @ 1104 NONAME ; struct QMetaObject const * QSwipeGesture::metaObject(void) const
	?run@QFileInfoGatherer@@MAEXXZ @ 1105 NONAME ; void QFileInfoGatherer::run(void)
	?icon@QFileSystemModelPrivate@@QBE?AVQIcon@@ABVQModelIndex@@@Z @ 1106 NONAME ; class QIcon QFileSystemModelPrivate::icon(class QModelIndex const &) const
	?y@QHelpEvent@@QBEHXZ @ 1107 NONAME ; int QHelpEvent::y(void) const
	?modifier_buttons@QApplicationPrivate@@2V?$QFlags@W4KeyboardModifier@Qt@@@@A @ 1108 NONAME ; class QFlags<enum Qt::KeyboardModifier> QApplicationPrivate::modifier_buttons
	?removeInputEventsForWidget@QEventDispatcherS60@@AAEXPAVQObject@@@Z @ 1109 NONAME ; void QEventDispatcherS60::removeInputEventsForWidget(class QObject *)
	?hovered@QMenu@@IAEXPAVQAction@@@Z @ 1110 NONAME ; void QMenu::hovered(class QAction *)
	?find@QTextDocument@@QBE?AVQTextCursor@@ABVQString@@HV?$QFlags@W4FindFlag@QTextDocument@@@@@Z @ 1111 NONAME ; class QTextCursor QTextDocument::find(class QString const &, int, class QFlags<enum QTextDocument::FindFlag>) const
	?eventFilter@QScrollArea@@MAE_NPAVQObject@@PAVQEvent@@@Z @ 1112 NONAME ; bool QScrollArea::eventFilter(class QObject *, class QEvent *)
	?trUtf8@QDateEdit@@SA?AVQString@@PBD0H@Z @ 1113 NONAME ; class QString QDateEdit::trUtf8(char const *, char const *, int)
	?instance@QColormap@@SA?AV1@H@Z @ 1114 NONAME ; class QColormap QColormap::instance(int)
	?isActiveWindow@QWidget@@QBE_NXZ @ 1115 NONAME ; bool QWidget::isActiveWindow(void) const
	?focusWidget@QWidget@@QBEPAV1@XZ @ 1116 NONAME ; class QWidget * QWidget::focusWidget(void) const
	?scroll@QWindowSurface@@UAE_NABVQRegion@@HH@Z @ 1117 NONAME ; bool QWindowSurface::scroll(class QRegion const &, int, int)
	?d_func@QMenu@@ABEPBVQMenuPrivate@@XZ @ 1118 NONAME ; class QMenuPrivate const * QMenu::d_func(void) const
	?fieldGrowthPolicy@QFormLayout@@QBE?AW4FieldGrowthPolicy@1@XZ @ 1119 NONAME ; enum QFormLayout::FieldGrowthPolicy QFormLayout::fieldGrowthPolicy(void) const
	?setNotchTarget@QDial@@QAEXN@Z @ 1120 NONAME ; void QDial::setNotchTarget(double)
	?setMovable@QTabBar@@QAEX_N@Z @ 1121 NONAME ; void QTabBar::setMovable(bool)
	?buttonText@QMessageBox@@QBE?AVQString@@H@Z @ 1122 NONAME ; class QString QMessageBox::buttonText(int) const
	?dropEvent@QGraphicsProxyWidget@@MAEXPAVQGraphicsSceneDragDropEvent@@@Z @ 1123 NONAME ; void QGraphicsProxyWidget::dropEvent(class QGraphicsSceneDragDropEvent *)
	?setOption@QInputDialog@@QAEXW4InputDialogOption@1@_N@Z @ 1124 NONAME ; void QInputDialog::setOption(enum QInputDialog::InputDialogOption, bool)
	?sizeHint@QDateTimeEdit@@UBE?AVQSize@@XZ @ 1125 NONAME ; class QSize QDateTimeEdit::sizeHint(void) const
	?fetchMore@QProxyModel@@UAEXABVQModelIndex@@@Z @ 1126 NONAME ; void QProxyModel::fetchMore(class QModelIndex const &)
	?depth@QColormap@@QBEHXZ @ 1127 NONAME ; int QColormap::depth(void) const
	?removeRows@QStandardItemModel@@UAE_NHHABVQModelIndex@@@Z @ 1128 NONAME ; bool QStandardItemModel::removeRows(int, int, class QModelIndex const &)
	?cursorIsFocusIndicator@QTextControl@@QBE_NXZ @ 1129 NONAME ; bool QTextControl::cursorIsFocusIndicator(void) const
	?minimumSizeHint@QMdiArea@@UBE?AVQSize@@XZ @ 1130 NONAME ; class QSize QMdiArea::minimumSizeHint(void) const
	?revision@QTextBlock@@QBEHXZ @ 1131 NONAME ; int QTextBlock::revision(void) const
	?clearMaximumTime@QDateTimeEdit@@QAEXXZ @ 1132 NONAME ; void QDateTimeEdit::clearMaximumTime(void)
	?getDouble@QInputDialog@@SANPAVQWidget@@ABVQString@@1NNNHPA_NV?$QFlags@W4WindowType@Qt@@@@@Z @ 1133 NONAME ; double QInputDialog::getDouble(class QWidget *, class QString const &, class QString const &, double, double, double, int, bool *, class QFlags<enum Qt::WindowType>)
	?metaObject@QDockWidget@@UBEPBUQMetaObject@@XZ @ 1134 NONAME ; struct QMetaObject const * QDockWidget::metaObject(void) const
	?setName@QTextImageFormat@@QAEXABVQString@@@Z @ 1135 NONAME ; void QTextImageFormat::setName(class QString const &)
	?tr@QGraphicsColorizeEffect@@SA?AVQString@@PBD0@Z @ 1136 NONAME ; class QString QGraphicsColorizeEffect::tr(char const *, char const *)
	?setTimeRange@QDateTimeEdit@@QAEXABVQTime@@0@Z @ 1137 NONAME ; void QDateTimeEdit::setTimeRange(class QTime const &, class QTime const &)
	?usesHIToolBar@QMainWindowLayout@@QBE_NPAVQToolBar@@@Z @ 1138 NONAME ; bool QMainWindowLayout::usesHIToolBar(class QToolBar *) const
	?qt_metacast@QLayout@@UAEPAXPBD@Z @ 1139 NONAME ; void * QLayout::qt_metacast(char const *)
	?setCurrentCharFormat@QPlainTextEdit@@QAEXABVQTextCharFormat@@@Z @ 1140 NONAME ; void QPlainTextEdit::setCurrentCharFormat(class QTextCharFormat const &)
	?mouseReleaseEvent@QToolButton@@MAEXPAVQMouseEvent@@@Z @ 1141 NONAME ; void QToolButton::mouseReleaseEvent(class QMouseEvent *)
	?tr@QComboBox@@SA?AVQString@@PBD0H@Z @ 1142 NONAME ; class QString QComboBox::tr(char const *, char const *, int)
	?setModel@QCompleter@@QAEXPAVQAbstractItemModel@@@Z @ 1143 NONAME ; void QCompleter::setModel(class QAbstractItemModel *)
	?layoutSpacing@QStyleSheetStyle@@QBEHW4ControlType@QSizePolicy@@0W4Orientation@Qt@@PBVQStyleOption@@PBVQWidget@@@Z @ 1144 NONAME ; int QStyleSheetStyle::layoutSpacing(enum QSizePolicy::ControlType, enum QSizePolicy::ControlType, enum Qt::Orientation, class QStyleOption const *, class QWidget const *) const
	?accept@QDragMoveEvent@@QAEXABVQRect@@@Z @ 1145 NONAME ; void QDragMoveEvent::accept(class QRect const &)
	?totalOffset@QPanGesture@@QBE?AVQPointF@@XZ @ 1146 NONAME ; class QPointF QPanGesture::totalOffset(void) const
	?trUtf8@QUndoStack@@SA?AVQString@@PBD0H@Z @ 1147 NONAME ; class QString QUndoStack::trUtf8(char const *, char const *, int)
	?d_func@QStyledItemDelegate@@ABEPBVQStyledItemDelegatePrivate@@XZ @ 1148 NONAME ; class QStyledItemDelegatePrivate const * QStyledItemDelegate::d_func(void) const
	?staticMetaObject@QIconEnginePluginV2@@2UQMetaObject@@B @ 1149 NONAME ; struct QMetaObject const QIconEnginePluginV2::staticMetaObject
	?geometriesChanged@QHeaderView@@IAEXXZ @ 1150 NONAME ; void QHeaderView::geometriesChanged(void)
	?rawMode@QFont@@QBE_NXZ @ 1151 NONAME ; bool QFont::rawMode(void) const
	??4QTreeWidgetItemIterator@@QAEAAV0@ABV0@@Z @ 1152 NONAME ; class QTreeWidgetItemIterator & QTreeWidgetItemIterator::operator=(class QTreeWidgetItemIterator const &)
	?whatChanged@QPinchGesture@@QBE?AV?$QFlags@W4WhatChange@QPinchGesture@@@@XZ @ 1153 NONAME ; class QFlags<enum QPinchGesture::WhatChange> QPinchGesture::whatChanged(void) const
	?actionTriggered@QAbstractSlider@@IAEXH@Z @ 1154 NONAME ; void QAbstractSlider::actionTriggered(int)
	?setDirectory@QFileDialog@@QAEXABVQString@@@Z @ 1155 NONAME ; void QFileDialog::setDirectory(class QString const &)
	??YQVector2D@@QAEAAV0@ABV0@@Z @ 1156 NONAME ; class QVector2D & QVector2D::operator+=(class QVector2D const &)
	?updateSceneRect@QGraphicsSceneBspTreeIndex@@MAEXABVQRectF@@@Z @ 1157 NONAME ; void QGraphicsSceneBspTreeIndex::updateSceneRect(class QRectF const &)
	?boundingRect@QGraphicsTextItem@@UBE?AVQRectF@@XZ @ 1158 NONAME ; class QRectF QGraphicsTextItem::boundingRect(void) const
	?complete@QLineControl@@QAEXH@Z @ 1159 NONAME ; void QLineControl::complete(int)
	??0QAbstractSlider@@IAE@AAVQAbstractSliderPrivate@@PAVQWidget@@@Z @ 1160 NONAME ; QAbstractSlider::QAbstractSlider(class QAbstractSliderPrivate &, class QWidget *)
	?region@QPaintEvent@@QBEABVQRegion@@XZ @ 1161 NONAME ; class QRegion const & QPaintEvent::region(void) const
	?item@QTableWidget@@QBEPAVQTableWidgetItem@@HH@Z @ 1162 NONAME ; class QTableWidgetItem * QTableWidget::item(int, int) const
	??0QRegion@@QAE@ABV0@@Z @ 1163 NONAME ; QRegion::QRegion(class QRegion const &)
	?doLayout@QItemDelegate@@IBEXABVQStyleOptionViewItem@@PAVQRect@@11_N@Z @ 1164 NONAME ; void QItemDelegate::doLayout(class QStyleOptionViewItem const &, class QRect *, class QRect *, class QRect *, bool) const
	?brightnessChanged@QGraphicsBloomEffect@@IAEXH@Z @ 1165 NONAME ; void QGraphicsBloomEffect::brightnessChanged(int)
	?type@QGraphicsProxyWidget@@UBEHXZ @ 1166 NONAME ; int QGraphicsProxyWidget::type(void) const
	?numBytes@QImage@@QBEHXZ @ 1167 NONAME ; int QImage::numBytes(void) const
	?clear@QMenuBar@@QAEXXZ @ 1168 NONAME ; void QMenuBar::clear(void)
	?staticMetaObject@QAbstractTextDocumentLayout@@2UQMetaObject@@B @ 1169 NONAME ; struct QMetaObject const QAbstractTextDocumentLayout::staticMetaObject
	?staticMetaObject@QDateEdit@@2UQMetaObject@@B @ 1170 NONAME ; struct QMetaObject const QDateEdit::staticMetaObject
	?trUtf8@QBoxLayout@@SA?AVQString@@PBD0@Z @ 1171 NONAME ; class QString QBoxLayout::trUtf8(char const *, char const *)
	?sync@QWidgetBackingStore@@QAEXXZ @ 1172 NONAME ; void QWidgetBackingStore::sync(void)
	?sessionId@QApplication@@QBE?AVQString@@XZ @ 1173 NONAME ; class QString QApplication::sessionId(void) const
	?paintSection@QHeaderView@@MBEXPAVQPainter@@ABVQRect@@H@Z @ 1174 NONAME ; void QHeaderView::paintSection(class QPainter *, class QRect const &, int) const
	?deletePreviousChar@QTextCursor@@QAEXXZ @ 1175 NONAME ; void QTextCursor::deletePreviousChar(void)
	?statusBar@QMainWindow@@QBEPAVQStatusBar@@XZ @ 1176 NONAME ; class QStatusBar * QMainWindow::statusBar(void) const
	?d_func@QSortFilterProxyModel@@ABEPBVQSortFilterProxyModelPrivate@@XZ @ 1177 NONAME ; class QSortFilterProxyModelPrivate const * QSortFilterProxyModel::d_func(void) const
	?inputContext@QWidget@@QAEPAVQInputContext@@XZ @ 1178 NONAME ; class QInputContext * QWidget::inputContext(void)
	?getStaticMetaObject@QSizeGrip@@SAABUQMetaObject@@XZ @ 1179 NONAME ; struct QMetaObject const & QSizeGrip::getStaticMetaObject(void)
	?elementAt@QPainterPath@@QBEABVElement@1@H@Z @ 1180 NONAME ; class QPainterPath::Element const & QPainterPath::elementAt(int) const
	??UQPainterPath@@QBE?AV0@ABV0@@Z @ 1181 NONAME ; class QPainterPath QPainterPath::operator|(class QPainterPath const &) const
	?tr@QMessageBox@@SA?AVQString@@PBD0H@Z @ 1182 NONAME ; class QString QMessageBox::tr(char const *, char const *, int)
	?processEvent@QLineControl@@QAE_NPAVQEvent@@@Z @ 1183 NONAME ; bool QLineControl::processEvent(class QEvent *)
	?d_func@QMdiSubWindow@@AAEPAVQMdiSubWindowPrivate@@XZ @ 1184 NONAME ; class QMdiSubWindowPrivate * QMdiSubWindow::d_func(void)
	?unsetCursor@QWidget@@QAEXXZ @ 1185 NONAME ; void QWidget::unsetCursor(void)
	?shape@QGraphicsSimpleTextItem@@UBE?AVQPainterPath@@XZ @ 1186 NONAME ; class QPainterPath QGraphicsSimpleTextItem::shape(void) const
	?indexBelow@QTreeView@@QBE?AVQModelIndex@@ABV2@@Z @ 1187 NONAME ; class QModelIndex QTreeView::indexBelow(class QModelIndex const &) const
	?qt_metacast@QMdiSubWindow@@UAEPAXPBD@Z @ 1188 NONAME ; void * QMdiSubWindow::qt_metacast(char const *)
	?appendRow@QStandardItemModel@@QAEXPAVQStandardItem@@@Z @ 1189 NONAME ; void QStandardItemModel::appendRow(class QStandardItem *)
	?warning@QMessageBox@@SAHPAVQWidget@@ABVQString@@1111HH@Z @ 1190 NONAME ; int QMessageBox::warning(class QWidget *, class QString const &, class QString const &, class QString const &, class QString const &, class QString const &, int, int)
	?setMaximumDateTime@QDateTimeEdit@@QAEXABVQDateTime@@@Z @ 1191 NONAME ; void QDateTimeEdit::setMaximumDateTime(class QDateTime const &)
	?topMargin@QTextBlockFormat@@QBEMXZ @ 1192 NONAME ; float QTextBlockFormat::topMargin(void) const
	?setY@QVector4D@@QAEXM@Z @ 1193 NONAME ; void QVector4D::setY(float)
	?tr@QPaintBufferSignalProxy@@SA?AVQString@@PBD0H@Z @ 1194 NONAME ; class QString QPaintBufferSignalProxy::tr(char const *, char const *, int)
	?invalidate@QSortFilterProxyModel@@QAEXXZ @ 1195 NONAME ; void QSortFilterProxyModel::invalidate(void)
	?createDefaultPixmapData@QGraphicsSystem@@SAPAVQPixmapData@@W4PixelType@2@@Z @ 1196 NONAME ; class QPixmapData * QGraphicsSystem::createDefaultPixmapData(enum QPixmapData::PixelType)
	?setItemData@QStandardItemModel@@UAE_NABVQModelIndex@@ABV?$QMap@HVQVariant@@@@@Z @ 1197 NONAME ; bool QStandardItemModel::setItemData(class QModelIndex const &, class QMap<int, class QVariant> const &)
	?shape@QGraphicsRectItem@@UBE?AVQPainterPath@@XZ @ 1198 NONAME ; class QPainterPath QGraphicsRectItem::shape(void) const
	??0QImageWriter@@QAE@PAVQIODevice@@ABVQByteArray@@@Z @ 1199 NONAME ; QImageWriter::QImageWriter(class QIODevice *, class QByteArray const &)
	??0QLayoutItem@@QAE@V?$QFlags@W4AlignmentFlag@Qt@@@@@Z @ 1200 NONAME ; QLayoutItem::QLayoutItem(class QFlags<enum Qt::AlignmentFlag>)
	?setMask@QWidget@@QAEXABVQRegion@@@Z @ 1201 NONAME ; void QWidget::setMask(class QRegion const &)
	?model@QAbstractItemView@@QBEPAVQAbstractItemModel@@XZ @ 1202 NONAME ; class QAbstractItemModel * QAbstractItemView::model(void) const
	?append@QTextControl@@QAEXABVQString@@@Z @ 1203 NONAME ; void QTextControl::append(class QString const &)
	?isAnimated@QTreeView@@QBE_NXZ @ 1204 NONAME ; bool QTreeView::isAnimated(void) const
	?setDocument@QTextEdit@@QAEXPAVQTextDocument@@@Z @ 1205 NONAME ; void QTextEdit::setDocument(class QTextDocument *)
	?isRowHidden@QTreeView@@QBE_NHABVQModelIndex@@@Z @ 1206 NONAME ; bool QTreeView::isRowHidden(int, class QModelIndex const &) const
	?resize@QTextTable@@QAEXHH@Z @ 1207 NONAME ; void QTextTable::resize(int, int)
	?pixelMetric@QProxyStyle@@UBEHW4PixelMetric@QStyle@@PBVQStyleOption@@PBVQWidget@@@Z @ 1208 NONAME ; int QProxyStyle::pixelMetric(enum QStyle::PixelMetric, class QStyleOption const *, class QWidget const *) const
	?metaObject@QGraphicsScene@@UBEPBUQMetaObject@@XZ @ 1209 NONAME ; struct QMetaObject const * QGraphicsScene::metaObject(void) const
	?tr@QWizardPage@@SA?AVQString@@PBD0H@Z @ 1210 NONAME ; class QString QWizardPage::tr(char const *, char const *, int)
	?buttons@QWheelEvent@@QBE?AV?$QFlags@W4MouseButton@Qt@@@@XZ @ 1211 NONAME ; class QFlags<enum Qt::MouseButton> QWheelEvent::buttons(void) const
	??1QItemSelection@@QAE@XZ @ 1212 NONAME ; QItemSelection::~QItemSelection(void)
	?resolveLocale@QWidgetPrivate@@QAEXXZ @ 1213 NONAME ; void QWidgetPrivate::resolveLocale(void)
	?fetchExtendedInformation@QFileInfoGatherer@@QAEXABVQString@@ABVQStringList@@@Z @ 1214 NONAME ; void QFileInfoGatherer::fetchExtendedInformation(class QString const &, class QStringList const &)
	??YQRegion@@QAEAAV0@ABV0@@Z @ 1215 NONAME ; class QRegion & QRegion::operator+=(class QRegion const &)
	?translate@QPolygonF@@QAEXMM@Z @ 1216 NONAME ; void QPolygonF::translate(float, float)
	?trUtf8@QStackedWidget@@SA?AVQString@@PBD0@Z @ 1217 NONAME ; class QString QStackedWidget::trUtf8(char const *, char const *)
	?mousePressEvent@QWidget@@MAEXPAVQMouseEvent@@@Z @ 1218 NONAME ; void QWidget::mousePressEvent(class QMouseEvent *)
	?showEvent@QAbstractSpinBox@@MAEXPAVQShowEvent@@@Z @ 1219 NONAME ; void QAbstractSpinBox::showEvent(class QShowEvent *)
	?getContentsMargins@QGraphicsLayout@@UBEXPAM000@Z @ 1220 NONAME ; void QGraphicsLayout::getContentsMargins(float *, float *, float *, float *) const
	??1QStyleOptionToolBox@@QAE@XZ @ 1221 NONAME ; QStyleOptionToolBox::~QStyleOptionToolBox(void)
	?insertPlainText@QPlainTextEdit@@QAEXABVQString@@@Z @ 1222 NONAME ; void QPlainTextEdit::insertPlainText(class QString const &)
	?update@QAbstractTextDocumentLayout@@IAEXABVQRectF@@@Z @ 1223 NONAME ; void QAbstractTextDocumentLayout::update(class QRectF const &)
	?minimumSizeHint@QTabWidget@@UBE?AVQSize@@XZ @ 1224 NONAME ; class QSize QTabWidget::minimumSizeHint(void) const
	?resizeInlineObject@QTextDocumentLayout@@MAEXVQTextInlineObject@@HABVQTextFormat@@@Z @ 1225 NONAME ; void QTextDocumentLayout::resizeInlineObject(class QTextInlineObject, int, class QTextFormat const &)
	?getStaticMetaObject@QDoubleSpinBox@@SAABUQMetaObject@@XZ @ 1226 NONAME ; struct QMetaObject const & QDoubleSpinBox::getStaticMetaObject(void)
	?updateInputMethodSensitivity@QGraphicsViewPrivate@@QAEXXZ @ 1227 NONAME ; void QGraphicsViewPrivate::updateInputMethodSensitivity(void)
	?minimumSize@QDockAreaLayoutInfo@@QBE?AVQSize@@XZ @ 1228 NONAME ; class QSize QDockAreaLayoutInfo::minimumSize(void) const
	?mouseReleaseEvent@QGraphicsProxyWidget@@MAEXPAVQGraphicsSceneMouseEvent@@@Z @ 1229 NONAME ; void QGraphicsProxyWidget::mouseReleaseEvent(class QGraphicsSceneMouseEvent *)
	?addItems@QComboBox@@QAEXABVQStringList@@@Z @ 1230 NONAME ; void QComboBox::addItems(class QStringList const &)
	?toPointF@QVector2D@@QBE?AVQPointF@@XZ @ 1231 NONAME ; class QPointF QVector2D::toPointF(void) const
	?trUtf8@QRegExpValidator@@SA?AVQString@@PBD0@Z @ 1232 NONAME ; class QString QRegExpValidator::trUtf8(char const *, char const *)
	?topLevelRect@QWidgetBackingStore@@ABE?AVQRect@@XZ @ 1233 NONAME ; class QRect QWidgetBackingStore::topLevelRect(void) const
	?metaObject@QButtonGroup@@UBEPBUQMetaObject@@XZ @ 1234 NONAME ; struct QMetaObject const * QButtonGroup::metaObject(void) const
	?format@QPictureIO@@QBEPBDXZ @ 1235 NONAME ; char const * QPictureIO::format(void) const
	?globalStrut@QApplication@@SA?AVQSize@@XZ @ 1236 NONAME ; class QSize QApplication::globalStrut(void)
	?lastCursorPosition@QTextFrame@@QBE?AVQTextCursor@@XZ @ 1237 NONAME ; class QTextCursor QTextFrame::lastCursorPosition(void) const
	?qt_metacast@QStylePlugin@@UAEPAXPBD@Z @ 1238 NONAME ; void * QStylePlugin::qt_metacast(char const *)
	??0QEglProperties@@QAE@XZ @ 1239 NONAME ; QEglProperties::QEglProperties(void)
	?removeDirtyWidget@QWidgetBackingStore@@AAEXPAVQWidget@@@Z @ 1240 NONAME ; void QWidgetBackingStore::removeDirtyWidget(class QWidget *)
	?palette@QApplication@@SA?AVQPalette@@PBD@Z @ 1241 NONAME ; class QPalette QApplication::palette(char const *)
	??0QPainterPath@@QAE@XZ @ 1242 NONAME ; QPainterPath::QPainterPath(void)
	?tr@QSyntaxHighlighter@@SA?AVQString@@PBD0@Z @ 1243 NONAME ; class QString QSyntaxHighlighter::tr(char const *, char const *)
	?showEvent@QComboBox@@MAEXPAVQShowEvent@@@Z @ 1244 NONAME ; void QComboBox::showEvent(class QShowEvent *)
	?insertAction@QGraphicsWidget@@QAEXPAVQAction@@0@Z @ 1245 NONAME ; void QGraphicsWidget::insertAction(class QAction *, class QAction *)
	?createSurface@QEglContext@@QAEHPAVQPaintDevice@@PBVQEglProperties@@@Z @ 1246 NONAME ; int QEglContext::createSurface(class QPaintDevice *, class QEglProperties const *)
	?extensions@QEglContext@@SA?AVQString@@XZ @ 1247 NONAME ; class QString QEglContext::extensions(void)
	?copy@QPlainTextEdit@@QAEXXZ @ 1248 NONAME ; void QPlainTextEdit::copy(void)
	?addAction@QWidget@@QAEXPAVQAction@@@Z @ 1249 NONAME ; void QWidget::addAction(class QAction *)
	??9Key@QPixmapCache@@QBE_NABV01@@Z @ 1250 NONAME ; bool QPixmapCache::Key::operator!=(class QPixmapCache::Key const &) const
	?trUtf8@QWidgetAction@@SA?AVQString@@PBD0H@Z @ 1251 NONAME ; class QString QWidgetAction::trUtf8(char const *, char const *, int)
	?setShortcutEnabled@QGraphicsWidget@@QAEXH_N@Z @ 1252 NONAME ; void QGraphicsWidget::setShortcutEnabled(int, bool)
	??_EQS60MainAppUi@@UAE@I@Z @ 1253 NONAME ; QS60MainAppUi::~QS60MainAppUi(unsigned int)
	?addImageHook@QImagePixmapCleanupHooks@@QAEXP6AX_J@Z@Z @ 1254 NONAME ; void QImagePixmapCleanupHooks::addImageHook(void (*)(long long))
	??_EQGraphicsEffectPrivate@@UAE@I@Z @ 1255 NONAME ; QGraphicsEffectPrivate::~QGraphicsEffectPrivate(unsigned int)
	?writingSystems@QFontDatabase@@QBE?AV?$QList@W4WritingSystem@QFontDatabase@@@@ABVQString@@@Z @ 1256 NONAME ; class QList<enum QFontDatabase::WritingSystem> QFontDatabase::writingSystems(class QString const &) const
	?isSolid@QPen@@QBE_NXZ @ 1257 NONAME ; bool QPen::isSolid(void) const
	?event@QSlider@@UAE_NPAVQEvent@@@Z @ 1258 NONAME ; bool QSlider::event(class QEvent *)
	?linkVisited@QPalette@@QBEABVQBrush@@XZ @ 1259 NONAME ; class QBrush const & QPalette::linkVisited(void) const
	??9QFontMetricsF@@QAE_NABV0@@Z @ 1260 NONAME ; bool QFontMetricsF::operator!=(class QFontMetricsF const &)
	??0QPolygonF@@QAE@XZ @ 1261 NONAME ; QPolygonF::QPolygonF(void)
	?parseNextOperator@Parser@QCss@@QAE_NPAUValue@2@@Z @ 1262 NONAME ; bool QCss::Parser::parseNextOperator(struct QCss::Value *)
	?activeModalWidget@QApplication@@SAPAVQWidget@@XZ @ 1263 NONAME ; class QWidget * QApplication::activeModalWidget(void)
	?isOverride@QWindowStateChangeEvent@@QBE_NXZ @ 1264 NONAME ; bool QWindowStateChangeEvent::isOverride(void) const
	??_EQIconEnginePlugin@@UAE@I@Z @ 1265 NONAME ; QIconEnginePlugin::~QIconEnginePlugin(unsigned int)
	?hideSection@QHeaderView@@QAEXH@Z @ 1266 NONAME ; void QHeaderView::hideSection(int)
	?d_func@QUndoGroup@@AAEPAVQUndoGroupPrivate@@XZ @ 1267 NONAME ; class QUndoGroupPrivate * QUndoGroup::d_func(void)
	?metaObject@QStylePlugin@@UBEPBUQMetaObject@@XZ @ 1268 NONAME ; struct QMetaObject const * QStylePlugin::metaObject(void) const
	?finish@QSplashScreen@@QAEXPAVQWidget@@@Z @ 1269 NONAME ; void QSplashScreen::finish(class QWidget *)
	??_EQWhatsThisClickedEvent@@UAE@I@Z @ 1270 NONAME ; QWhatsThisClickedEvent::~QWhatsThisClickedEvent(unsigned int)
	?setColumnCount@QTreeWidget@@QAEXH@Z @ 1271 NONAME ; void QTreeWidget::setColumnCount(int)
	?expandItem@QTreeWidget@@QAEXPBVQTreeWidgetItem@@@Z @ 1272 NONAME ; void QTreeWidget::expandItem(class QTreeWidgetItem const *)
	?checkPersistentEditorFocus@QAbstractItemViewPrivate@@QAEXXZ @ 1273 NONAME ; void QAbstractItemViewPrivate::checkPersistentEditorFocus(void)
	?setProxyModel@QProxyModel@@IBE?AVQModelIndex@@ABV2@@Z @ 1274 NONAME ; class QModelIndex QProxyModel::setProxyModel(class QModelIndex const &) const
	?qt_metacast@QSidebar@@UAEPAXPBD@Z @ 1275 NONAME ; void * QSidebar::qt_metacast(char const *)
	?trUtf8@QToolBarExtension@@SA?AVQString@@PBD0H@Z @ 1276 NONAME ; class QString QToolBarExtension::trUtf8(char const *, char const *, int)
	?fileRenamed@QFileSystemModel@@IAEXABVQString@@00@Z @ 1277 NONAME ; void QFileSystemModel::fileRenamed(class QString const &, class QString const &, class QString const &)
	?drawPolyline@QPainter@@QAEXABVQPolygonF@@@Z @ 1278 NONAME ; void QPainter::drawPolyline(class QPolygonF const &)
	?qt_metacall@QSpinBox@@UAEHW4Call@QMetaObject@@HPAPAX@Z @ 1279 NONAME ; int QSpinBox::qt_metacall(enum QMetaObject::Call, int, void * *)
	?drawImage@QPainter@@QAEXABVQRectF@@ABVQImage@@0V?$QFlags@W4ImageConversionFlag@Qt@@@@@Z @ 1280 NONAME ; void QPainter::drawImage(class QRectF const &, class QImage const &, class QRectF const &, class QFlags<enum Qt::ImageConversionFlag>)
	?eventFilter@QWidgetResizeHandler@@MAE_NPAVQObject@@PAVQEvent@@@Z @ 1281 NONAME ; bool QWidgetResizeHandler::eventFilter(class QObject *, class QEvent *)
	?setUndoRedoEnabled@QPlainTextEdit@@QAEX_N@Z @ 1282 NONAME ; void QPlainTextEdit::setUndoRedoEnabled(bool)
	?qt_metacast@QValidator@@UAEPAXPBD@Z @ 1283 NONAME ; void * QValidator::qt_metacast(char const *)
	?mapFromScene@QGraphicsItem@@QBE?AVQPainterPath@@ABV2@@Z @ 1284 NONAME ; class QPainterPath QGraphicsItem::mapFromScene(class QPainterPath const &) const
	?setExtension@QGraphicsPolygonItem@@MAEXW4Extension@QGraphicsItem@@ABVQVariant@@@Z @ 1285 NONAME ; void QGraphicsPolygonItem::setExtension(enum QGraphicsItem::Extension, class QVariant const &)
	?event@QFrame@@MAE_NPAVQEvent@@@Z @ 1286 NONAME ; bool QFrame::event(class QEvent *)
	?addChildLayoutItem@QGraphicsLayout@@IAEXPAVQGraphicsLayoutItem@@@Z @ 1287 NONAME ; void QGraphicsLayout::addChildLayoutItem(class QGraphicsLayoutItem *)
	?worldMatrix@QPainter@@QBEABVQMatrix@@XZ @ 1288 NONAME ; class QMatrix const & QPainter::worldMatrix(void) const
	?revert@QDataWidgetMapper@@QAEXXZ @ 1289 NONAME ; void QDataWidgetMapper::revert(void)
	?qt_metacall@QScrollBar@@UAEHW4Call@QMetaObject@@HPAPAX@Z @ 1290 NONAME ; int QScrollBar::qt_metacall(enum QMetaObject::Call, int, void * *)
	?mapFromItem@QGraphicsItem@@QBE?AVQPolygonF@@PBV1@ABV2@@Z @ 1291 NONAME ; class QPolygonF QGraphicsItem::mapFromItem(class QGraphicsItem const *, class QPolygonF const &) const
	?setCaseSensitivity@QCompleter@@QAEXW4CaseSensitivity@Qt@@@Z @ 1292 NONAME ; void QCompleter::setCaseSensitivity(enum Qt::CaseSensitivity)
	??0QIcon@@QAE@XZ @ 1293 NONAME ; QIcon::QIcon(void)
	?qt_metacall@QMovie@@UAEHW4Call@QMetaObject@@HPAPAX@Z @ 1294 NONAME ; int QMovie::qt_metacall(enum QMetaObject::Call, int, void * *)
	?instance@QPaintBufferSignalProxy@@SAPAV1@XZ @ 1295 NONAME ; class QPaintBufferSignalProxy * QPaintBufferSignalProxy::instance(void)
	??0QVector4D@@QAE@XZ @ 1296 NONAME ; QVector4D::QVector4D(void)
	?headerData@QStandardItemModel@@UBE?AVQVariant@@HW4Orientation@Qt@@H@Z @ 1297 NONAME ; class QVariant QStandardItemModel::headerData(int, enum Qt::Orientation, int) const
	?backgroundColor@QTableWidgetItem@@QBE?AVQColor@@XZ @ 1298 NONAME ; class QColor QTableWidgetItem::backgroundColor(void) const
	?allowsInteraction@QSessionManager@@QAE_NXZ @ 1299 NONAME ; bool QSessionManager::allowsInteraction(void)
	??8iterator@QTextBlock@@QBE_NABV01@@Z @ 1300 NONAME ; bool QTextBlock::iterator::operator==(class QTextBlock::iterator const &) const
	?trUtf8@QTextBrowser@@SA?AVQString@@PBD0H@Z @ 1301 NONAME ; class QString QTextBrowser::trUtf8(char const *, char const *, int)
	?getStaticMetaObject@QDial@@SAABUQMetaObject@@XZ @ 1302 NONAME ; struct QMetaObject const & QDial::getStaticMetaObject(void)
	??4QStyleOptionToolBar@@QAEAAV0@ABV0@@Z @ 1303 NONAME ; class QStyleOptionToolBar & QStyleOptionToolBar::operator=(class QStyleOptionToolBar const &)
	?setWidth@QPainterPathStroker@@QAEXM@Z @ 1304 NONAME ; void QPainterPathStroker::setWidth(float)
	?trUtf8@QValidator@@SA?AVQString@@PBD0@Z @ 1305 NONAME ; class QString QValidator::trUtf8(char const *, char const *)
	?backgroundRole@QWidget@@QBE?AW4ColorRole@QPalette@@XZ @ 1306 NONAME ; enum QPalette::ColorRole QWidget::backgroundRole(void) const
	?trUtf8@QSplashScreen@@SA?AVQString@@PBD0H@Z @ 1307 NONAME ; class QString QSplashScreen::trUtf8(char const *, char const *, int)
	?palette@QApplication@@SA?AVQPalette@@XZ @ 1308 NONAME ; class QPalette QApplication::palette(void)
	?tr@QMainWindow@@SA?AVQString@@PBD0H@Z @ 1309 NONAME ; class QString QMainWindow::tr(char const *, char const *, int)
	?qt_tab_all_widgets@@3_NA @ 1310 NONAME ; bool qt_tab_all_widgets
	?trUtf8@QGraphicsObject@@SA?AVQString@@PBD0@Z @ 1311 NONAME ; class QString QGraphicsObject::trUtf8(char const *, char const *)
	?supportedDropActions@QTableWidget@@MBE?AV?$QFlags@W4DropAction@Qt@@@@XZ @ 1312 NONAME ; class QFlags<enum Qt::DropAction> QTableWidget::supportedDropActions(void) const
	?setWordSpacing@QFont@@QAEXM@Z @ 1313 NONAME ; void QFont::setWordSpacing(float)
	?setWindowTitle@QWidget@@QAEXABVQString@@@Z @ 1314 NONAME ; void QWidget::setWindowTitle(class QString const &)
	?generatedIconPixmap@QStyleSheetStyle@@UBE?AVQPixmap@@W4Mode@QIcon@@ABV2@PBVQStyleOption@@@Z @ 1315 NONAME ; class QPixmap QStyleSheetStyle::generatedIconPixmap(enum QIcon::Mode, class QPixmap const &, class QStyleOption const *) const
	?question@QMessageBox@@SAHPAVQWidget@@ABVQString@@1W4StandardButton@1@2@Z @ 1316 NONAME ; int QMessageBox::question(class QWidget *, class QString const &, class QString const &, enum QMessageBox::StandardButton, enum QMessageBox::StandardButton)
	?qt_metacast@QGuiPlatformPlugin@@UAEPAXPBD@Z @ 1317 NONAME ; void * QGuiPlatformPlugin::qt_metacast(char const *)
	?childFrames@QTextFrame@@QBE?AV?$QList@PAVQTextFrame@@@@XZ @ 1318 NONAME ; class QList<class QTextFrame *> QTextFrame::childFrames(void) const
	?setPen@QPainter@@QAEXW4PenStyle@Qt@@@Z @ 1319 NONAME ; void QPainter::setPen(enum Qt::PenStyle)
	?getStaticMetaObject@QToolBar@@SAABUQMetaObject@@XZ @ 1320 NONAME ; struct QMetaObject const & QToolBar::getStaticMetaObject(void)
	?setRightMargin@QTextFrameFormat@@QAEXM@Z @ 1321 NONAME ; void QTextFrameFormat::setRightMargin(float)
	?style@QFontInfo@@QBE?AW4Style@QFont@@XZ @ 1322 NONAME ; enum QFont::Style QFontInfo::style(void) const
	?dragLeaveEvent@QPlainTextEdit@@MAEXPAVQDragLeaveEvent@@@Z @ 1323 NONAME ; void QPlainTextEdit::dragLeaveEvent(class QDragLeaveEvent *)
	?invalidate@QGraphicsLinearLayout@@UAEXXZ @ 1324 NONAME ; void QGraphicsLinearLayout::invalidate(void)
	?canInsertFromMimeData@QPlainTextEdit@@MBE_NPBVQMimeData@@@Z @ 1325 NONAME ; bool QPlainTextEdit::canInsertFromMimeData(class QMimeData const *) const
	??0QHBoxLayout@@QAE@PAVQWidget@@@Z @ 1326 NONAME ; QHBoxLayout::QHBoxLayout(class QWidget *)
	?setWindow@QPainter@@QAEXABVQRect@@@Z @ 1327 NONAME ; void QPainter::setWindow(class QRect const &)
	??1QImageReader@@QAE@XZ @ 1328 NONAME ; QImageReader::~QImageReader(void)
	?darker@QColor@@QBE?AV1@H@Z @ 1329 NONAME ; class QColor QColor::darker(int) const
	?currentChanged@QTabWidget@@IAEXH@Z @ 1330 NONAME ; void QTabWidget::currentChanged(int)
	??0QStandardItem@@QAE@HH@Z @ 1331 NONAME ; QStandardItem::QStandardItem(int, int)
	?staticMetaObject@QFormLayout@@2UQMetaObject@@B @ 1332 NONAME ; struct QMetaObject const QFormLayout::staticMetaObject
	?dynamicDocumentSize@QTextDocumentLayout@@QBE?AVQSizeF@@XZ @ 1333 NONAME ; class QSizeF QTextDocumentLayout::dynamicDocumentSize(void) const
	??0QAbstractProxyModel@@IAE@AAVQAbstractProxyModelPrivate@@PAVQObject@@@Z @ 1334 NONAME ; QAbstractProxyModel::QAbstractProxyModel(class QAbstractProxyModelPrivate &, class QObject *)
	?trUtf8@QPinchGesture@@SA?AVQString@@PBD0@Z @ 1335 NONAME ; class QString QPinchGesture::trUtf8(char const *, char const *)
	?oldPos@QHoverEvent@@QBEABVQPoint@@XZ @ 1336 NONAME ; class QPoint const & QHoverEvent::oldPos(void) const
	?blockWidth@QPlainTextDocumentLayout@@AAEMABVQTextBlock@@@Z @ 1337 NONAME ; float QPlainTextDocumentLayout::blockWidth(class QTextBlock const &)
	?separatorMove@QDockAreaLayout@@QAEHABV?$QList@H@@ABVQPoint@@1@Z @ 1338 NONAME ; int QDockAreaLayout::separatorMove(class QList<int> const &, class QPoint const &, class QPoint const &)
	?polygonFlags@QVectorPath@@SAIW4PolygonDrawMode@QPaintEngine@@@Z @ 1339 NONAME ; unsigned int QVectorPath::polygonFlags(enum QPaintEngine::PolygonDrawMode)
	?focusInEvent@QComboBox@@MAEXPAVQFocusEvent@@@Z @ 1340 NONAME ; void QComboBox::focusInEvent(class QFocusEvent *)
	?mergeBlockFormat@QTextCursor@@QAEXABVQTextBlockFormat@@@Z @ 1341 NONAME ; void QTextCursor::mergeBlockFormat(class QTextBlockFormat const &)
	?mapFromScene@QGraphicsItem@@QBE?AVQPointF@@ABV2@@Z @ 1342 NONAME ; class QPointF QGraphicsItem::mapFromScene(class QPointF const &) const
	?submit@QDataWidgetMapper@@QAE_NXZ @ 1343 NONAME ; bool QDataWidgetMapper::submit(void)
	?setFileName@QPictureIO@@QAEXABVQString@@@Z @ 1344 NONAME ; void QPictureIO::setFileName(class QString const &)
	?createWidgets@QFileDialogPrivate@@QAEXXZ @ 1345 NONAME ; void QFileDialogPrivate::createWidgets(void)
	?setSizeHint@QStandardItem@@QAEXABVQSize@@@Z @ 1346 NONAME ; void QStandardItem::setSizeHint(class QSize const &)
	?dragLeaveEvent@QGraphicsTextItem@@MAEXPAVQGraphicsSceneDragDropEvent@@@Z @ 1347 NONAME ; void QGraphicsTextItem::dragLeaveEvent(class QGraphicsSceneDragDropEvent *)
	?currentSectionIndex@QDateTimeEdit@@QBEHXZ @ 1348 NONAME ; int QDateTimeEdit::currentSectionIndex(void) const
	?fillRect@QPainter@@QAEXHHHHABVQColor@@@Z @ 1349 NONAME ; void QPainter::fillRect(int, int, int, int, class QColor const &)
	?setLineWrapColumnOrWidth@QTextEdit@@QAEXH@Z @ 1350 NONAME ; void QTextEdit::setLineWrapColumnOrWidth(int)
	??0QTreeWidgetItem@@QAE@H@Z @ 1351 NONAME ; QTreeWidgetItem::QTreeWidgetItem(int)
	?lastWindowClosed@QApplication@@IAEXXZ @ 1352 NONAME ; void QApplication::lastWindowClosed(void)
	?textChanged@QPlainTextEdit@@IAEXXZ @ 1353 NONAME ; void QPlainTextEdit::textChanged(void)
	??6@YAAAVQDataStream@@AAV0@ABVQIcon@@@Z @ 1354 NONAME ; class QDataStream & operator<<(class QDataStream &, class QIcon const &)
	?itemAt@QDockAreaLayout@@QBEPAVQLayoutItem@@PAHH@Z @ 1355 NONAME ; class QLayoutItem * QDockAreaLayout::itemAt(int *, int) const
	?raise@QMainWindowLayout@@QAEXPAVQDockWidget@@@Z @ 1356 NONAME ; void QMainWindowLayout::raise(class QDockWidget *)
	?orientation@QSplitterHandle@@QBE?AW4Orientation@Qt@@XZ @ 1357 NONAME ; enum Qt::Orientation QSplitterHandle::orientation(void) const
	??1QItemDelegate@@UAE@XZ @ 1358 NONAME ; QItemDelegate::~QItemDelegate(void)
	?rightColumn@QTableWidgetSelectionRange@@QBEHXZ @ 1359 NONAME ; int QTableWidgetSelectionRange::rightColumn(void) const
	??8QGradient@@QBE_NABV0@@Z @ 1360 NONAME ; bool QGradient::operator==(class QGradient const &) const
	?staticMetaObject@QRadioButton@@2UQMetaObject@@B @ 1361 NONAME ; struct QMetaObject const QRadioButton::staticMetaObject
	?resizeEvent@QMessageBox@@MAEXPAVQResizeEvent@@@Z @ 1362 NONAME ; void QMessageBox::resizeEvent(class QResizeEvent *)
	?setUnderline@QFont@@QAEX_N@Z @ 1363 NONAME ; void QFont::setUnderline(bool)
	?tr@QSidebar@@SA?AVQString@@PBD0@Z @ 1364 NONAME ; class QString QSidebar::tr(char const *, char const *)
	?setText@QTextEdit@@QAEXABVQString@@@Z @ 1365 NONAME ; void QTextEdit::setText(class QString const &)
	?setSelection@QTableView@@MAEXABVQRect@@V?$QFlags@W4SelectionFlag@QItemSelectionModel@@@@@Z @ 1366 NONAME ; void QTableView::setSelection(class QRect const &, class QFlags<enum QItemSelectionModel::SelectionFlag>)
	?windowActivated@QWorkspace@@IAEXPAVQWidget@@@Z @ 1367 NONAME ; void QWorkspace::windowActivated(class QWidget *)
	?alignment@QAbstractSpinBox@@QBE?AV?$QFlags@W4AlignmentFlag@Qt@@@@XZ @ 1368 NONAME ; class QFlags<enum Qt::AlignmentFlag> QAbstractSpinBox::alignment(void) const
	?endNativePainting@QPainter@@QAEXXZ @ 1369 NONAME ; void QPainter::endNativePainting(void)
	?qt_metacall@QGraphicsTextItem@@UAEHW4Call@QMetaObject@@HPAPAX@Z @ 1370 NONAME ; int QGraphicsTextItem::qt_metacall(enum QMetaObject::Call, int, void * *)
	?pathFromIndex@QCompleter@@UBE?AVQString@@ABVQModelIndex@@@Z @ 1371 NONAME ; class QString QCompleter::pathFromIndex(class QModelIndex const &) const
	?d_func@QLayout@@ABEPBVQLayoutPrivate@@XZ @ 1372 NONAME ; class QLayoutPrivate const * QLayout::d_func(void) const
	?setFontPointSize@QTextEdit@@QAEXM@Z @ 1373 NONAME ; void QTextEdit::setFontPointSize(float)
	?rect@QWidget@@QBE?AVQRect@@XZ @ 1374 NONAME ; class QRect QWidget::rect(void) const
	?qt_metacast@QGridLayout@@UAEPAXPBD@Z @ 1375 NONAME ; void * QGridLayout::qt_metacast(char const *)
	?qt_metacall@QGraphicsScale@@UAEHW4Call@QMetaObject@@HPAPAX@Z @ 1376 NONAME ; int QGraphicsScale::qt_metacall(enum QMetaObject::Call, int, void * *)
	??4QTreeWidgetItem@@QAEAAV0@ABV0@@Z @ 1377 NONAME ; class QTreeWidgetItem & QTreeWidgetItem::operator=(class QTreeWidgetItem const &)
	?originValue@Declaration@QCss@@QBE?AW4Origin@2@XZ @ 1378 NONAME ; enum QCss::Origin QCss::Declaration::originValue(void) const
	?isAreaAllowed@QDockWidget@@QBE_NW4DockWidgetArea@Qt@@@Z @ 1379 NONAME ; bool QDockWidget::isAreaAllowed(enum Qt::DockWidgetArea) const
	?clear@QClipboard@@QAEXW4Mode@1@@Z @ 1380 NONAME ; void QClipboard::clear(enum QClipboard::Mode)
	?focusInEvent@QLineEdit@@MAEXPAVQFocusEvent@@@Z @ 1381 NONAME ; void QLineEdit::focusInEvent(class QFocusEvent *)
	?ownedByLayout@QGraphicsLayoutItem@@QBE_NXZ @ 1382 NONAME ; bool QGraphicsLayoutItem::ownedByLayout(void) const
	?defaultAction@QToolButton@@QBEPAVQAction@@XZ @ 1383 NONAME ; class QAction * QToolButton::defaultAction(void) const
	?getStaticMetaObject@QGroupBox@@SAABUQMetaObject@@XZ @ 1384 NONAME ; struct QMetaObject const & QGroupBox::getStaticMetaObject(void)
	?textStart@QTextLine@@QBEHXZ @ 1385 NONAME ; int QTextLine::textStart(void) const
	?linkHovered@QGraphicsTextItem@@IAEXABVQString@@@Z @ 1386 NONAME ; void QGraphicsTextItem::linkHovered(class QString const &)
	?arrangeIcons@QWorkspace@@QAEXXZ @ 1387 NONAME ; void QWorkspace::arrangeIcons(void)
	?removeChild@QTreeWidgetItem@@QAEXPAV1@@Z @ 1388 NONAME ; void QTreeWidgetItem::removeChild(class QTreeWidgetItem *)
	?closePersistentEditor@QListWidget@@QAEXPAVQListWidgetItem@@@Z @ 1389 NONAME ; void QListWidget::closePersistentEditor(class QListWidgetItem *)
	?x@QTabletEvent@@QBEHXZ @ 1390 NONAME ; int QTabletEvent::x(void) const
	?qt_metacall@QTableView@@UAEHW4Call@QMetaObject@@HPAPAX@Z @ 1391 NONAME ; int QTableView::qt_metacall(enum QMetaObject::Call, int, void * *)
	??_EQGraphicsTextItem@@UAE@I@Z @ 1392 NONAME ; QGraphicsTextItem::~QGraphicsTextItem(unsigned int)
	?setFont@QLineControl@@QAEXABVQFont@@@Z @ 1393 NONAME ; void QLineControl::setFont(class QFont const &)
	?showEvent@QToolBox@@MAEXPAVQShowEvent@@@Z @ 1394 NONAME ; void QToolBox::showEvent(class QShowEvent *)
	?setPaused@QMovie@@QAEX_N@Z @ 1395 NONAME ; void QMovie::setPaused(bool)
	?getStaticMetaObject@QTextDocument@@SAABUQMetaObject@@XZ @ 1396 NONAME ; struct QMetaObject const & QTextDocument::getStaticMetaObject(void)
	?close@QWidget@@QAE_NXZ @ 1397 NONAME ; bool QWidget::close(void)
	??4QStyleOption@@QAEAAV0@ABV0@@Z @ 1398 NONAME ; class QStyleOption & QStyleOption::operator=(class QStyleOption const &)
	?echoMode@QLineEdit@@QBE?AW4EchoMode@1@XZ @ 1399 NONAME ; enum QLineEdit::EchoMode QLineEdit::echoMode(void) const
	?isSeparator@QMainWindow@@QBE_NABVQPoint@@@Z @ 1400 NONAME ; bool QMainWindow::isSeparator(class QPoint const &) const
	?show@QGraphicsItem@@QAEXXZ @ 1401 NONAME ; void QGraphicsItem::show(void)
	?type@QGraphicsWidget@@UBEHXZ @ 1402 NONAME ; int QGraphicsWidget::type(void) const
	??MQStandardItem@@UBE_NABV0@@Z @ 1403 NONAME ; bool QStandardItem::operator<(class QStandardItem const &) const
	?toPlainText@QTextControl@@QBE?AVQString@@XZ @ 1404 NONAME ; class QString QTextControl::toPlainText(void) const
	?glyphCount@QFontEngine@@UBEHXZ @ 1405 NONAME ; int QFontEngine::glyphCount(void) const
	?pos@QGraphicsSceneHoverEvent@@QBE?AVQPointF@@XZ @ 1406 NONAME ; class QPointF QGraphicsSceneHoverEvent::pos(void) const
	?app_pal@QApplicationPrivate@@2PAVQPalette@@A @ 1407 NONAME ; class QPalette * QApplicationPrivate::app_pal
	?dropMimeData@QUrlModel@@UAE_NPBVQMimeData@@W4DropAction@Qt@@HHABVQModelIndex@@@Z @ 1408 NONAME ; bool QUrlModel::dropMimeData(class QMimeData const *, enum Qt::DropAction, int, int, class QModelIndex const &)
	?addWidget@QToolBar@@QAEPAVQAction@@PAVQWidget@@@Z @ 1409 NONAME ; class QAction * QToolBar::addWidget(class QWidget *)
	?columnResized@QTreeView@@IAEXHHH@Z @ 1410 NONAME ; void QTreeView::columnResized(int, int, int)
	?tabContentRect@QDockAreaLayoutInfo@@QBE?AVQRect@@XZ @ 1411 NONAME ; class QRect QDockAreaLayoutInfo::tabContentRect(void) const
	?next@QWizard@@QAEXXZ @ 1412 NONAME ; void QWizard::next(void)
	?highlightedText@QPalette@@QBEABVQBrush@@XZ @ 1413 NONAME ; class QBrush const & QPalette::highlightedText(void) const
	?grabMouseEvent@QGraphicsWidget@@MAEXPAVQEvent@@@Z @ 1414 NONAME ; void QGraphicsWidget::grabMouseEvent(class QEvent *)
	?drawEllipse@QPaintEngineEx@@UAEXABVQRectF@@@Z @ 1415 NONAME ; void QPaintEngineEx::drawEllipse(class QRectF const &)
	?mouseReleaseEvent@QGraphicsScene@@MAEXPAVQGraphicsSceneMouseEvent@@@Z @ 1416 NONAME ; void QGraphicsScene::mouseReleaseEvent(class QGraphicsSceneMouseEvent *)
	??9QRegion@@QBE_NABV0@@Z @ 1417 NONAME ; bool QRegion::operator!=(class QRegion const &) const
	?availableGlyphs@QTextEngine@@QBE?AUQGlyphLayout@@PBUQScriptItem@@@Z @ 1418 NONAME ; struct QGlyphLayout QTextEngine::availableGlyphs(struct QScriptItem const *) const
	?foreground@QTextFormat@@QBE?AVQBrush@@XZ @ 1419 NONAME ; class QBrush QTextFormat::foreground(void) const
	?clone@QTableWidgetItem@@UBEPAV1@XZ @ 1420 NONAME ; class QTableWidgetItem * QTableWidgetItem::clone(void) const
	?setRgb@QColor@@QAEXI@Z @ 1421 NONAME ; void QColor::setRgb(unsigned int)
	?sortChildren@QFileSystemModelPrivate@@QAEXHABVQModelIndex@@@Z @ 1422 NONAME ; void QFileSystemModelPrivate::sortChildren(int, class QModelIndex const &)
	?blockFormatIndex@QTextBlock@@QBEHXZ @ 1423 NONAME ; int QTextBlock::blockFormatIndex(void) const
	?visualRect@QColumnView@@UBE?AVQRect@@ABVQModelIndex@@@Z @ 1424 NONAME ; class QRect QColumnView::visualRect(class QModelIndex const &) const
	?acceptTouchEvents@QGraphicsItem@@QBE_NXZ @ 1425 NONAME ; bool QGraphicsItem::acceptTouchEvents(void) const
	??0QRubberBand@@QAE@W4Shape@0@PAVQWidget@@@Z @ 1426 NONAME ; QRubberBand::QRubberBand(enum QRubberBand::Shape, class QWidget *)
	?graphicsEffect@QWidget@@QBEPAVQGraphicsEffect@@XZ @ 1427 NONAME ; class QGraphicsEffect * QWidget::graphicsEffect(void) const
	?closePopup@QApplicationPrivate@@QAEXPAVQWidget@@@Z @ 1428 NONAME ; void QApplicationPrivate::closePopup(class QWidget *)
	??PQTextCursor@@QBE_NABV0@@Z @ 1429 NONAME ; bool QTextCursor::operator>=(class QTextCursor const &) const
	?palette@QGuiPlatformPlugin@@UAE?AVQPalette@@XZ @ 1430 NONAME ; class QPalette QGuiPlatformPlugin::palette(void)
	?itemAt@QGraphicsAnchorLayout@@UBEPAVQGraphicsLayoutItem@@H@Z @ 1431 NONAME ; class QGraphicsLayoutItem * QGraphicsAnchorLayout::itemAt(int) const
	?initWidget@QStyleSheetStyle@@ABE_NPBVQWidget@@@Z @ 1432 NONAME ; bool QStyleSheetStyle::initWidget(class QWidget const *) const
	?outputFormats@QPictureIO@@SA?AV?$QList@VQByteArray@@@@XZ @ 1433 NONAME ; class QList<class QByteArray> QPictureIO::outputFormats(void)
	?mapToViewRegion@QGraphicsViewPrivate@@QBE?AVQRegion@@PBVQGraphicsItem@@ABVQRectF@@@Z @ 1434 NONAME ; class QRegion QGraphicsViewPrivate::mapToViewRegion(class QGraphicsItem const *, class QRectF const &) const
	?isItemSelected@QTableWidget@@QBE_NPBVQTableWidgetItem@@@Z @ 1435 NONAME ; bool QTableWidget::isItemSelected(class QTableWidgetItem const *) const
	?focusWidget@QGraphicsWidget@@QBEPAV1@XZ @ 1436 NONAME ; class QGraphicsWidget * QGraphicsWidget::focusWidget(void) const
	?split@QDockAreaLayoutInfo@@QAEXHW4Orientation@Qt@@PAVQLayoutItem@@@Z @ 1437 NONAME ; void QDockAreaLayoutInfo::split(int, enum Qt::Orientation, class QLayoutItem *)
	?isTextVisible@QProgressBar@@QBE_NXZ @ 1438 NONAME ; bool QProgressBar::isTextVisible(void) const
	?minimumSize@QGraphicsLayoutItem@@QBE?AVQSizeF@@XZ @ 1439 NONAME ; class QSizeF QGraphicsLayoutItem::minimumSize(void) const
	?tr@QStylePlugin@@SA?AVQString@@PBD0@Z @ 1440 NONAME ; class QString QStylePlugin::tr(char const *, char const *)
	?setGeometry@QGraphicsLayoutItem@@UAEXABVQRectF@@@Z @ 1441 NONAME ; void QGraphicsLayoutItem::setGeometry(class QRectF const &)
	?leading@QFontMetrics@@QBEHXZ @ 1442 NONAME ; int QFontMetrics::leading(void) const
	?metaObject@QAbstractScrollArea@@UBEPBUQMetaObject@@XZ @ 1443 NONAME ; struct QMetaObject const * QAbstractScrollArea::metaObject(void) const
	?wordWrap@QTableView@@QBE_NXZ @ 1444 NONAME ; bool QTableView::wordWrap(void) const
	?setFontUnderline@QTextCharFormat@@QAEX_N@Z @ 1445 NONAME ; void QTextCharFormat::setFontUnderline(bool)
	??0QTextFormat@@QAE@XZ @ 1446 NONAME ; QTextFormat::QTextFormat(void)
	??0QStyleOptionTabBarBaseV2@@QAE@ABVQStyleOptionTabBarBase@@@Z @ 1447 NONAME ; QStyleOptionTabBarBaseV2::QStyleOptionTabBarBaseV2(class QStyleOptionTabBarBase const &)
	?extraData@QWidgetPrivate@@QBEPAUQWExtra@@XZ @ 1448 NONAME ; struct QWExtra * QWidgetPrivate::extraData(void) const
	?trUtf8@QDirModel@@SA?AVQString@@PBD0H@Z @ 1449 NONAME ; class QString QDirModel::trUtf8(char const *, char const *, int)
	?setHeight@QTextFrameFormat@@QAEXM@Z @ 1450 NONAME ; void QTextFrameFormat::setHeight(float)
	?view@QComboBox@@QBEPAVQAbstractItemView@@XZ @ 1451 NONAME ; class QAbstractItemView * QComboBox::view(void) const
	?sizeHint@QTreeWidgetItem@@QBE?AVQSize@@H@Z @ 1452 NONAME ; class QSize QTreeWidgetItem::sizeHint(int) const
	??0QLinearGradient@@QAE@XZ @ 1453 NONAME ; QLinearGradient::QLinearGradient(void)
	?metaObject@QTextDocumentLayout@@UBEPBUQMetaObject@@XZ @ 1454 NONAME ; struct QMetaObject const * QTextDocumentLayout::metaObject(void) const
	?keyboardTracking@QAbstractSpinBox@@QBE_NXZ @ 1455 NONAME ; bool QAbstractSpinBox::keyboardTracking(void) const
	?setRootIndex@QFileDialogPrivate@@QBEXABVQModelIndex@@@Z @ 1456 NONAME ; void QFileDialogPrivate::setRootIndex(class QModelIndex const &) const
	?tr@QGraphicsWidget@@SA?AVQString@@PBD0@Z @ 1457 NONAME ; class QString QGraphicsWidget::tr(char const *, char const *)
	?internalVertex@QGraphicsAnchorLayoutPrivate@@QBEPAUAnchorVertex@@ABU?$QPair@PAVQGraphicsLayoutItem@@W4AnchorPoint@Qt@@@@@Z @ 1458 NONAME ; struct AnchorVertex * QGraphicsAnchorLayoutPrivate::internalVertex(struct QPair<class QGraphicsLayoutItem *, enum Qt::AnchorPoint> const &) const
	??1QProxyStyle@@UAE@XZ @ 1459 NONAME ; QProxyStyle::~QProxyStyle(void)
	?fileDialogSetNameFilters@QGuiPlatformPlugin@@UAEXPAVQFileDialog@@ABVQStringList@@@Z @ 1460 NONAME ; void QGuiPlatformPlugin::fileDialogSetNameFilters(class QFileDialog *, class QStringList const &)
	?setTransformOriginPoint@QGraphicsItem@@QAEXABVQPointF@@@Z @ 1461 NONAME ; void QGraphicsItem::setTransformOriginPoint(class QPointF const &)
	?setSystemRect@QPaintEngine@@QAEXABVQRect@@@Z @ 1462 NONAME ; void QPaintEngine::setSystemRect(class QRect const &)
	?match@QSortFilterProxyModel@@UBE?AV?$QList@VQModelIndex@@@@ABVQModelIndex@@HABVQVariant@@HV?$QFlags@W4MatchFlag@Qt@@@@@Z @ 1463 NONAME ; class QList<class QModelIndex> QSortFilterProxyModel::match(class QModelIndex const &, int, class QVariant const &, int, class QFlags<enum Qt::MatchFlag>) const
	?interpretText@QAbstractSpinBox@@QAEXXZ @ 1464 NONAME ; void QAbstractSpinBox::interpretText(void)
	?insertSeparator@QMenu@@QAEPAVQAction@@PAV2@@Z @ 1465 NONAME ; class QAction * QMenu::insertSeparator(class QAction *)
	?setField@QWizardPage@@IAEXABVQString@@ABVQVariant@@@Z @ 1466 NONAME ; void QWizardPage::setField(class QString const &, class QVariant const &)
	??0QVector4D@@AAE@MMMMH@Z @ 1467 NONAME ; QVector4D::QVector4D(float, float, float, float, int)
	?setSpread@QGradient@@QAEXW4Spread@1@@Z @ 1468 NONAME ; void QGradient::setSpread(enum QGradient::Spread)
	?changeEvent@QMenu@@MAEXPAVQEvent@@@Z @ 1469 NONAME ; void QMenu::changeEvent(class QEvent *)
	?alpha@QColor@@QBEHXZ @ 1470 NONAME ; int QColor::alpha(void) const
	?setKeypadNavigationEnabled@QApplication@@SAX_N@Z @ 1471 NONAME ; void QApplication::setKeypadNavigationEnabled(bool)
	?fontMetrics@QApplication@@SA?AVQFontMetrics@@XZ @ 1472 NONAME ; class QFontMetrics QApplication::fontMetrics(void)
	?fontFilters@QFontComboBox@@QBE?AV?$QFlags@W4FontFilter@QFontComboBox@@@@XZ @ 1473 NONAME ; class QFlags<enum QFontComboBox::FontFilter> QFontComboBox::fontFilters(void) const
	?sizeHint@QSpacerItem@@UBE?AVQSize@@XZ @ 1474 NONAME ; class QSize QSpacerItem::sizeHint(void) const
	?getStaticMetaObject@QStandardItemModel@@SAABUQMetaObject@@XZ @ 1475 NONAME ; struct QMetaObject const & QStandardItemModel::getStaticMetaObject(void)
	?expanded@QTreeView@@IAEXABVQModelIndex@@@Z @ 1476 NONAME ; void QTreeView::expanded(class QModelIndex const &)
	?extendedSelectionCommand@QAbstractItemViewPrivate@@QBE?AV?$QFlags@W4SelectionFlag@QItemSelectionModel@@@@ABVQModelIndex@@PBVQEvent@@@Z @ 1477 NONAME ; class QFlags<enum QItemSelectionModel::SelectionFlag> QAbstractItemViewPrivate::extendedSelectionCommand(class QModelIndex const &, class QEvent const *) const
	?setGeometry@QGraphicsWidget@@UAEXABVQRectF@@@Z @ 1478 NONAME ; void QGraphicsWidget::setGeometry(class QRectF const &)
	?drawContents@QSplashScreen@@MAEXPAVQPainter@@@Z @ 1479 NONAME ; void QSplashScreen::drawContents(class QPainter *)
	??0QStyleOptionSlider@@QAE@ABV0@@Z @ 1480 NONAME ; QStyleOptionSlider::QStyleOptionSlider(class QStyleOptionSlider const &)
	??0QTabBar@@QAE@PAVQWidget@@@Z @ 1481 NONAME ; QTabBar::QTabBar(class QWidget *)
	?tr@QTextControl@@SA?AVQString@@PBD0H@Z @ 1482 NONAME ; class QString QTextControl::tr(char const *, char const *, int)
	?tr@QMessageBox@@SA?AVQString@@PBD0@Z @ 1483 NONAME ; class QString QMessageBox::tr(char const *, char const *)
	?setWordWrapMode@QTextEdit@@QAEXW4WrapMode@QTextOption@@@Z @ 1484 NONAME ; void QTextEdit::setWordWrapMode(enum QTextOption::WrapMode)
	??0QTextDocument@@QAE@ABVQString@@PAVQObject@@@Z @ 1485 NONAME ; QTextDocument::QTextDocument(class QString const &, class QObject *)
	?loadResource@QPlainTextEdit@@UAE?AVQVariant@@HABVQUrl@@@Z @ 1486 NONAME ; class QVariant QPlainTextEdit::loadResource(int, class QUrl const &)
	?desktopSettingsAware@QApplication@@SA_NXZ @ 1487 NONAME ; bool QApplication::desktopSettingsAware(void)
	?trUtf8@QToolBar@@SA?AVQString@@PBD0H@Z @ 1488 NONAME ; class QString QToolBar::trUtf8(char const *, char const *, int)
	?isValid@QTextImageFormat@@QBE_NXZ @ 1489 NONAME ; bool QTextImageFormat::isValid(void) const
	?qt_metacast@QTextBrowser@@UAEPAXPBD@Z @ 1490 NONAME ; void * QTextBrowser::qt_metacast(char const *)
	?isGridVisible@QCalendarWidget@@QBE_NXZ @ 1491 NONAME ; bool QCalendarWidget::isGridVisible(void) const
	?setItemToolTip@QToolBox@@QAEXHABVQString@@@Z @ 1492 NONAME ; void QToolBox::setItemToolTip(int, class QString const &)
	??_4QRegion@@QAEAAV0@ABVQRect@@@Z @ 1493 NONAME ; class QRegion & QRegion::operator&=(class QRect const &)
	?updateSceneRect@QGraphicsView@@QAEXABVQRectF@@@Z @ 1494 NONAME ; void QGraphicsView::updateSceneRect(class QRectF const &)
	?yTilt@QTabletEvent@@QBEHXZ @ 1495 NONAME ; int QTabletEvent::yTilt(void) const
	?hiResGlobalY@QTabletEvent@@QBEMXZ @ 1496 NONAME ; float QTabletEvent::hiResGlobalY(void) const
	??_EQGraphicsLayout@@UAE@I@Z @ 1497 NONAME ; QGraphicsLayout::~QGraphicsLayout(unsigned int)
	?setSelectionRectVisible@QListView@@QAEX_N@Z @ 1498 NONAME ; void QListView::setSelectionRectVisible(bool)
	?setElideMode@QTabBar@@QAEXW4TextElideMode@Qt@@@Z @ 1499 NONAME ; void QTabBar::setElideMode(enum Qt::TextElideMode)
	?styleSheet@QApplicationPrivate@@2VQString@@A @ 1500 NONAME ; class QString QApplicationPrivate::styleSheet
	?formatIndex@QTextObject@@QBEHXZ @ 1501 NONAME ; int QTextObject::formatIndex(void) const
	??BQKeySequence@@QBEHXZ @ 1502 NONAME ; QKeySequence::operator int(void) const
	?setFont@QGraphicsScene@@QAEXABVQFont@@@Z @ 1503 NONAME ; void QGraphicsScene::setFont(class QFont const &)
	?enterEvent@QWidget@@MAEXPAVQEvent@@@Z @ 1504 NONAME ; void QWidget::enterEvent(class QEvent *)
	?setUrls@QSidebar@@QAEXABV?$QList@VQUrl@@@@@Z @ 1505 NONAME ; void QSidebar::setUrls(class QList<class QUrl> const &)
	?insertRow@QFormLayout@@QAEXHABVQString@@PAVQWidget@@@Z @ 1506 NONAME ; void QFormLayout::insertRow(int, class QString const &, class QWidget *)
	?event@QCalendarWidget@@MAE_NPAVQEvent@@@Z @ 1507 NONAME ; bool QCalendarWidget::event(class QEvent *)
	?getStaticMetaObject@QSplitterHandle@@SAABUQMetaObject@@XZ @ 1508 NONAME ; struct QMetaObject const & QSplitterHandle::getStaticMetaObject(void)
	??RQMatrix4x4@@QBEABMHH@Z @ 1509 NONAME ; float const & QMatrix4x4::operator()(int, int) const
	?doScroll@QComboBoxPrivateScroller@@IAEXH@Z @ 1510 NONAME ; void QComboBoxPrivateScroller::doScroll(int)
	?addLine@QGraphicsScene@@QAEPAVQGraphicsLineItem@@MMMMABVQPen@@@Z @ 1511 NONAME ; class QGraphicsLineItem * QGraphicsScene::addLine(float, float, float, float, class QPen const &)
	??1QPicture@@UAE@XZ @ 1512 NONAME ; QPicture::~QPicture(void)
	??0QGraphicsEllipseItem@@QAE@MMMMPAVQGraphicsItem@@PAVQGraphicsScene@@@Z @ 1513 NONAME ; QGraphicsEllipseItem::QGraphicsEllipseItem(float, float, float, float, class QGraphicsItem *, class QGraphicsScene *)
	?updateTouchPointsForWidget@QApplicationPrivate@@SAXPAVQWidget@@PAVQTouchEvent@@@Z @ 1514 NONAME ; void QApplicationPrivate::updateTouchPointsForWidget(class QWidget *, class QTouchEvent *)
	??0QAction@@QAE@PAVQObject@@@Z @ 1515 NONAME ; QAction::QAction(class QObject *)
	?subtracted@QPainterPath@@QBE?AV1@ABV1@@Z @ 1516 NONAME ; class QPainterPath QPainterPath::subtracted(class QPainterPath const &) const
	?qt_metacall@QDateTimeEdit@@UAEHW4Call@QMetaObject@@HPAPAX@Z @ 1517 NONAME ; int QDateTimeEdit::qt_metacall(enum QMetaObject::Call, int, void * *)
	?clear@QBitmap@@QAEXXZ @ 1518 NONAME ; void QBitmap::clear(void)
	?selectedText@QTextCursor@@QBE?AVQString@@XZ @ 1519 NONAME ; class QString QTextCursor::selectedText(void) const
	?cyanF@QColor@@QBEMXZ @ 1520 NONAME ; float QColor::cyanF(void) const
	?tabStop@QTextOption@@QBEMXZ @ 1521 NONAME ; float QTextOption::tabStop(void) const
	?tabShape@QMainWindow@@QBE?AW4TabShape@QTabWidget@@XZ @ 1522 NONAME ; enum QTabWidget::TabShape QMainWindow::tabShape(void) const
	?setStrokeWidth@QStroker@@QAEXM@Z @ 1523 NONAME ; void QStroker::setStrokeWidth(float)
	?d_func@QGraphicsSceneMouseEvent@@ABEPBVQGraphicsSceneMouseEventPrivate@@XZ @ 1524 NONAME ; class QGraphicsSceneMouseEventPrivate const * QGraphicsSceneMouseEvent::d_func(void) const
	?end@QPainter@@QAE_NXZ @ 1525 NONAME ; bool QPainter::end(void)
	?gamma@QPictureIO@@QBEMXZ @ 1526 NONAME ; float QPictureIO::gamma(void) const
	?tableFormat@QTextFormatCollection@@QBE?AVQTextTableFormat@@H@Z @ 1527 NONAME ; class QTextTableFormat QTextFormatCollection::tableFormat(int) const
	?clipRect@QImageReader@@QBE?AVQRect@@XZ @ 1528 NONAME ; class QRect QImageReader::clipRect(void) const
	?addRoundedRect@QPainterPath@@QAEXABVQRectF@@MMW4SizeMode@Qt@@@Z @ 1529 NONAME ; void QPainterPath::addRoundedRect(class QRectF const &, float, float, enum Qt::SizeMode)
	??1QGraphicsDropShadowEffect@@UAE@XZ @ 1530 NONAME ; QGraphicsDropShadowEffect::~QGraphicsDropShadowEffect(void)
	?setLocale@QValidator@@QAEXABVQLocale@@@Z @ 1531 NONAME ; void QValidator::setLocale(class QLocale const &)
	??Eiterator@QTextFrame@@QAE?AV01@H@Z @ 1532 NONAME ; class QTextFrame::iterator QTextFrame::iterator::operator++(int)
	?timerEvent@QTextControl@@MAEXPAVQTimerEvent@@@Z @ 1533 NONAME ; void QTextControl::timerEvent(class QTimerEvent *)
	?setTextWidth@QGraphicsTextItem@@QAEXM@Z @ 1534 NONAME ; void QGraphicsTextItem::setTextWidth(float)
	?isDirty@QWidgetBackingStore@@QBE_NXZ @ 1535 NONAME ; bool QWidgetBackingStore::isDirty(void) const
	??_EQWheelEvent@@UAE@I@Z @ 1536 NONAME ; QWheelEvent::~QWheelEvent(unsigned int)
	?setTableCellColumnSpan@QTextCharFormat@@QAEXH@Z @ 1537 NONAME ; void QTextCharFormat::setTableCellColumnSpan(int)
	?boundingBox@QTextEngine@@QBE?AUglyph_metrics_t@@HH@Z @ 1538 NONAME ; struct glyph_metrics_t QTextEngine::boundingBox(int, int) const
	?setPriority@QAction@@QAEXW4Priority@1@@Z @ 1539 NONAME ; void QAction::setPriority(enum QAction::Priority)
	?d_func@QGraphicsAnchor@@AAEPAVQGraphicsAnchorPrivate@@XZ @ 1540 NONAME ; class QGraphicsAnchorPrivate * QGraphicsAnchor::d_func(void)
	?transform@QPainter@@QBEABVQTransform@@XZ @ 1541 NONAME ; class QTransform const & QPainter::transform(void) const
	?columns@QTextTableFormat@@QBEHXZ @ 1542 NONAME ; int QTextTableFormat::columns(void) const
	??0QBrush@@QAE@W4GlobalColor@Qt@@W4BrushStyle@2@@Z @ 1543 NONAME ; QBrush::QBrush(enum Qt::GlobalColor, enum Qt::BrushStyle)
	?metaObject@QStringListModel@@UBEPBUQMetaObject@@XZ @ 1544 NONAME ; struct QMetaObject const * QStringListModel::metaObject(void) const
	?invalidate@QGridLayout@@UAEXXZ @ 1545 NONAME ; void QGridLayout::invalidate(void)
	?sizeHint@QSizeGrip@@UBE?AVQSize@@XZ @ 1546 NONAME ; class QSize QSizeGrip::sizeHint(void) const
	?setValidator@QLineControl@@QAEXPBVQValidator@@@Z @ 1547 NONAME ; void QLineControl::setValidator(class QValidator const *)
	?setSceneRect@QGraphicsScene@@QAEXMMMM@Z @ 1548 NONAME ; void QGraphicsScene::setSceneRect(float, float, float, float)
	?fromHtml@QTextDocumentFragment@@SA?AV1@ABVQString@@PBVQTextDocument@@@Z @ 1549 NONAME ; class QTextDocumentFragment QTextDocumentFragment::fromHtml(class QString const &, class QTextDocument const *)
	?tr@QUndoStack@@SA?AVQString@@PBD0@Z @ 1550 NONAME ; class QString QUndoStack::tr(char const *, char const *)
	?setStaticContentsSupport@QWindowSurface@@IAEX_N@Z @ 1551 NONAME ; void QWindowSurface::setStaticContentsSupport(bool)
	?inputMethodQueryHelper@QGraphicsItemPrivate@@UBE?AVQVariant@@W4InputMethodQuery@Qt@@@Z @ 1552 NONAME ; class QVariant QGraphicsItemPrivate::inputMethodQueryHelper(enum Qt::InputMethodQuery) const
	?topPadding@QTextTableCellFormat@@QBEMXZ @ 1553 NONAME ; float QTextTableCellFormat::topPadding(void) const
	?parse@Parser@QCss@@QAE_NPAUStyleSheet@2@W4CaseSensitivity@Qt@@@Z @ 1554 NONAME ; bool QCss::Parser::parse(struct QCss::StyleSheet *, enum Qt::CaseSensitivity)
	?maybeTopData@QWidgetPrivate@@QBEPAUQTLWExtra@@XZ @ 1555 NONAME ; struct QTLWExtra * QWidgetPrivate::maybeTopData(void) const
	?sceneEvent@QGraphicsItem@@MAE_NPAVQEvent@@@Z @ 1556 NONAME ; bool QGraphicsItem::sceneEvent(class QEvent *)
	?x@QQuaternion@@QBEMXZ @ 1557 NONAME ; float QQuaternion::x(void) const
	?emitUndoAvailable@QTextDocumentPrivate@@QAEX_N@Z @ 1558 NONAME ; void QTextDocumentPrivate::emitUndoAvailable(bool)
	?setPalette@QGraphicsWidget@@QAEXABVQPalette@@@Z @ 1559 NONAME ; void QGraphicsWidget::setPalette(class QPalette const &)
	??1QDockWidget@@UAE@XZ @ 1560 NONAME ; QDockWidget::~QDockWidget(void)
	?setAccessibleDescription@QStandardItem@@QAEXABVQString@@@Z @ 1561 NONAME ; void QStandardItem::setAccessibleDescription(class QString const &)
	?bottomMargin@QTextBlockFormat@@QBEMXZ @ 1562 NONAME ; float QTextBlockFormat::bottomMargin(void) const
	?windowFlags@QWidget@@QBE?AV?$QFlags@W4WindowType@Qt@@@@XZ @ 1563 NONAME ; class QFlags<enum Qt::WindowType> QWidget::windowFlags(void) const
	?textInteractionFlags@QTextEdit@@QBE?AV?$QFlags@W4TextInteractionFlag@Qt@@@@XZ @ 1564 NONAME ; class QFlags<enum Qt::TextInteractionFlag> QTextEdit::textInteractionFlags(void) const
	?setActionGroup@QAction@@QAEXPAVQActionGroup@@@Z @ 1565 NONAME ; void QAction::setActionGroup(class QActionGroup *)
	?create@QImageData@@SAPAU1@ABVQSize@@W4Format@QImage@@H@Z @ 1566 NONAME ; struct QImageData * QImageData::create(class QSize const &, enum QImage::Format, int)
	?setMatrix@QMatrix@@QAEXMMMMMM@Z @ 1567 NONAME ; void QMatrix::setMatrix(float, float, float, float, float, float)
	??0QMessageBox@@QAE@W4Icon@0@ABVQString@@1V?$QFlags@W4StandardButton@QMessageBox@@@@PAVQWidget@@V?$QFlags@W4WindowType@Qt@@@@@Z @ 1568 NONAME ; QMessageBox::QMessageBox(enum QMessageBox::Icon, class QString const &, class QString const &, class QFlags<enum QMessageBox::StandardButton>, class QWidget *, class QFlags<enum Qt::WindowType>)
	?flags@QProxyModel@@UBE?AV?$QFlags@W4ItemFlag@Qt@@@@ABVQModelIndex@@@Z @ 1569 NONAME ; class QFlags<enum Qt::ItemFlag> QProxyModel::flags(class QModelIndex const &) const
	?writeAll@QTextOdfWriter@@QAE_NXZ @ 1570 NONAME ; bool QTextOdfWriter::writeAll(void)
	?pixelMetric@QStyleSheetStyle@@UBEHW4PixelMetric@QStyle@@PBVQStyleOption@@PBVQWidget@@@Z @ 1571 NONAME ; int QStyleSheetStyle::pixelMetric(enum QStyle::PixelMetric, class QStyleOption const *, class QWidget const *) const
	??0QFontComboBox@@QAE@PAVQWidget@@@Z @ 1572 NONAME ; QFontComboBox::QFontComboBox(class QWidget *)
	?polish@QWindowsStyle@@UAEXPAVQWidget@@@Z @ 1573 NONAME ; void QWindowsStyle::polish(class QWidget *)
	?setStops@QGradient@@QAEXABV?$QVector@U?$QPair@MVQColor@@@@@@@Z @ 1574 NONAME ; void QGradient::setStops(class QVector<struct QPair<float, class QColor> > const &)
	??0QIcon@@QAE@PAVQIconEngine@@@Z @ 1575 NONAME ; QIcon::QIcon(class QIconEngine *)
	?getStaticMetaObject@QWizardPage@@SAABUQMetaObject@@XZ @ 1576 NONAME ; struct QMetaObject const & QWizardPage::getStaticMetaObject(void)
	?qt_metacast@QApplication@@UAEPAXPBD@Z @ 1577 NONAME ; void * QApplication::qt_metacast(char const *)
	?setTextInteractionFlags@QPlainTextEdit@@QAEXV?$QFlags@W4TextInteractionFlag@Qt@@@@@Z @ 1578 NONAME ; void QPlainTextEdit::setTextInteractionFlags(class QFlags<enum Qt::TextInteractionFlag>)
	?setButtonSymbols@QAbstractSpinBox@@QAEXW4ButtonSymbols@1@@Z @ 1579 NONAME ; void QAbstractSpinBox::setButtonSymbols(enum QAbstractSpinBox::ButtonSymbols)
	?hide@QWidget@@QAEXXZ @ 1580 NONAME ; void QWidget::hide(void)
	?replayClipOperations@QPaintEngineExPrivate@@QAEXXZ @ 1581 NONAME ; void QPaintEngineExPrivate::replayClipOperations(void)
	?setOffset@QHeaderView@@QAEXH@Z @ 1582 NONAME ; void QHeaderView::setOffset(int)
	?findInsertStatus@QWingedEdge@@ABE?AUTraversalStatus@1@HH@Z @ 1583 NONAME ; struct QWingedEdge::TraversalStatus QWingedEdge::findInsertStatus(int, int) const
	?verticalAlignment@QTextCharFormat@@QBE?AW4VerticalAlignment@1@XZ @ 1584 NONAME ; enum QTextCharFormat::VerticalAlignment QTextCharFormat::verticalAlignment(void) const
	??0QScriptItem@@QAE@HABUQScriptAnalysis@@@Z @ 1585 NONAME ; QScriptItem::QScriptItem(int, struct QScriptAnalysis const &)
	?usedTabBars@QDockAreaLayout@@QBE?AV?$QSet@PAVQTabBar@@@@XZ @ 1586 NONAME ; class QSet<class QTabBar *> QDockAreaLayout::usedTabBars(void) const
	?device@QTabletEvent@@QBE?AW4TabletDevice@1@XZ @ 1587 NONAME ; enum QTabletEvent::TabletDevice QTabletEvent::device(void) const
	?trUtf8@QComboBoxPrivateContainer@@SA?AVQString@@PBD0H@Z @ 1588 NONAME ; class QString QComboBoxPrivateContainer::trUtf8(char const *, char const *, int)
	?clear@QGraphicsSceneIndex@@MAEXXZ @ 1589 NONAME ; void QGraphicsSceneIndex::clear(void)
	??0QPushButton@@QAE@ABVQString@@PAVQWidget@@@Z @ 1590 NONAME ; QPushButton::QPushButton(class QString const &, class QWidget *)
	?tr@QMenu@@SA?AVQString@@PBD0@Z @ 1591 NONAME ; class QString QMenu::tr(char const *, char const *)
	?qt_metacall@QTextBrowser@@UAEHW4Call@QMetaObject@@HPAPAX@Z @ 1592 NONAME ; int QTextBrowser::qt_metacall(enum QMetaObject::Call, int, void * *)
	?fixup@QLineControl@@QAE_NXZ @ 1593 NONAME ; bool QLineControl::fixup(void)
	??_EQGraphicsProxyWidget@@UAE@I@Z @ 1594 NONAME ; QGraphicsProxyWidget::~QGraphicsProxyWidget(unsigned int)
	?paintEvent@QToolBarExtension@@UAEXPAVQPaintEvent@@@Z @ 1595 NONAME ; void QToolBarExtension::paintEvent(class QPaintEvent *)
	?link@QPalette@@QBEABVQBrush@@XZ @ 1596 NONAME ; class QBrush const & QPalette::link(void) const
	?trUtf8@QGraphicsItemAnimation@@SA?AVQString@@PBD0H@Z @ 1597 NONAME ; class QString QGraphicsItemAnimation::trUtf8(char const *, char const *, int)
	?tr@QHeaderView@@SA?AVQString@@PBD0H@Z @ 1598 NONAME ; class QString QHeaderView::tr(char const *, char const *, int)
	?horizontalHeaderItem@QTableWidget@@QBEPAVQTableWidgetItem@@H@Z @ 1599 NONAME ; class QTableWidgetItem * QTableWidget::horizontalHeaderItem(int) const
	?cancelButtonText@QInputDialog@@QBE?AVQString@@XZ @ 1600 NONAME ; class QString QInputDialog::cancelButtonText(void) const
	?redo@QTextDocument@@QAEXPAVQTextCursor@@@Z @ 1601 NONAME ; void QTextDocument::redo(class QTextCursor *)
	?editingFinished@QLineControl@@IAEXXZ @ 1602 NONAME ; void QLineControl::editingFinished(void)
	?d_func@QGraphicsPixmapItem@@AAEPAVQGraphicsPixmapItemPrivate@@XZ @ 1603 NONAME ; class QGraphicsPixmapItemPrivate * QGraphicsPixmapItem::d_func(void)
	?backspace@QLineControl@@QAEXXZ @ 1604 NONAME ; void QLineControl::backspace(void)
	?focusProxy@QWidget@@QBEPAV1@XZ @ 1605 NONAME ; class QWidget * QWidget::focusProxy(void) const
	?closestLegalPosition@QSplitterHandle@@IAEHH@Z @ 1606 NONAME ; int QSplitterHandle::closestLegalPosition(int)
	?setExtension@QGraphicsEllipseItem@@MAEXW4Extension@QGraphicsItem@@ABVQVariant@@@Z @ 1607 NONAME ; void QGraphicsEllipseItem::setExtension(enum QGraphicsItem::Extension, class QVariant const &)
	?tr@QGraphicsBloomEffect@@SA?AVQString@@PBD0H@Z @ 1608 NONAME ; class QString QGraphicsBloomEffect::tr(char const *, char const *, int)
	?docHandle@QTextObject@@QBEPAVQTextDocumentPrivate@@XZ @ 1609 NONAME ; class QTextDocumentPrivate * QTextObject::docHandle(void) const
	??0QTextControl@@QAE@ABVQString@@PAVQObject@@@Z @ 1610 NONAME ; QTextControl::QTextControl(class QString const &, class QObject *)
	?blockBoundingRect@QPlainTextDocumentLayout@@UBE?AVQRectF@@ABVQTextBlock@@@Z @ 1611 NONAME ; class QRectF QPlainTextDocumentLayout::blockBoundingRect(class QTextBlock const &) const
	?remove@QFileSystemModel@@QBE_NABVQModelIndex@@@Z @ 1612 NONAME ; bool QFileSystemModel::remove(class QModelIndex const &) const
	?qt_metacast@QDoubleSpinBox@@UAEPAXPBD@Z @ 1613 NONAME ; void * QDoubleSpinBox::qt_metacast(char const *)
	??_EQItemEditorFactory@@UAE@I@Z @ 1614 NONAME ; QItemEditorFactory::~QItemEditorFactory(unsigned int)
	?isFloating@QToolBar@@QBE_NXZ @ 1615 NONAME ; bool QToolBar::isFloating(void) const
	?text@QUndoStack@@QBE?AVQString@@H@Z @ 1616 NONAME ; class QString QUndoStack::text(int) const
	?staticMetaObject@QCheckBox@@2UQMetaObject@@B @ 1617 NONAME ; struct QMetaObject const QCheckBox::staticMetaObject
	?d_func@QTextBlockGroup@@AAEPAVQTextBlockGroupPrivate@@XZ @ 1618 NONAME ; class QTextBlockGroupPrivate * QTextBlockGroup::d_func(void)
	?setWidget@QFocusFrame@@QAEXPAVQWidget@@@Z @ 1619 NONAME ; void QFocusFrame::setWidget(class QWidget *)
	?setNotation@QDoubleValidator@@QAEXW4Notation@1@@Z @ 1620 NONAME ; void QDoubleValidator::setNotation(enum QDoubleValidator::Notation)
	?rowResized@QTableView@@IAEXHHH@Z @ 1621 NONAME ; void QTableView::rowResized(int, int, int)
	?toFillPolygons@QPainterPath@@QBE?AV?$QList@VQPolygonF@@@@ABVQMatrix@@@Z @ 1622 NONAME ; class QList<class QPolygonF> QPainterPath::toFillPolygons(class QMatrix const &) const
	?drawTiledPixmap@QPaintEngineEx@@UAEXABVQRectF@@ABVQPixmap@@ABVQPointF@@@Z @ 1623 NONAME ; void QPaintEngineEx::drawTiledPixmap(class QRectF const &, class QPixmap const &, class QPointF const &)
	?insertFromMimeData@QTextControl@@UAEXPBVQMimeData@@@Z @ 1624 NONAME ; void QTextControl::insertFromMimeData(class QMimeData const *)
	?setDefaultPositioning@QGridLayout@@QAEXHW4Orientation@Qt@@@Z @ 1625 NONAME ; void QGridLayout::setDefaultPositioning(int, enum Qt::Orientation)
	?mouseReleaseEvent@QPlainTextEdit@@MAEXPAVQMouseEvent@@@Z @ 1626 NONAME ; void QPlainTextEdit::mouseReleaseEvent(class QMouseEvent *)
	?setFormat@QImageIOHandler@@QAEXABVQByteArray@@@Z @ 1627 NONAME ; void QImageIOHandler::setFormat(class QByteArray const &)
	??0QGraphicsObject@@IAE@AAVQGraphicsItemPrivate@@PAVQGraphicsItem@@PAVQGraphicsScene@@@Z @ 1628 NONAME ; QGraphicsObject::QGraphicsObject(class QGraphicsItemPrivate &, class QGraphicsItem *, class QGraphicsScene *)
	?trUtf8@QDoubleSpinBox@@SA?AVQString@@PBD0@Z @ 1629 NONAME ; class QString QDoubleSpinBox::trUtf8(char const *, char const *)
	?isObscuredBy@QGraphicsEllipseItem@@UBE_NPBVQGraphicsItem@@@Z @ 1630 NONAME ; bool QGraphicsEllipseItem::isObscuredBy(class QGraphicsItem const *) const
	?hasClipOperations@QPaintEngineExPrivate@@QBE_NXZ @ 1631 NONAME ; bool QPaintEngineExPrivate::hasClipOperations(void) const
	??1QStyleOptionViewItemV4@@QAE@XZ @ 1632 NONAME ; QStyleOptionViewItemV4::~QStyleOptionViewItemV4(void)
	?drawControl@QWindowsStyle@@UBEXW4ControlElement@QStyle@@PBVQStyleOption@@PAVQPainter@@PBVQWidget@@@Z @ 1633 NONAME ; void QWindowsStyle::drawControl(enum QStyle::ControlElement, class QStyleOption const *, class QPainter *, class QWidget const *) const
	?display@QLCDNumber@@QAEXH@Z @ 1634 NONAME ; void QLCDNumber::display(int)
	?accept@QFileDialog@@MAEXXZ @ 1635 NONAME ; void QFileDialog::accept(void)
	?isSessionRestored@QApplication@@QBE_NXZ @ 1636 NONAME ; bool QApplication::isSessionRestored(void) const
	?d_func@QWizard@@ABEPBVQWizardPrivate@@XZ @ 1637 NONAME ; class QWizardPrivate const * QWizard::d_func(void) const
	??4QTextCharFormat@@QAEAAV0@ABV0@@Z @ 1638 NONAME ; class QTextCharFormat & QTextCharFormat::operator=(class QTextCharFormat const &)
	??8Key@QPixmapCache@@QBE_NABV01@@Z @ 1639 NONAME ; bool QPixmapCache::Key::operator==(class QPixmapCache::Key const &) const
	?find@QTextControl@@QAE_NABVQString@@V?$QFlags@W4FindFlag@QTextDocument@@@@@Z @ 1640 NONAME ; bool QTextControl::find(class QString const &, class QFlags<enum QTextDocument::FindFlag>)
	?completer@QLineControl@@QBEPAVQCompleter@@XZ @ 1641 NONAME ; class QCompleter * QLineControl::completer(void) const
	?toPlainText@QTextDocumentFragment@@QBE?AVQString@@XZ @ 1642 NONAME ; class QString QTextDocumentFragment::toPlainText(void) const
	?event@QTabWidget@@MAE_NPAVQEvent@@@Z @ 1643 NONAME ; bool QTabWidget::event(class QEvent *)
	?normalized@QQuaternion@@QBE?AV1@XZ @ 1644 NONAME ; class QQuaternion QQuaternion::normalized(void) const
	?rowCount@QTableWidget@@QBEHXZ @ 1645 NONAME ; int QTableWidget::rowCount(void) const
	?insertPlainText@QTextEdit@@QAEXABVQString@@@Z @ 1646 NONAME ; void QTextEdit::insertPlainText(class QString const &)
	?fileDialogDirectory@QGuiPlatformPlugin@@UBE?AVQString@@PBVQFileDialog@@@Z @ 1647 NONAME ; class QString QGuiPlatformPlugin::fileDialogDirectory(class QFileDialog const *) const
	?sizeHint@QDial@@UBE?AVQSize@@XZ @ 1648 NONAME ; class QSize QDial::sizeHint(void) const
	?setCompletionRole@QCompleter@@QAEXH@Z @ 1649 NONAME ; void QCompleter::setCompletionRole(int)
	?mapRect@QMatrix4x4@@QBE?AVQRect@@ABV2@@Z @ 1650 NONAME ; class QRect QMatrix4x4::mapRect(class QRect const &) const
	?currentChanged@QFileDialog@@IAEXABVQString@@@Z @ 1651 NONAME ; void QFileDialog::currentChanged(class QString const &)
	?setContentsMargins@QWidget@@QAEXHHHH@Z @ 1652 NONAME ; void QWidget::setContentsMargins(int, int, int, int)
	?defaultFont@QTextFormatCollection@@QBE?AVQFont@@XZ @ 1653 NONAME ; class QFont QTextFormatCollection::defaultFont(void) const
	?d_func@QAbstractProxyModel@@ABEPBVQAbstractProxyModelPrivate@@XZ @ 1654 NONAME ; class QAbstractProxyModelPrivate const * QAbstractProxyModel::d_func(void) const
	?sectionPressed@QHeaderView@@IAEXH@Z @ 1655 NONAME ; void QHeaderView::sectionPressed(int)
	?redo@QUndoGroup@@QAEXXZ @ 1656 NONAME ; void QUndoGroup::redo(void)
	?blockCountChanged@QPlainTextEdit@@IAEXH@Z @ 1657 NONAME ; void QPlainTextEdit::blockCountChanged(int)
	?supportedImageFormats@QImageReader@@SA?AV?$QList@VQByteArray@@@@XZ @ 1658 NONAME ; class QList<class QByteArray> QImageReader::supportedImageFormats(void)
	?flags@QPaintEngineEx@@UBEIXZ @ 1659 NONAME ; unsigned int QPaintEngineEx::flags(void) const
	??0QStyleHintReturnMask@@QAE@XZ @ 1660 NONAME ; QStyleHintReturnMask::QStyleHintReturnMask(void)
	?modificationChanged@QTextControl@@IAEX_N@Z @ 1661 NONAME ; void QTextControl::modificationChanged(bool)
	?tr@QUrlModel@@SA?AVQString@@PBD0@Z @ 1662 NONAME ; class QString QUrlModel::tr(char const *, char const *)
	??_EQFileOpenEvent@@UAE@I@Z @ 1663 NONAME ; QFileOpenEvent::~QFileOpenEvent(unsigned int)
	??IQRegion@@QBE?BV0@ABVQRect@@@Z @ 1664 NONAME ; class QRegion const QRegion::operator&(class QRect const &) const
	??1Key@QPixmapCache@@QAE@XZ @ 1665 NONAME ; QPixmapCache::Key::~Key(void)
	?metaObject@QPinchGesture@@UBEPBUQMetaObject@@XZ @ 1666 NONAME ; struct QMetaObject const * QPinchGesture::metaObject(void) const
	?drawPixmap@QPainter@@QAEXABVQPointF@@ABVQPixmap@@@Z @ 1667 NONAME ; void QPainter::drawPixmap(class QPointF const &, class QPixmap const &)
	?tr@QSpinBox@@SA?AVQString@@PBD0@Z @ 1668 NONAME ; class QString QSpinBox::tr(char const *, char const *)
	?movableChanged@QToolBar@@IAEX_N@Z @ 1669 NONAME ; void QToolBar::movableChanged(bool)
	?rows@QTextTable@@QBEHXZ @ 1670 NONAME ; int QTextTable::rows(void) const
	?setBackground@QMdiArea@@QAEXABVQBrush@@@Z @ 1671 NONAME ; void QMdiArea::setBackground(class QBrush const &)
	?setFirstDayOfWeek@QCalendarWidget@@QAEXW4DayOfWeek@Qt@@@Z @ 1672 NONAME ; void QCalendarWidget::setFirstDayOfWeek(enum Qt::DayOfWeek)
	?wheelEvent@QTextEdit@@MAEXPAVQWheelEvent@@@Z @ 1673 NONAME ; void QTextEdit::wheelEvent(class QWheelEvent *)
	?foregroundBrush@QGraphicsScene@@QBE?AVQBrush@@XZ @ 1674 NONAME ; class QBrush QGraphicsScene::foregroundBrush(void) const
	??0QVector4D@@QAE@ABVQVector3D@@M@Z @ 1675 NONAME ; QVector4D::QVector4D(class QVector3D const &, float)
	?foreground@QStandardItem@@QBE?AVQBrush@@XZ @ 1676 NONAME ; class QBrush QStandardItem::foreground(void) const
	?trUtf8@QLineControl@@SA?AVQString@@PBD0H@Z @ 1677 NONAME ; class QString QLineControl::trUtf8(char const *, char const *, int)
	?offsetChanged@QGraphicsDropShadowEffect@@IAEXABVQPointF@@@Z @ 1678 NONAME ; void QGraphicsDropShadowEffect::offsetChanged(class QPointF const &)
	?mouseMoveEvent@QSplitterHandle@@MAEXPAVQMouseEvent@@@Z @ 1679 NONAME ; void QSplitterHandle::mouseMoveEvent(class QMouseEvent *)
	?iconSize@QTabBar@@QBE?AVQSize@@XZ @ 1680 NONAME ; class QSize QTabBar::iconSize(void) const
	?metaObject@QWizard@@UBEPBUQMetaObject@@XZ @ 1681 NONAME ; struct QMetaObject const * QWizard::metaObject(void) const
	?sizeHint@QCommandLinkButton@@MBE?AVQSize@@XZ @ 1682 NONAME ; class QSize QCommandLinkButton::sizeHint(void) const
	?setCheckable@QAbstractButton@@QAEX_N@Z @ 1683 NONAME ; void QAbstractButton::setCheckable(bool)
	?setFileName@QMovie@@QAEXABVQString@@@Z @ 1684 NONAME ; void QMovie::setFileName(class QString const &)
	?activated@QCompleter@@IAEXABVQString@@@Z @ 1685 NONAME ; void QCompleter::activated(class QString const &)
	??0QBitmap@@QAE@HH@Z @ 1686 NONAME ; QBitmap::QBitmap(int, int)
	?grabWidget@QPixmap@@SA?AV1@PAVQWidget@@ABVQRect@@@Z @ 1687 NONAME ; class QPixmap QPixmap::grabWidget(class QWidget *, class QRect const &)
	?trUtf8@QComboBox@@SA?AVQString@@PBD0@Z @ 1688 NONAME ; class QString QComboBox::trUtf8(char const *, char const *)
	??0QMatrix@@QAE@W4Initialization@Qt@@@Z @ 1689 NONAME ; QMatrix::QMatrix(enum Qt::Initialization)
	?setData@QListWidgetItem@@UAEXHABVQVariant@@@Z @ 1690 NONAME ; void QListWidgetItem::setData(int, class QVariant const &)
	?removeVertex@QGraphicsAnchorLayoutPrivate@@QAEXPAVQGraphicsLayoutItem@@W4AnchorPoint@Qt@@@Z @ 1691 NONAME ; void QGraphicsAnchorLayoutPrivate::removeVertex(class QGraphicsLayoutItem *, enum Qt::AnchorPoint)
	?count@QKeySequence@@QBEIXZ @ 1692 NONAME ; unsigned int QKeySequence::count(void) const
	?begin@QPainter@@QAE_NPAVQPaintDevice@@@Z @ 1693 NONAME ; bool QPainter::begin(class QPaintDevice *)
	?horizontalStretch@QSizePolicy@@QBEHXZ @ 1694 NONAME ; int QSizePolicy::horizontalStretch(void) const
	?parsePrio@Parser@QCss@@QAE_NPAUDeclaration@2@@Z @ 1695 NONAME ; bool QCss::Parser::parsePrio(struct QCss::Declaration *)
	?estimateTopLevelItems@QGraphicsSceneBspTreeIndex@@UBE?AV?$QList@PAVQGraphicsItem@@@@ABVQRectF@@W4SortOrder@Qt@@@Z @ 1696 NONAME ; class QList<class QGraphicsItem *> QGraphicsSceneBspTreeIndex::estimateTopLevelItems(class QRectF const &, enum Qt::SortOrder) const
	?detach@QBrush@@AAEXW4BrushStyle@Qt@@@Z @ 1697 NONAME ; void QBrush::detach(enum Qt::BrushStyle)
	?trUtf8@QTextFrame@@SA?AVQString@@PBD0H@Z @ 1698 NONAME ; class QString QTextFrame::trUtf8(char const *, char const *, int)
	?mapRectFromParent@QGraphicsItem@@QBE?AVQRectF@@MMMM@Z @ 1699 NONAME ; class QRectF QGraphicsItem::mapRectFromParent(float, float, float, float) const
	?alignmentRect@QLayout@@IBE?AVQRect@@ABV2@@Z @ 1700 NONAME ; class QRect QLayout::alignmentRect(class QRect const &) const
	?visualPos@QStyle@@SA?AVQPoint@@W4LayoutDirection@Qt@@ABVQRect@@ABV2@@Z @ 1701 NONAME ; class QPoint QStyle::visualPos(enum Qt::LayoutDirection, class QRect const &, class QPoint const &)
	?setHidden@QTreeWidgetItem@@QAEX_N@Z @ 1702 NONAME ; void QTreeWidgetItem::setHidden(bool)
	?eventFilter@QGraphicsScene@@MAE_NPAVQObject@@PAVQEvent@@@Z @ 1703 NONAME ; bool QGraphicsScene::eventFilter(class QObject *, class QEvent *)
	?isValidInput@QLineControl@@ABE_NVQChar@@0@Z @ 1704 NONAME ; bool QLineControl::isValidInput(class QChar, class QChar) const
	?d_func@QSlider@@ABEPBVQSliderPrivate@@XZ @ 1705 NONAME ; class QSliderPrivate const * QSlider::d_func(void) const
	?propertyChange@QGraphicsWidget@@MAE?AVQVariant@@ABVQString@@ABV2@@Z @ 1706 NONAME ; class QVariant QGraphicsWidget::propertyChange(class QString const &, class QVariant const &)
	?moveRect@QWidgetPrivate@@QAEXABVQRect@@HH@Z @ 1707 NONAME ; void QWidgetPrivate::moveRect(class QRect const &, int, int)
	??_EQPaintEngineEx@@UAE@I@Z @ 1708 NONAME ; QPaintEngineEx::~QPaintEngineEx(unsigned int)
	?getFont@QFontDialog@@SA?AVQFont@@PA_NABV2@PAVQWidget@@@Z @ 1709 NONAME ; class QFont QFontDialog::getFont(bool *, class QFont const &, class QWidget *)
	??0QTextBlockFormat@@IAE@ABVQTextFormat@@@Z @ 1710 NONAME ; QTextBlockFormat::QTextBlockFormat(class QTextFormat const &)
	??1QCompleter@@UAE@XZ @ 1711 NONAME ; QCompleter::~QCompleter(void)
	?appendRows@QStandardItem@@QAEXABV?$QList@PAVQStandardItem@@@@@Z @ 1712 NONAME ; void QStandardItem::appendRows(class QList<class QStandardItem *> const &)
	??6@YAAAVQDataStream@@AAV0@ABVQMatrix@@@Z @ 1713 NONAME ; class QDataStream & operator<<(class QDataStream &, class QMatrix const &)
	?setHeaderHidden@QTreeView@@QAEX_N@Z @ 1714 NONAME ; void QTreeView::setHeaderHidden(bool)
	?engineForScript@QFontPrivate@@QBEPAVQFontEngine@@H@Z @ 1715 NONAME ; class QFontEngine * QFontPrivate::engineForScript(int) const
	?extractFont@ValueExtractor@QCss@@QAE_NPAVQFont@@PAH@Z @ 1716 NONAME ; bool QCss::ValueExtractor::extractFont(class QFont *, int *)
	?fileDialogSetFilter@QGuiPlatformPlugin@@UAEXPAVQFileDialog@@@Z @ 1717 NONAME ; void QGuiPlatformPlugin::fileDialogSetFilter(class QFileDialog *)
	?rowCount@QFileSystemModel@@UBEHABVQModelIndex@@@Z @ 1718 NONAME ; int QFileSystemModel::rowCount(class QModelIndex const &) const
	?globalX@QTabletEvent@@QBEHXZ @ 1719 NONAME ; int QTabletEvent::globalX(void) const
	?cleanupMultitouch_sys@QApplicationPrivate@@QAEXXZ @ 1720 NONAME ; void QApplicationPrivate::cleanupMultitouch_sys(void)
	?setCursor@QGraphicsItem@@QAEXABVQCursor@@@Z @ 1721 NONAME ; void QGraphicsItem::setCursor(class QCursor const &)
	??9QImage@@QBE_NABV0@@Z @ 1722 NONAME ; bool QImage::operator!=(class QImage const &) const
	?hoverEnterEvent@QGraphicsItem@@MAEXPAVQGraphicsSceneHoverEvent@@@Z @ 1723 NONAME ; void QGraphicsItem::hoverEnterEvent(class QGraphicsSceneHoverEvent *)
	?isRedoAvailable@QTextDocument@@QBE_NXZ @ 1724 NONAME ; bool QTextDocument::isRedoAvailable(void) const
	?showEvent@QGraphicsWidget@@MAEXPAVQShowEvent@@@Z @ 1725 NONAME ; void QGraphicsWidget::showEvent(class QShowEvent *)
	??1QStandardItemModel@@UAE@XZ @ 1726 NONAME ; QStandardItemModel::~QStandardItemModel(void)
	?d_func@QDesktopWidget@@AAEPAVQDesktopWidgetPrivate@@XZ @ 1727 NONAME ; class QDesktopWidgetPrivate * QDesktopWidget::d_func(void)
	??0QTextCursor@@QAE@PAVQTextFrame@@@Z @ 1728 NONAME ; QTextCursor::QTextCursor(class QTextFrame *)
	?addAction@QToolBar@@QAEPAVQAction@@ABVQIcon@@ABVQString@@PBVQObject@@PBD@Z @ 1729 NONAME ; class QAction * QToolBar::addAction(class QIcon const &, class QString const &, class QObject const *, char const *)
	?setPixmap@QSplashScreen@@QAEXABVQPixmap@@@Z @ 1730 NONAME ; void QSplashScreen::setPixmap(class QPixmap const &)
	?inputMethodEvent@QComboBox@@MAEXPAVQInputMethodEvent@@@Z @ 1731 NONAME ; void QComboBox::inputMethodEvent(class QInputMethodEvent *)
	?initFrom@QStyleOption@@QAEXPBVQWidget@@@Z @ 1732 NONAME ; void QStyleOption::initFrom(class QWidget const *)
	?setItem@QStandardItemModel@@QAEXHPAVQStandardItem@@@Z @ 1733 NONAME ; void QStandardItemModel::setItem(int, class QStandardItem *)
	?mouseDoubleClickEvent@QTreeView@@MAEXPAVQMouseEvent@@@Z @ 1734 NONAME ; void QTreeView::mouseDoubleClickEvent(class QMouseEvent *)
	?correctEdgeDirection@QGraphicsAnchorLayoutPrivate@@QAEXAAPAVQGraphicsLayoutItem@@AAW4AnchorPoint@Qt@@01@Z @ 1735 NONAME ; void QGraphicsAnchorLayoutPrivate::correctEdgeDirection(class QGraphicsLayoutItem * &, enum Qt::AnchorPoint &, class QGraphicsLayoutItem * &, enum Qt::AnchorPoint &)
	??0QGraphicsColorizeEffect@@QAE@PAVQObject@@@Z @ 1736 NONAME ; QGraphicsColorizeEffect::QGraphicsColorizeEffect(class QObject *)
	??0QRegion@@QAE@HHHHW4RegionType@0@@Z @ 1737 NONAME ; QRegion::QRegion(int, int, int, int, enum QRegion::RegionType)
	?separatorsCollapsible@QMenu@@QBE_NXZ @ 1738 NONAME ; bool QMenu::separatorsCollapsible(void) const
	?hidden_focus_widget@QApplicationPrivate@@2PAVQWidget@@A @ 1739 NONAME ; class QWidget * QApplicationPrivate::hidden_focus_widget
	?changeObjectFormat@QTextDocumentPrivate@@QAEXPAVQTextObject@@H@Z @ 1740 NONAME ; void QTextDocumentPrivate::changeObjectFormat(class QTextObject *, int)
	??_EQAction@@UAE@I@Z @ 1741 NONAME ; QAction::~QAction(unsigned int)
	??0QTextDocumentWriter@@QAE@ABVQString@@ABVQByteArray@@@Z @ 1742 NONAME ; QTextDocumentWriter::QTextDocumentWriter(class QString const &, class QByteArray const &)
	?isUndoRedoEnabled@QTextEdit@@QBE_NXZ @ 1743 NONAME ; bool QTextEdit::isUndoRedoEnabled(void) const
	?currentFont@QFontComboBox@@QBE?AVQFont@@XZ @ 1744 NONAME ; class QFont QFontComboBox::currentFont(void) const
	?setWeekdayTextFormat@QCalendarWidget@@QAEXW4DayOfWeek@Qt@@ABVQTextCharFormat@@@Z @ 1745 NONAME ; void QCalendarWidget::setWeekdayTextFormat(enum Qt::DayOfWeek, class QTextCharFormat const &)
	?horizontalScrollbarAction@QAbstractItemView@@MAEXH@Z @ 1746 NONAME ; void QAbstractItemView::horizontalScrollbarAction(int)
	?checkedId@QButtonGroup@@QBEHXZ @ 1747 NONAME ; int QButtonGroup::checkedId(void) const
	?minimumSizeHint@QLineEdit@@UBE?AVQSize@@XZ @ 1748 NONAME ; class QSize QLineEdit::minimumSizeHint(void) const
	?getStaticMetaObject@QTextDocumentLayout@@SAABUQMetaObject@@XZ @ 1749 NONAME ; struct QMetaObject const & QTextDocumentLayout::getStaticMetaObject(void)
	?drawPoints@QPaintEngine@@UAEXPBVQPoint@@H@Z @ 1750 NONAME ; void QPaintEngine::drawPoints(class QPoint const *, int)
	?brush@QPaintEngineState@@QBE?AVQBrush@@XZ @ 1751 NONAME ; class QBrush QPaintEngineState::brush(void) const
	?trUtf8@QGesture@@SA?AVQString@@PBD0@Z @ 1752 NONAME ; class QString QGesture::trUtf8(char const *, char const *)
	?takeAt@QBoxLayout@@UAEPAVQLayoutItem@@H@Z @ 1753 NONAME ; class QLayoutItem * QBoxLayout::takeAt(int)
	?qt_metacall@QMenuBar@@UAEHW4Call@QMetaObject@@HPAPAX@Z @ 1754 NONAME ; int QMenuBar::qt_metacall(enum QMetaObject::Call, int, void * *)
	?setFinalStop@QLinearGradient@@QAEXABVQPointF@@@Z @ 1755 NONAME ; void QLinearGradient::setFinalStop(class QPointF const &)
	?cornerWidget@QMenuBar@@QBEPAVQWidget@@W4Corner@Qt@@@Z @ 1756 NONAME ; class QWidget * QMenuBar::cornerWidget(enum Qt::Corner) const
	?sort@QStringListModel@@UAEXHW4SortOrder@Qt@@@Z @ 1757 NONAME ; void QStringListModel::sort(int, enum Qt::SortOrder)
	?setDate@QDateTimeEdit@@QAEXABVQDate@@@Z @ 1758 NONAME ; void QDateTimeEdit::setDate(class QDate const &)
	?columnResized@QTableView@@IAEXHHH@Z @ 1759 NONAME ; void QTableView::columnResized(int, int, int)
	?staticMetaObject@QStandardItemModel@@2UQMetaObject@@B @ 1760 NONAME ; struct QMetaObject const QStandardItemModel::staticMetaObject
	?basename@QFileDialogPrivate@@QBE?AVQString@@ABV2@@Z @ 1761 NONAME ; class QString QFileDialogPrivate::basename(class QString const &) const
	??_EQInputMethodEvent@@UAE@I@Z @ 1762 NONAME ; QInputMethodEvent::~QInputMethodEvent(unsigned int)
	?setOptions@QFontDialog@@QAEXV?$QFlags@W4FontDialogOption@QFontDialog@@@@@Z @ 1763 NONAME ; void QFontDialog::setOptions(class QFlags<enum QFontDialog::FontDialogOption>)
	?checkState@QTreeWidgetItem@@QBE?AW4CheckState@Qt@@H@Z @ 1764 NONAME ; enum Qt::CheckState QTreeWidgetItem::checkState(int) const
	?widget@QScrollArea@@QBEPAVQWidget@@XZ @ 1765 NONAME ; class QWidget * QScrollArea::widget(void) const
	?trUtf8@QTabBar@@SA?AVQString@@PBD0H@Z @ 1766 NONAME ; class QString QTabBar::trUtf8(char const *, char const *, int)
	?setElementPositionAt@QPainterPath@@QAEXHMM@Z @ 1767 NONAME ; void QPainterPath::setElementPositionAt(int, float, float)
	?closeActiveWindow@QWorkspace@@QAEXXZ @ 1768 NONAME ; void QWorkspace::closeActiveWindow(void)
	?style@QGraphicsWidget@@QBEPAVQStyle@@XZ @ 1769 NONAME ; class QStyle * QGraphicsWidget::style(void) const
	??0QIntValidator@@QAE@HHPAVQObject@@@Z @ 1770 NONAME ; QIntValidator::QIntValidator(int, int, class QObject *)
	?mouseReleaseEvent@QColumnViewGrip@@MAEXPAVQMouseEvent@@@Z @ 1771 NONAME ; void QColumnViewGrip::mouseReleaseEvent(class QMouseEvent *)
	?d_func@QTextFrame@@ABEPBVQTextFramePrivate@@XZ @ 1772 NONAME ; class QTextFramePrivate const * QTextFrame::d_func(void) const
	?y@QWidget@@QBEHXZ @ 1773 NONAME ; int QWidget::y(void) const
	?setFlow@QListView@@QAEXW4Flow@1@@Z @ 1774 NONAME ; void QListView::setFlow(enum QListView::Flow)
	?isReadOnly@QDirModel@@QBE_NXZ @ 1775 NONAME ; bool QDirModel::isReadOnly(void) const
	?lexemUntil@Parser@QCss@@QAE?AVQString@@W4TokenType@2@@Z @ 1776 NONAME ; class QString QCss::Parser::lexemUntil(enum QCss::TokenType)
	??1QTextObjectInterface@@UAE@XZ @ 1777 NONAME ; QTextObjectInterface::~QTextObjectInterface(void)
	?setButtons@QGraphicsSceneMouseEvent@@QAEXV?$QFlags@W4MouseButton@Qt@@@@@Z @ 1778 NONAME ; void QGraphicsSceneMouseEvent::setButtons(class QFlags<enum Qt::MouseButton>)
	?dispatchEnterLeave@QApplicationPrivate@@SAXPAVQWidget@@0@Z @ 1779 NONAME ; void QApplicationPrivate::dispatchEnterLeave(class QWidget *, class QWidget *)
	?stickyFocus@QGraphicsScene@@QBE_NXZ @ 1780 NONAME ; bool QGraphicsScene::stickyFocus(void) const
	?qt_metacast@QAction@@UAEPAXPBD@Z @ 1781 NONAME ; void * QAction::qt_metacast(char const *)
	?d_func@QPanGesture@@ABEPBVQPanGesturePrivate@@XZ @ 1782 NONAME ; class QPanGesturePrivate const * QPanGesture::d_func(void) const
	?qt_metacast@QStyleSheetStyle@@UAEPAXPBD@Z @ 1783 NONAME ; void * QStyleSheetStyle::qt_metacast(char const *)
	?setPath@QGraphicsPathItem@@QAEXABVQPainterPath@@@Z @ 1784 NONAME ; void QGraphicsPathItem::setPath(class QPainterPath const &)
	?setColor@QGraphicsDropShadowEffect@@QAEXABVQColor@@@Z @ 1785 NONAME ; void QGraphicsDropShadowEffect::setColor(class QColor const &)
	?sort@QSortFilterProxyModel@@UAEXHW4SortOrder@Qt@@@Z @ 1786 NONAME ; void QSortFilterProxyModel::sort(int, enum Qt::SortOrder)
	?clearFrame@QTextDocumentPrivate@@CAXPAVQTextFrame@@@Z @ 1787 NONAME ; void QTextDocumentPrivate::clearFrame(class QTextFrame *)
	?offset@QGraphicsPixmapItem@@QBE?AVQPointF@@XZ @ 1788 NONAME ; class QPointF QGraphicsPixmapItem::offset(void) const
	?availableGeometry@QDesktopWidget@@QBE?BVQRect@@ABVQPoint@@@Z @ 1789 NONAME ; class QRect const QDesktopWidget::availableGeometry(class QPoint const &) const
	?setExtraSelections@QPlainTextEdit@@QAEXABV?$QList@UExtraSelection@QTextEdit@@@@@Z @ 1790 NONAME ; void QPlainTextEdit::setExtraSelections(class QList<struct QTextEdit::ExtraSelection> const &)
	?setColumnHidden@QTreeView@@QAEXH_N@Z @ 1791 NONAME ; void QTreeView::setColumnHidden(int, bool)
	?timeLine@QGraphicsItemAnimation@@QBEPAVQTimeLine@@XZ @ 1792 NONAME ; class QTimeLine * QGraphicsItemAnimation::timeLine(void) const
	?tAtLength@QBezier@@QBEMM@Z @ 1793 NONAME ; float QBezier::tAtLength(float) const
	?isAncestorOf@QGraphicsItem@@QBE_NPBV1@@Z @ 1794 NONAME ; bool QGraphicsItem::isAncestorOf(class QGraphicsItem const *) const
	?redo@QUndoStack@@QAEXXZ @ 1795 NONAME ; void QUndoStack::redo(void)
	?setDirty@QPaintEngine@@QAEXV?$QFlags@W4DirtyFlag@QPaintEngine@@@@@Z @ 1796 NONAME ; void QPaintEngine::setDirty(class QFlags<enum QPaintEngine::DirtyFlag>)
	?state@QPaintEngineEx@@QAEPAVQPainterState@@XZ @ 1797 NONAME ; class QPainterState * QPaintEngineEx::state(void)
	??0QPixmap@@QAE@HH@Z @ 1798 NONAME ; QPixmap::QPixmap(int, int)
	?split@QBezier@@QBEXPAV1@0@Z @ 1799 NONAME ; void QBezier::split(class QBezier *, class QBezier *) const
	?sortOrder@QListWidget@@ABE?AW4SortOrder@Qt@@XZ @ 1800 NONAME ; enum Qt::SortOrder QListWidget::sortOrder(void) const
	?tr@QClipboard@@SA?AVQString@@PBD0@Z @ 1801 NONAME ; class QString QClipboard::tr(char const *, char const *)
	??1QStylePlugin@@UAE@XZ @ 1802 NONAME ; QStylePlugin::~QStylePlugin(void)
	?trUtf8@QProxyStyle@@SA?AVQString@@PBD0@Z @ 1803 NONAME ; class QString QProxyStyle::trUtf8(char const *, char const *)
	?angleChanged@QGraphicsRotation@@IAEXXZ @ 1804 NONAME ; void QGraphicsRotation::angleChanged(void)
	?horizontalOffset@QTableView@@MBEHXZ @ 1805 NONAME ; int QTableView::horizontalOffset(void) const
	?subWindowActivated@QMdiArea@@IAEXPAVQMdiSubWindow@@@Z @ 1806 NONAME ; void QMdiArea::subWindowActivated(class QMdiSubWindow *)
	??0QGraphicsGrayscaleEffect@@QAE@PAVQObject@@@Z @ 1807 NONAME ; QGraphicsGrayscaleEffect::QGraphicsGrayscaleEffect(class QObject *)
	?tr@QItemDelegate@@SA?AVQString@@PBD0H@Z @ 1808 NONAME ; class QString QItemDelegate::tr(char const *, char const *, int)
	?isObscuredBy@QGraphicsPolygonItem@@UBE_NPBVQGraphicsItem@@@Z @ 1809 NONAME ; bool QGraphicsPolygonItem::isObscuredBy(class QGraphicsItem const *) const
	?anchorClicked@QTextBrowser@@IAEXABVQUrl@@@Z @ 1810 NONAME ; void QTextBrowser::anchorClicked(class QUrl const &)
	?childEvent@QMdiSubWindow@@MAEXPAVQChildEvent@@@Z @ 1811 NONAME ; void QMdiSubWindow::childEvent(class QChildEvent *)
	?enterEvent@QMenu@@MAEXPAVQEvent@@@Z @ 1812 NONAME ; void QMenu::enterEvent(class QEvent *)
	?ensureInputCapabilitiesChanged@QCoeFepInputContext@@AAEXXZ @ 1813 NONAME ; void QCoeFepInputContext::ensureInputCapabilitiesChanged(void)
	?_q_directoryChanged@QFileSystemModelPrivate@@QAEXABVQString@@ABVQStringList@@@Z @ 1814 NONAME ; void QFileSystemModelPrivate::_q_directoryChanged(class QString const &, class QStringList const &)
	?tr@QSwipeGesture@@SA?AVQString@@PBD0@Z @ 1815 NONAME ; class QString QSwipeGesture::tr(char const *, char const *)
	?d_func@QGraphicsPixelizeEffect@@AAEPAVQGraphicsPixelizeEffectPrivate@@XZ @ 1816 NONAME ; class QGraphicsPixelizeEffectPrivate * QGraphicsPixelizeEffect::d_func(void)
	?completer@QComboBox@@QBEPAVQCompleter@@XZ @ 1817 NONAME ; class QCompleter * QComboBox::completer(void) const
	?testOption@QMdiSubWindow@@QBE_NW4SubWindowOption@1@@Z @ 1818 NONAME ; bool QMdiSubWindow::testOption(enum QMdiSubWindow::SubWindowOption) const
	??1QColumnViewGrip@@UAE@XZ @ 1819 NONAME ; QColumnViewGrip::~QColumnViewGrip(void)
	?mapRectToScene@QGraphicsItem@@QBE?AVQRectF@@ABV2@@Z @ 1820 NONAME ; class QRectF QGraphicsItem::mapRectToScene(class QRectF const &) const
	?hasWindingFill@QVectorPath@@QBE_NXZ @ 1821 NONAME ; bool QVectorPath::hasWindingFill(void) const
	?staticMetaObject@QProgressDialog@@2UQMetaObject@@B @ 1822 NONAME ; struct QMetaObject const QProgressDialog::staticMetaObject
	?iconText@QAction@@QBE?AVQString@@XZ @ 1823 NONAME ; class QString QAction::iconText(void) const
	?qt_metacall@QClipboard@@UAEHW4Call@QMetaObject@@HPAPAX@Z @ 1824 NONAME ; int QClipboard::qt_metacall(enum QMetaObject::Call, int, void * *)
	??0QMenu@@QAE@ABVQString@@PAVQWidget@@@Z @ 1825 NONAME ; QMenu::QMenu(class QString const &, class QWidget *)
	??0QStyleOptionMenuItem@@QAE@XZ @ 1826 NONAME ; QStyleOptionMenuItem::QStyleOptionMenuItem(void)
	?write@QTableWidgetItem@@UBEXAAVQDataStream@@@Z @ 1827 NONAME ; void QTableWidgetItem::write(class QDataStream &) const
	??D@YA?AVQPoint@@ABV0@ABVQTransform@@@Z @ 1828 NONAME ; class QPoint operator*(class QPoint const &, class QTransform const &)
	?verticalScrollbarAction@QTableView@@MAEXH@Z @ 1829 NONAME ; void QTableView::verticalScrollbarAction(int)
	?mergeCurrentCharFormat@QPlainTextEdit@@QAEXABVQTextCharFormat@@@Z @ 1830 NONAME ; void QPlainTextEdit::mergeCurrentCharFormat(class QTextCharFormat const &)
	??0QTreeWidgetItemIterator@@QAE@PAVQTreeWidget@@V?$QFlags@W4IteratorFlag@QTreeWidgetItemIterator@@@@@Z @ 1831 NONAME ; QTreeWidgetItemIterator::QTreeWidgetItemIterator(class QTreeWidget *, class QFlags<enum QTreeWidgetItemIterator::IteratorFlag>)
	?mousePressEvent@QTreeView@@MAEXPAVQMouseEvent@@@Z @ 1832 NONAME ; void QTreeView::mousePressEvent(class QMouseEvent *)
	?rootFrame@QTextDocument@@QBEPAVQTextFrame@@XZ @ 1833 NONAME ; class QTextFrame * QTextDocument::rootFrame(void) const
	?trUtf8@QAbstractItemDelegate@@SA?AVQString@@PBD0H@Z @ 1834 NONAME ; class QString QAbstractItemDelegate::trUtf8(char const *, char const *, int)
	??0QTextDocumentFragment@@QAE@ABV0@@Z @ 1835 NONAME ; QTextDocumentFragment::QTextDocumentFragment(class QTextDocumentFragment const &)
	?setButtonDownPos@QGraphicsSceneMouseEvent@@QAEXW4MouseButton@Qt@@ABVQPointF@@@Z @ 1836 NONAME ; void QGraphicsSceneMouseEvent::setButtonDownPos(enum Qt::MouseButton, class QPointF const &)
	?event@QCommandLinkButton@@MAE_NPAVQEvent@@@Z @ 1837 NONAME ; bool QCommandLinkButton::event(class QEvent *)
	?trUtf8@QFontDialog@@SA?AVQString@@PBD0@Z @ 1838 NONAME ; class QString QFontDialog::trUtf8(char const *, char const *)
	?tr@QButtonGroup@@SA?AVQString@@PBD0@Z @ 1839 NONAME ; class QString QButtonGroup::tr(char const *, char const *)
	?setAlignment@QGraphicsLinearLayout@@QAEXPAVQGraphicsLayoutItem@@V?$QFlags@W4AlignmentFlag@Qt@@@@@Z @ 1840 NONAME ; void QGraphicsLinearLayout::setAlignment(class QGraphicsLayoutItem *, class QFlags<enum Qt::AlignmentFlag>)
	?supportsThreadedFontRendering@QFontDatabase@@SA_NXZ @ 1841 NONAME ; bool QFontDatabase::supportsThreadedFontRendering(void)
	?setWorldMatrix@QPainter@@QAEXABVQMatrix@@_N@Z @ 1842 NONAME ; void QPainter::setWorldMatrix(class QMatrix const &, bool)
	?mouseMoveEvent@QDial@@MAEXPAVQMouseEvent@@@Z @ 1843 NONAME ; void QDial::mouseMoveEvent(class QMouseEvent *)
	?invalidate@QGraphicsLayout@@UAEXXZ @ 1844 NONAME ; void QGraphicsLayout::invalidate(void)
	??0QAction@@QAE@ABVQIcon@@ABVQString@@PAVQObject@@@Z @ 1845 NONAME ; QAction::QAction(class QIcon const &, class QString const &, class QObject *)
	?geometry@QWindowSurface@@QBE?AVQRect@@XZ @ 1846 NONAME ; class QRect QWindowSurface::geometry(void) const
	?metaObject@QIntValidator@@UBEPBUQMetaObject@@XZ @ 1847 NONAME ; struct QMetaObject const * QIntValidator::metaObject(void) const
	?createStandardContextMenu@QTextEdit@@QAEPAVQMenu@@XZ @ 1848 NONAME ; class QMenu * QTextEdit::createStandardContextMenu(void)
	?create_sys@QWidgetPrivate@@QAEXPAVCCoeControl@@_N1@Z @ 1849 NONAME ; void QWidgetPrivate::create_sys(class CCoeControl *, bool, bool)
	?insertColumns@QStandardItem@@QAEXHH@Z @ 1850 NONAME ; void QStandardItem::insertColumns(int, int)
	?qSmartMaxSize@@YA?AVQSize@@PBVQWidget@@V?$QFlags@W4AlignmentFlag@Qt@@@@@Z @ 1851 NONAME ; class QSize qSmartMaxSize(class QWidget const *, class QFlags<enum Qt::AlignmentFlag>)
	??0QGraphicsEllipseItem@@QAE@ABVQRectF@@PAVQGraphicsItem@@PAVQGraphicsScene@@@Z @ 1852 NONAME ; QGraphicsEllipseItem::QGraphicsEllipseItem(class QRectF const &, class QGraphicsItem *, class QGraphicsScene *)
	?themeName@QIcon@@SA?AVQString@@XZ @ 1853 NONAME ; class QString QIcon::themeName(void)
	?copy@QLineEdit@@QBEXXZ @ 1854 NONAME ; void QLineEdit::copy(void) const
	??0QWingedEdge@@QAE@ABVQPainterPath@@0@Z @ 1855 NONAME ; QWingedEdge::QWingedEdge(class QPainterPath const &, class QPainterPath const &)
	?setWordWrap@QTreeView@@QAEX_N@Z @ 1856 NONAME ; void QTreeView::setWordWrap(bool)
	?setCheckState@QListWidgetItem@@QAEXW4CheckState@Qt@@@Z @ 1857 NONAME ; void QListWidgetItem::setCheckState(enum Qt::CheckState)
	?resolveSymlinks@QDirModel@@QBE_NXZ @ 1858 NONAME ; bool QDirModel::resolveSymlinks(void) const
	?edge@QWingedEdge@@QAEPAVQPathEdge@@H@Z @ 1859 NONAME ; class QPathEdge * QWingedEdge::edge(int)
	??0QZipReader@@QAE@ABVQString@@V?$QFlags@W4OpenModeFlag@QIODevice@@@@@Z @ 1860 NONAME ; QZipReader::QZipReader(class QString const &, class QFlags<enum QIODevice::OpenModeFlag>)
	?width@QTextLine@@QBEMXZ @ 1861 NONAME ; float QTextLine::width(void) const
	?detach_helper@QPicture@@AAEXXZ @ 1862 NONAME ; void QPicture::detach_helper(void)
	??6@YAAAVQDataStream@@AAV0@ABVQPixmap@@@Z @ 1863 NONAME ; class QDataStream & operator<<(class QDataStream &, class QPixmap const &)
	?setWindowIcon_helper@QWidgetPrivate@@QAEXXZ @ 1864 NONAME ; void QWidgetPrivate::setWindowIcon_helper(void)
	?getStaticMetaObject@QListWidget@@SAABUQMetaObject@@XZ @ 1865 NONAME ; struct QMetaObject const & QListWidget::getStaticMetaObject(void)
	?userState@QTextBlock@@QBEHXZ @ 1866 NONAME ; int QTextBlock::userState(void) const
	?qt_metacast@QTextTable@@UAEPAXPBD@Z @ 1867 NONAME ; void * QTextTable::qt_metacast(char const *)
	?isModified@QLineEdit@@QBE_NXZ @ 1868 NONAME ; bool QLineEdit::isModified(void) const
	?setText@QStandardItem@@QAEXABVQString@@@Z @ 1869 NONAME ; void QStandardItem::setText(class QString const &)
	??6@YAAAVQDataStream@@AAV0@ABVQMatrix4x4@@@Z @ 1870 NONAME ; class QDataStream & operator<<(class QDataStream &, class QMatrix4x4 const &)
	?isTableFormat@QTextFormat@@QBE_NXZ @ 1871 NONAME ; bool QTextFormat::isTableFormat(void) const
	?getStaticMetaObject@QPanGesture@@SAABUQMetaObject@@XZ @ 1872 NONAME ; struct QMetaObject const & QPanGesture::getStaticMetaObject(void)
	?currentTable@QTextCursor@@QBEPAVQTextTable@@XZ @ 1873 NONAME ; class QTextTable * QTextCursor::currentTable(void) const
	??1QPixmapDropShadowFilter@@UAE@XZ @ 1874 NONAME ; QPixmapDropShadowFilter::~QPixmapDropShadowFilter(void)
	?getEnvironmentVariable@QFileDialogPrivate@@QAE?AVQString@@ABV2@@Z @ 1875 NONAME ; class QString QFileDialogPrivate::getEnvironmentVariable(class QString const &)
	?setHsv@QColor@@QAEXHHHH@Z @ 1876 NONAME ; void QColor::setHsv(int, int, int, int)
	?setSelected@QListWidgetItem@@QAEX_N@Z @ 1877 NONAME ; void QListWidgetItem::setSelected(bool)
	?geometry@QSpacerItem@@UBE?AVQRect@@XZ @ 1878 NONAME ; class QRect QSpacerItem::geometry(void) const
	?columnSpan@QTextTableCell@@QBEHXZ @ 1879 NONAME ; int QTextTableCell::columnSpan(void) const
	?metaObject@QTextBrowser@@UBEPBUQMetaObject@@XZ @ 1880 NONAME ; struct QMetaObject const * QTextBrowser::metaObject(void) const
	?boundingRect@QFontMetrics@@QBE?AVQRect@@ABV2@HABVQString@@HPAH@Z @ 1881 NONAME ; class QRect QFontMetrics::boundingRect(class QRect const &, int, class QString const &, int, int *) const
	?estimateItems@QGraphicsSceneIndex@@UBE?AV?$QList@PAVQGraphicsItem@@@@ABVQPointF@@W4SortOrder@Qt@@@Z @ 1882 NONAME ; class QList<class QGraphicsItem *> QGraphicsSceneIndex::estimateItems(class QPointF const &, enum Qt::SortOrder) const
	??9QGradient@@QBE_NABV0@@Z @ 1883 NONAME ; bool QGradient::operator!=(class QGradient const &) const
	?position@QTextLine@@QBE?AVQPointF@@XZ @ 1884 NONAME ; class QPointF QTextLine::position(void) const
	?trUtf8@QSound@@SA?AVQString@@PBD0@Z @ 1885 NONAME ; class QString QSound::trUtf8(char const *, char const *)
	?drawPolyline@QPainter@@QAEXPBVQPointF@@H@Z @ 1886 NONAME ; void QPainter::drawPolyline(class QPointF const *, int)
	?setCursor_sys@QWidgetPrivate@@QAEXABVQCursor@@@Z @ 1887 NONAME ; void QWidgetPrivate::setCursor_sys(class QCursor const &)
	?tr@QSessionManager@@SA?AVQString@@PBD0H@Z @ 1888 NONAME ; class QString QSessionManager::tr(char const *, char const *, int)
	?get@QStatePrivate@@SAPAV1@PAVQState@@@Z @ 1889 NONAME ; class QStatePrivate * QStatePrivate::get(class QState *)
	?setEditText@QComboBox@@QAEXABVQString@@@Z @ 1890 NONAME ; void QComboBox::setEditText(class QString const &)
	?navigationMode@QApplicationPrivate@@2W4NavigationMode@Qt@@A @ 1891 NONAME ; enum Qt::NavigationMode QApplicationPrivate::navigationMode
	??_EQTextBrowser@@UAE@I@Z @ 1892 NONAME ; QTextBrowser::~QTextBrowser(unsigned int)
	?d_func@QGraphicsBlurEffect@@AAEPAVQGraphicsBlurEffectPrivate@@XZ @ 1893 NONAME ; class QGraphicsBlurEffectPrivate * QGraphicsBlurEffect::d_func(void)
	?getOpaqueChildren@QWidgetPrivate@@QBEABVQRegion@@XZ @ 1894 NONAME ; class QRegion const & QWidgetPrivate::getOpaqueChildren(void) const
	?trUtf8@QWidgetAction@@SA?AVQString@@PBD0@Z @ 1895 NONAME ; class QString QWidgetAction::trUtf8(char const *, char const *)
	?end@QLineControl@@QBEHXZ @ 1896 NONAME ; int QLineControl::end(void) const
	?addToGroup@QGraphicsItemGroup@@QAEXPAVQGraphicsItem@@@Z @ 1897 NONAME ; void QGraphicsItemGroup::addToGroup(class QGraphicsItem *)
	?d_func@QSwipeGesture@@ABEPBVQSwipeGesturePrivate@@XZ @ 1898 NONAME ; class QSwipeGesturePrivate const * QSwipeGesture::d_func(void) const
	?setNumColumns@QTextLine@@QAEXH@Z @ 1899 NONAME ; void QTextLine::setNumColumns(int)
	?indexes@QItemSelection@@QBE?AV?$QList@VQModelIndex@@@@XZ @ 1900 NONAME ; class QList<class QModelIndex> QItemSelection::indexes(void) const
	?atBlockEnd@QTextCursor@@QBE_NXZ @ 1901 NONAME ; bool QTextCursor::atBlockEnd(void) const
	?effectiveOpacity@QGraphicsItemPrivate@@QBEMXZ @ 1902 NONAME ; float QGraphicsItemPrivate::effectiveOpacity(void) const
	?pixelMetric@QCommonStyle@@UBEHW4PixelMetric@QStyle@@PBVQStyleOption@@PBVQWidget@@@Z @ 1903 NONAME ; int QCommonStyle::pixelMetric(enum QStyle::PixelMetric, class QStyleOption const *, class QWidget const *) const
	?stop@QSound@@QAEXXZ @ 1904 NONAME ; void QSound::stop(void)
	?metaObject@QComboBoxPrivateScroller@@UBEPBUQMetaObject@@XZ @ 1905 NONAME ; struct QMetaObject const * QComboBoxPrivateScroller::metaObject(void) const
	?description@QInputContextFactory@@SA?AVQString@@ABV2@@Z @ 1906 NONAME ; class QString QInputContextFactory::description(class QString const &)
	?addEdge@QWingedEdge@@QAEHABVQPointF@@0PBVQBezier@@MM@Z @ 1907 NONAME ; int QWingedEdge::addEdge(class QPointF const &, class QPointF const &, class QBezier const *, float, float)
	?insertItem@QGraphicsLinearLayout@@QAEXHPAVQGraphicsLayoutItem@@@Z @ 1908 NONAME ; void QGraphicsLinearLayout::insertItem(int, class QGraphicsLayoutItem *)
	??0QKeySequence@@QAE@ABVQString@@@Z @ 1909 NONAME ; QKeySequence::QKeySequence(class QString const &)
	??0QTextImageFormat@@IAE@ABVQTextFormat@@@Z @ 1910 NONAME ; QTextImageFormat::QTextImageFormat(class QTextFormat const &)
	?setVerticalHeaderLabels@QStandardItemModel@@QAEXABVQStringList@@@Z @ 1911 NONAME ; void QStandardItemModel::setVerticalHeaderLabels(class QStringList const &)
	??_EQSortFilterProxyModel@@UAE@I@Z @ 1912 NONAME ; QSortFilterProxyModel::~QSortFilterProxyModel(unsigned int)
	?paintEvent@QWorkspace@@MAEXPAVQPaintEvent@@@Z @ 1913 NONAME ; void QWorkspace::paintEvent(class QPaintEvent *)
	?handleCommand@QSoftKeyManager@@SA_NH@Z @ 1914 NONAME ; bool QSoftKeyManager::handleCommand(int)
	?beginEditBlock@QTextDocumentPrivate@@QAEXXZ @ 1915 NONAME ; void QTextDocumentPrivate::beginEditBlock(void)
	??0QPaintEngineEx@@IAE@AAVQPaintEngineExPrivate@@@Z @ 1916 NONAME ; QPaintEngineEx::QPaintEngineEx(class QPaintEngineExPrivate &)
	?setDescription@QPictureIO@@QAEXABVQString@@@Z @ 1917 NONAME ; void QPictureIO::setDescription(class QString const &)
	?clone@QTreeWidgetItem@@UBEPAV1@XZ @ 1918 NONAME ; class QTreeWidgetItem * QTreeWidgetItem::clone(void) const
	?qt_metacall@QGroupBox@@UAEHW4Call@QMetaObject@@HPAPAX@Z @ 1919 NONAME ; int QGroupBox::qt_metacall(enum QMetaObject::Call, int, void * *)
	?headerTextFormat@QCalendarWidget@@QBE?AVQTextCharFormat@@XZ @ 1920 NONAME ; class QTextCharFormat QCalendarWidget::headerTextFormat(void) const
	?opaqueResize@QSplitter@@QBE_NXZ @ 1921 NONAME ; bool QSplitter::opaqueResize(void) const
	?setClickable@QHeaderView@@QAEX_N@Z @ 1922 NONAME ; void QHeaderView::setClickable(bool)
	?mapToScene@QGraphicsItem@@QBE?AVQPointF@@MM@Z @ 1923 NONAME ; class QPointF QGraphicsItem::mapToScene(float, float) const
	?sizeHintForIndex@QAbstractItemView@@QBE?AVQSize@@ABVQModelIndex@@@Z @ 1924 NONAME ; class QSize QAbstractItemView::sizeHintForIndex(class QModelIndex const &) const
	?setTabStop@QTextOption@@QAEXM@Z @ 1925 NONAME ; void QTextOption::setTabStop(float)
	?textFromDateTime@QDateTimeEdit@@MBE?AVQString@@ABVQDateTime@@@Z @ 1926 NONAME ; class QString QDateTimeEdit::textFromDateTime(class QDateTime const &) const
	?tab@QDockAreaLayoutInfo@@QAEXHPAVQLayoutItem@@@Z @ 1927 NONAME ; void QDockAreaLayoutInfo::tab(int, class QLayoutItem *)
	?setText@QListWidgetItem@@QAEXABVQString@@@Z @ 1928 NONAME ; void QListWidgetItem::setText(class QString const &)
	?setCommitString@QInputMethodEvent@@QAEXABVQString@@HH@Z @ 1929 NONAME ; void QInputMethodEvent::setCommitString(class QString const &, int, int)
	?qt_qscrollbarStyleOption@@YA?AVQStyleOptionSlider@@PAVQScrollBar@@@Z @ 1930 NONAME ; class QStyleOptionSlider qt_qscrollbarStyleOption(class QScrollBar *)
	?isEmpty@QWidgetItem@@UBE_NXZ @ 1931 NONAME ; bool QWidgetItem::isEmpty(void) const
	?brush@QPalette@@QBEABVQBrush@@W4ColorGroup@1@W4ColorRole@1@@Z @ 1932 NONAME ; class QBrush const & QPalette::brush(enum QPalette::ColorGroup, enum QPalette::ColorRole) const
	?setRevision@QTextBlock@@QAEXH@Z @ 1933 NONAME ; void QTextBlock::setRevision(int)
	?detailedText@QMessageBox@@QBE?AVQString@@XZ @ 1934 NONAME ; class QString QMessageBox::detailedText(void) const
	?toPoint@QVector4D@@QBE?AVQPoint@@XZ @ 1935 NONAME ; class QPoint QVector4D::toPoint(void) const
	?contentsRect@QGraphicsLayoutItem@@QBE?AVQRectF@@XZ @ 1936 NONAME ; class QRectF QGraphicsLayoutItem::contentsRect(void) const
	??0QWidgetAction@@QAE@PAVQObject@@@Z @ 1937 NONAME ; QWidgetAction::QWidgetAction(class QObject *)
	?contentsChanged@QTextDocumentPrivate@@AAEXXZ @ 1938 NONAME ; void QTextDocumentPrivate::contentsChanged(void)
	?extension@QGraphicsPathItem@@MBE?AVQVariant@@ABV2@@Z @ 1939 NONAME ; class QVariant QGraphicsPathItem::extension(class QVariant const &) const
	?minimumTitleWidth@QDockWidgetLayout@@QBEHXZ @ 1940 NONAME ; int QDockWidgetLayout::minimumTitleWidth(void) const
	?m31@QTransform@@QBEMXZ @ 1941 NONAME ; float QTransform::m31(void) const
	?lengthSquared@QVector2D@@QBEMXZ @ 1942 NONAME ; float QVector2D::lengthSquared(void) const
	??0QVector3D@@QAE@ABVQVector2D@@@Z @ 1943 NONAME ; QVector3D::QVector3D(class QVector2D const &)
	?before@QActionEvent@@QBEPAVQAction@@XZ @ 1944 NONAME ; class QAction * QActionEvent::before(void) const
	??0QGraphicsSceneContextMenuEvent@@QAE@W4Type@QEvent@@@Z @ 1945 NONAME ; QGraphicsSceneContextMenuEvent::QGraphicsSceneContextMenuEvent(enum QEvent::Type)
	?updateRequest@QTextControl@@IAEXABVQRectF@@@Z @ 1946 NONAME ; void QTextControl::updateRequest(class QRectF const &)
	?setSelectionModel@QTreeWidget@@UAEXPAVQItemSelectionModel@@@Z @ 1947 NONAME ; void QTreeWidget::setSelectionModel(class QItemSelectionModel *)
	?minimumSizeHint@QInputDialog@@UBE?AVQSize@@XZ @ 1948 NONAME ; class QSize QInputDialog::minimumSizeHint(void) const
	??4QIcon@@QAEAAV0@ABV0@@Z @ 1949 NONAME ; class QIcon & QIcon::operator=(class QIcon const &)
	??0QGraphicsLayoutItem@@IAE@AAVQGraphicsLayoutItemPrivate@@@Z @ 1950 NONAME ; QGraphicsLayoutItem::QGraphicsLayoutItem(class QGraphicsLayoutItemPrivate &)
	?fill@QPixmap@@QAEXABVQColor@@@Z @ 1951 NONAME ; void QPixmap::fill(class QColor const &)
	?qDrawWinButton@@YAXPAVQPainter@@ABVQRect@@ABVQPalette@@_NPBVQBrush@@@Z @ 1952 NONAME ; void qDrawWinButton(class QPainter *, class QRect const &, class QPalette const &, bool, class QBrush const *)
	?joinStyle@QPen@@QBE?AW4PenJoinStyle@Qt@@XZ @ 1953 NONAME ; enum Qt::PenJoinStyle QPen::joinStyle(void) const
	?trUtf8@QLayout@@SA?AVQString@@PBD0@Z @ 1954 NONAME ; class QString QLayout::trUtf8(char const *, char const *)
	?uniformRowHeights@QTreeView@@QBE_NXZ @ 1955 NONAME ; bool QTreeView::uniformRowHeights(void) const
	?itemIndexMethod@QGraphicsScene@@QBE?AW4ItemIndexMethod@1@XZ @ 1956 NONAME ; enum QGraphicsScene::ItemIndexMethod QGraphicsScene::itemIndexMethod(void) const
	?blockBoundingRect@QTextDocumentLayout@@UBE?AVQRectF@@ABVQTextBlock@@@Z @ 1957 NONAME ; class QRectF QTextDocumentLayout::blockBoundingRect(class QTextBlock const &) const
	??YQRegion@@QAEAAV0@ABVQRect@@@Z @ 1958 NONAME ; class QRegion & QRegion::operator+=(class QRect const &)
	?destroyItemGroup@QGraphicsScene@@QAEXPAVQGraphicsItemGroup@@@Z @ 1959 NONAME ; void QGraphicsScene::destroyItemGroup(class QGraphicsItemGroup *)
	?size@QDockAreaLayoutInfo@@QBE?AVQSize@@XZ @ 1960 NONAME ; class QSize QDockAreaLayoutInfo::size(void) const
	??5@YAAAVQDataStream@@AAV0@AAVQTextFormat@@@Z @ 1961 NONAME ; class QDataStream & operator>>(class QDataStream &, class QTextFormat &)
	??_EQDoubleValidator@@UAE@I@Z @ 1962 NONAME ; QDoubleValidator::~QDoubleValidator(unsigned int)
	?supportsOption@QImageIOHandler@@UBE_NW4ImageOption@1@@Z @ 1963 NONAME ; bool QImageIOHandler::supportsOption(enum QImageIOHandler::ImageOption) const
	?show_recursive@QWidgetPrivate@@QAEXXZ @ 1964 NONAME ; void QWidgetPrivate::show_recursive(void)
	?backgroundVisible@QPlainTextEdit@@QBE_NXZ @ 1965 NONAME ; bool QPlainTextEdit::backgroundVisible(void) const
	?sizeHint@QLabel@@UBE?AVQSize@@XZ @ 1966 NONAME ; class QSize QLabel::sizeHint(void) const
	?getStaticMetaObject@QMenu@@SAABUQMetaObject@@XZ @ 1967 NONAME ; struct QMetaObject const & QMenu::getStaticMetaObject(void)
	?staticMetaObject@QDirModel@@2UQMetaObject@@B @ 1968 NONAME ; struct QMetaObject const QDirModel::staticMetaObject
	??BQVector3D@@QBE?AVQVariant@@XZ @ 1969 NONAME ; QVector3D::operator class QVariant(void) const
	?d_func@QPainter@@ABEPBVQPainterPrivate@@XZ @ 1970 NONAME ; class QPainterPrivate const * QPainter::d_func(void) const
	?currentIndex@QCompleter@@QBE?AVQModelIndex@@XZ @ 1971 NONAME ; class QModelIndex QCompleter::currentIndex(void) const
	?setGraphicsItem@QGraphicsLayoutItem@@IAEXPAVQGraphicsItem@@@Z @ 1972 NONAME ; void QGraphicsLayoutItem::setGraphicsItem(class QGraphicsItem *)
	?setBorderBrush@QTextFrameFormat@@QAEXABVQBrush@@@Z @ 1973 NONAME ; void QTextFrameFormat::setBorderBrush(class QBrush const &)
	?isMovable@QTabBar@@QBE_NXZ @ 1974 NONAME ; bool QTabBar::isMovable(void) const
	?columnCount@QStandardItemModel@@UBEHABVQModelIndex@@@Z @ 1975 NONAME ; int QStandardItemModel::columnCount(class QModelIndex const &) const
	?rotate@QMatrix4x4@@QAEAAV1@MMMM@Z @ 1976 NONAME ; class QMatrix4x4 & QMatrix4x4::rotate(float, float, float, float)
	?updateGapIndicator@QMainWindowLayout@@QAEXXZ @ 1977 NONAME ; void QMainWindowLayout::updateGapIndicator(void)
	?alignment@QTextTableFormat@@QBE?AV?$QFlags@W4AlignmentFlag@Qt@@@@XZ @ 1978 NONAME ; class QFlags<enum Qt::AlignmentFlag> QTextTableFormat::alignment(void) const
	?copy@QRegion@@ABE?AV1@XZ @ 1979 NONAME ; class QRegion QRegion::copy(void) const
	?height@QLineControl@@QBEHXZ @ 1980 NONAME ; int QLineControl::height(void) const
	?data_ptr@QPixmap@@QAEAAV?$QExplicitlySharedDataPointer@VQPixmapData@@@@XZ @ 1981 NONAME ; class QExplicitlySharedDataPointer<class QPixmapData> & QPixmap::data_ptr(void)
	?valueFromText@QSpinBox@@MBEHABVQString@@@Z @ 1982 NONAME ; int QSpinBox::valueFromText(class QString const &) const
	?completionCount@QCompleter@@QBEHXZ @ 1983 NONAME ; int QCompleter::completionCount(void) const
	??_EQBoxLayout@@UAE@I@Z @ 1984 NONAME ; QBoxLayout::~QBoxLayout(unsigned int)
	?normalized@QVector4D@@QBE?AV1@XZ @ 1985 NONAME ; class QVector4D QVector4D::normalized(void) const
	?glyphCache@QFontEngine@@QBEPAVQFontEngineGlyphCache@@W4Type@2@ABVQTransform@@@Z @ 1986 NONAME ; class QFontEngineGlyphCache * QFontEngine::glyphCache(enum QFontEngineGlyphCache::Type, class QTransform const &) const
	?getStaticMetaObject@QActionGroup@@SAABUQMetaObject@@XZ @ 1987 NONAME ; struct QMetaObject const & QActionGroup::getStaticMetaObject(void)
	??9QItemSelectionRange@@QBE_NABV0@@Z @ 1988 NONAME ; bool QItemSelectionRange::operator!=(class QItemSelectionRange const &) const
	?visualRegionForSelection@QHeaderView@@MBE?AVQRegion@@ABVQItemSelection@@@Z @ 1989 NONAME ; class QRegion QHeaderView::visualRegionForSelection(class QItemSelection const &) const
	??1QLinearGradient@@QAE@XZ @ 1990 NONAME ; QLinearGradient::~QLinearGradient(void)
	?navigationMode@QApplication@@SA?AW4NavigationMode@Qt@@XZ @ 1991 NONAME ; enum Qt::NavigationMode QApplication::navigationMode(void)
	?takeRow@QStandardItem@@QAE?AV?$QList@PAVQStandardItem@@@@H@Z @ 1992 NONAME ; class QList<class QStandardItem *> QStandardItem::takeRow(int)
	?setLayoutData@QTextFrame@@QAEXPAVQTextFrameLayoutData@@@Z @ 1993 NONAME ; void QTextFrame::setLayoutData(class QTextFrameLayoutData *)
	?textKeys@QImage@@QBE?AVQStringList@@XZ @ 1994 NONAME ; class QStringList QImage::textKeys(void) const
	?height@QPixmap@@QBEHXZ @ 1995 NONAME ; int QPixmap::height(void) const
	?setPreeditArea@QLineControl@@QAEXHABVQString@@@Z @ 1996 NONAME ; void QLineControl::setPreeditArea(int, class QString const &)
	?trUtf8@QCompleter@@SA?AVQString@@PBD0@Z @ 1997 NONAME ; class QString QCompleter::trUtf8(char const *, char const *)
	?mouseReleaseEvent@QLabel@@MAEXPAVQMouseEvent@@@Z @ 1998 NONAME ; void QLabel::mouseReleaseEvent(class QMouseEvent *)
	?toggle@QAction@@QAEXXZ @ 1999 NONAME ; void QAction::toggle(void)
	?init@QAbstractItemViewPrivate@@QAEXXZ @ 2000 NONAME ; void QAbstractItemViewPrivate::init(void)
	?setItemDelegateForColumn@QAbstractItemView@@QAEXHPAVQAbstractItemDelegate@@@Z @ 2001 NONAME ; void QAbstractItemView::setItemDelegateForColumn(int, class QAbstractItemDelegate *)
	?createMaskFromColor@QPixmap@@QBE?AVQBitmap@@ABVQColor@@@Z @ 2002 NONAME ; class QBitmap QPixmap::createMaskFromColor(class QColor const &) const
	?columnStretchFactor@QGraphicsGridLayout@@QBEHH@Z @ 2003 NONAME ; int QGraphicsGridLayout::columnStretchFactor(int) const
	?isIdentity@QTransform@@QBE_NXZ @ 2004 NONAME ; bool QTransform::isIdentity(void) const
	?drawPie@QPainter@@QAEXHHHHHH@Z @ 2005 NONAME ; void QPainter::drawPie(int, int, int, int, int, int)
	?cubicTo@QStrokerOps@@QAEXMMMMMM@Z @ 2006 NONAME ; void QStrokerOps::cubicTo(float, float, float, float, float, float)
	?setFocalPoint@QRadialGradient@@QAEXMM@Z @ 2007 NONAME ; void QRadialGradient::setFocalPoint(float, float)
	?type@QGraphicsEllipseItem@@UBEHXZ @ 2008 NONAME ; int QGraphicsEllipseItem::type(void) const
	?insertItem@QListWidget@@QAEXHABVQString@@@Z @ 2009 NONAME ; void QListWidget::insertItem(int, class QString const &)
	?directory@QFileDialog@@QBE?AVQDir@@XZ @ 2010 NONAME ; class QDir QFileDialog::directory(void) const
	?d_func@QTextObject@@AAEPAVQTextObjectPrivate@@XZ @ 2011 NONAME ; class QTextObjectPrivate * QTextObject::d_func(void)
	??0QGraphicsEffect@@QAE@PAVQObject@@@Z @ 2012 NONAME ; QGraphicsEffect::QGraphicsEffect(class QObject *)
	?inverted@QMatrix@@QBE?AV1@PA_N@Z @ 2013 NONAME ; class QMatrix QMatrix::inverted(bool *) const
	?replacementStart@QInputMethodEvent@@QBEHXZ @ 2014 NONAME ; int QInputMethodEvent::replacementStart(void) const
	?keyPressEvent@QComboBox@@MAEXPAVQKeyEvent@@@Z @ 2015 NONAME ; void QComboBox::keyPressEvent(class QKeyEvent *)
	?fontKerning@QTextCharFormat@@QBE_NXZ @ 2016 NONAME ; bool QTextCharFormat::fontKerning(void) const
	?calculateTrunk@QGraphicsAnchorLayoutPrivate@@QAE_NW4Orientation@1@ABVGraphPath@@ABV?$QList@PAUQSimplexConstraint@@@@ABV?$QList@PAUAnchorData@@@@@Z @ 2017 NONAME ; bool QGraphicsAnchorLayoutPrivate::calculateTrunk(enum QGraphicsAnchorLayoutPrivate::Orientation, class GraphPath const &, class QList<struct QSimplexConstraint *> const &, class QList<struct AnchorData *> const &)
	?setDefaultFont@QTextFormatCollection@@QAEXABVQFont@@@Z @ 2018 NONAME ; void QTextFormatCollection::setDefaultFont(class QFont const &)
	??8QFontMetrics@@QBE_NABV0@@Z @ 2019 NONAME ; bool QFontMetrics::operator==(class QFontMetrics const &) const
	??0QGestureRecognizer@@QAE@XZ @ 2020 NONAME ; QGestureRecognizer::QGestureRecognizer(void)
	?setText@QLabel@@QAEXABVQString@@@Z @ 2021 NONAME ; void QLabel::setText(class QString const &)
	?scroll@QGraphicsItem@@QAEXMMABVQRectF@@@Z @ 2022 NONAME ; void QGraphicsItem::scroll(float, float, class QRectF const &)
	?resize@QRasterPixmapData@@UAEXHH@Z @ 2023 NONAME ; void QRasterPixmapData::resize(int, int)
	?warning@QMessageBox@@SA?AW4StandardButton@1@PAVQWidget@@ABVQString@@1V?$QFlags@W4StandardButton@QMessageBox@@@@W421@@Z @ 2024 NONAME ; enum QMessageBox::StandardButton QMessageBox::warning(class QWidget *, class QString const &, class QString const &, class QFlags<enum QMessageBox::StandardButton>, enum QMessageBox::StandardButton)
	?revert@QMainWindowLayout@@QAEXPAVQLayoutItem@@@Z @ 2025 NONAME ; void QMainWindowLayout::revert(class QLayoutItem *)
	?d_func@QStatusBar@@AAEPAVQStatusBarPrivate@@XZ @ 2026 NONAME ; class QStatusBarPrivate * QStatusBar::d_func(void)
	?drawPolygon@QPainter@@QAEXPBVQPointF@@HW4FillRule@Qt@@@Z @ 2027 NONAME ; void QPainter::drawPolygon(class QPointF const *, int, enum Qt::FillRule)
	?qt_regionToPath@@YA?AVQPainterPath@@ABVQRegion@@@Z @ 2028 NONAME ; class QPainterPath qt_regionToPath(class QRegion const &)
	?passwordEchoEditing@QLineControl@@QBE_NXZ @ 2029 NONAME ; bool QLineControl::passwordEchoEditing(void) const
	?setWindowIcon@QApplication@@SAXABVQIcon@@@Z @ 2030 NONAME ; void QApplication::setWindowIcon(class QIcon const &)
	?saveInputEvent@QEventDispatcherS60@@QAEXPAVQSymbianControl@@PAVQWidget@@PAVQInputEvent@@@Z @ 2031 NONAME ; void QEventDispatcherS60::saveInputEvent(class QSymbianControl *, class QWidget *, class QInputEvent *)
	?setImage@QClipboard@@QAEXABVQImage@@W4Mode@1@@Z @ 2032 NONAME ; void QClipboard::setImage(class QImage const &, enum QClipboard::Mode)
	?metaObject@QFileDialog@@UBEPBUQMetaObject@@XZ @ 2033 NONAME ; struct QMetaObject const * QFileDialog::metaObject(void) const
	??_EQBitmap@@UAE@I@Z @ 2034 NONAME ; QBitmap::~QBitmap(unsigned int)
	?d_func@QAction@@AAEPAVQActionPrivate@@XZ @ 2035 NONAME ; class QActionPrivate * QAction::d_func(void)
	?textBeforeSelection@QLineControl@@QBE?AVQString@@XZ @ 2036 NONAME ; class QString QLineControl::textBeforeSelection(void) const
	??_EQTabBar@@UAE@I@Z @ 2037 NONAME ; QTabBar::~QTabBar(unsigned int)
	?qt_metacall@QGraphicsObject@@UAEHW4Call@QMetaObject@@HPAPAX@Z @ 2038 NONAME ; int QGraphicsObject::qt_metacall(enum QMetaObject::Call, int, void * *)
	?setStartPos@TouchPoint@QTouchEvent@@QAEXABVQPointF@@@Z @ 2039 NONAME ; void QTouchEvent::TouchPoint::setStartPos(class QPointF const &)
	?isInEditBlock@QTextDocumentPrivate@@QBE_NXZ @ 2040 NONAME ; bool QTextDocumentPrivate::isInEditBlock(void) const
	?drawPrimitive@QProxyStyle@@UBEXW4PrimitiveElement@QStyle@@PBVQStyleOption@@PAVQPainter@@PBVQWidget@@@Z @ 2041 NONAME ; void QProxyStyle::drawPrimitive(enum QStyle::PrimitiveElement, class QStyleOption const *, class QPainter *, class QWidget const *) const
	?hitTest@QTextControl@@UBEHABVQPointF@@W4HitTestAccuracy@Qt@@@Z @ 2042 NONAME ; int QTextControl::hitTest(class QPointF const &, enum Qt::HitTestAccuracy) const
	?toolTip@QWidget@@QBE?AVQString@@XZ @ 2043 NONAME ; class QString QWidget::toolTip(void) const
	??0QTextDocumentPrivate@@QAE@XZ @ 2044 NONAME ; QTextDocumentPrivate::QTextDocumentPrivate(void)
	?name@QFileSystemModelPrivate@@QBE?AVQString@@ABVQModelIndex@@@Z @ 2045 NONAME ; class QString QFileSystemModelPrivate::name(class QModelIndex const &) const
	?buffer@QWindowSurface@@UAEPAVQImage@@PBVQWidget@@@Z @ 2046 NONAME ; class QImage * QWindowSurface::buffer(class QWidget const *)
	?setEmptyCachedClipPathRecursively@QGraphicsItemPrivate@@QAEXABVQRectF@@@Z @ 2047 NONAME ; void QGraphicsItemPrivate::setEmptyCachedClipPathRecursively(class QRectF const &)
	?trUtf8@QFileInfoGatherer@@SA?AVQString@@PBD0H@Z @ 2048 NONAME ; class QString QFileInfoGatherer::trUtf8(char const *, char const *, int)
	?setModel@QComboBox@@QAEXPAVQAbstractItemModel@@@Z @ 2049 NONAME ; void QComboBox::setModel(class QAbstractItemModel *)
	?d_func@QGraphicsSceneHelpEvent@@AAEPAVQGraphicsSceneHelpEventPrivate@@XZ @ 2050 NONAME ; class QGraphicsSceneHelpEventPrivate * QGraphicsSceneHelpEvent::d_func(void)
	?rootIndex@QAbstractItemView@@QBE?AVQModelIndex@@XZ @ 2051 NONAME ; class QModelIndex QAbstractItemView::rootIndex(void) const
	?drawPixmap@QPainter@@QAEXABVQPointF@@ABVQPixmap@@ABVQRectF@@@Z @ 2052 NONAME ; void QPainter::drawPixmap(class QPointF const &, class QPixmap const &, class QRectF const &)
	?focusInEvent@QAbstractSpinBox@@MAEXPAVQFocusEvent@@@Z @ 2053 NONAME ; void QAbstractSpinBox::focusInEvent(class QFocusEvent *)
	?parseClass@Parser@QCss@@QAE_NPAVQString@@@Z @ 2054 NONAME ; bool QCss::Parser::parseClass(class QString *)
	?mouseReleaseEvent@QMenuBar@@MAEXPAVQMouseEvent@@@Z @ 2055 NONAME ; void QMenuBar::mouseReleaseEvent(class QMouseEvent *)
	?elidedText@QTextEngine@@QBE?AVQString@@W4TextElideMode@Qt@@ABUQFixed@@H@Z @ 2056 NONAME ; class QString QTextEngine::elidedText(enum Qt::TextElideMode, struct QFixed const &, int) const
	??1QImage@@UAE@XZ @ 2057 NONAME ; QImage::~QImage(void)
	?tr@QPixmapConvolutionFilter@@SA?AVQString@@PBD0@Z @ 2058 NONAME ; class QString QPixmapConvolutionFilter::tr(char const *, char const *)
	?setTextCursor@QTextControl@@QAEXABVQTextCursor@@@Z @ 2059 NONAME ; void QTextControl::setTextCursor(class QTextCursor const &)
	?mouseReleaseEvent@QTabBar@@MAEXPAVQMouseEvent@@@Z @ 2060 NONAME ; void QTabBar::mouseReleaseEvent(class QMouseEvent *)
	?d_func@QGraphicsSceneContextMenuEvent@@AAEPAVQGraphicsSceneContextMenuEventPrivate@@XZ @ 2061 NONAME ; class QGraphicsSceneContextMenuEventPrivate * QGraphicsSceneContextMenuEvent::d_func(void)
	?setSizeGripEnabled@QStatusBar@@QAEX_N@Z @ 2062 NONAME ; void QStatusBar::setSizeGripEnabled(bool)
	??4QStyleOptionSizeGrip@@QAEAAV0@ABV0@@Z @ 2063 NONAME ; class QStyleOptionSizeGrip & QStyleOptionSizeGrip::operator=(class QStyleOptionSizeGrip const &)
	?rootDirectory@QFileSystemModel@@QBE?AVQDir@@XZ @ 2064 NONAME ; class QDir QFileSystemModel::rootDirectory(void) const
	?mimeTypes@QFileSystemModel@@UBE?AVQStringList@@XZ @ 2065 NONAME ; class QStringList QFileSystemModel::mimeTypes(void) const
	?syncX@QApplication@@SAXXZ @ 2066 NONAME ; void QApplication::syncX(void)
	?maxWidth@QFontMetricsF@@QBEMXZ @ 2067 NONAME ; float QFontMetricsF::maxWidth(void) const
	?drawWidget@QWidgetPrivate@@QAEXPAVQPaintDevice@@ABVQRegion@@ABVQPoint@@HPAVQPainter@@PAVQWidgetBackingStore@@@Z @ 2068 NONAME ; void QWidgetPrivate::drawWidget(class QPaintDevice *, class QRegion const &, class QPoint const &, int, class QPainter *, class QWidgetBackingStore *)
	?currentCompletion@QCompleter@@QBE?AVQString@@XZ @ 2069 NONAME ; class QString QCompleter::currentCompletion(void) const
	?inverted@QMatrix4x4@@QBE?AV1@PA_N@Z @ 2070 NONAME ; class QMatrix4x4 QMatrix4x4::inverted(bool *) const
	?qt_metacall@QGesture@@UAEHW4Call@QMetaObject@@HPAPAX@Z @ 2071 NONAME ; int QGesture::qt_metacall(enum QMetaObject::Call, int, void * *)
	?markDirty@QWidgetBackingStore@@QAEXABVQRegion@@PAVQWidget@@_N2@Z @ 2072 NONAME ; void QWidgetBackingStore::markDirty(class QRegion const &, class QWidget *, bool, bool)
	?setPreferredSize@QGraphicsLayoutItem@@QAEXMM@Z @ 2073 NONAME ; void QGraphicsLayoutItem::setPreferredSize(float, float)
	?giveFocusAccordingToFocusPolicy@QApplicationPrivate@@CAXPAVQWidget@@W4FocusPolicy@Qt@@W4FocusReason@4@@Z @ 2074 NONAME ; void QApplicationPrivate::giveFocusAccordingToFocusPolicy(class QWidget *, enum Qt::FocusPolicy, enum Qt::FocusReason)
	?showEvent@QMessageBox@@MAEXPAVQShowEvent@@@Z @ 2075 NONAME ; void QMessageBox::showEvent(class QShowEvent *)
	?staticMetaObject@QStyleSheetStyle@@2UQMetaObject@@B @ 2076 NONAME ; struct QMetaObject const QStyleSheetStyle::staticMetaObject
	?trUtf8@QFontComboBox@@SA?AVQString@@PBD0@Z @ 2077 NONAME ; class QString QFontComboBox::trUtf8(char const *, char const *)
	?getText@QInputDialog@@SA?AVQString@@PAVQWidget@@ABV2@1W4EchoMode@QLineEdit@@1PA_NV?$QFlags@W4WindowType@Qt@@@@@Z @ 2078 NONAME ; class QString QInputDialog::getText(class QWidget *, class QString const &, class QString const &, enum QLineEdit::EchoMode, class QString const &, bool *, class QFlags<enum Qt::WindowType>)
	?isButtonDown@QWidgetResizeHandler@@QBE_NXZ @ 2079 NONAME ; bool QWidgetResizeHandler::isButtonDown(void) const
	?d_func@QColorDialog@@AAEPAVQColorDialogPrivate@@XZ @ 2080 NONAME ; class QColorDialogPrivate * QColorDialog::d_func(void)
	??0QStyleOptionFocusRect@@QAE@ABV0@@Z @ 2081 NONAME ; QStyleOptionFocusRect::QStyleOptionFocusRect(class QStyleOptionFocusRect const &)
	?comboStyleOption@QComboBoxPrivateContainer@@IBE?AVQStyleOptionComboBox@@XZ @ 2082 NONAME ; class QStyleOptionComboBox QComboBoxPrivateContainer::comboStyleOption(void) const
	?d_func@QPixmapConvolutionFilter@@ABEPBVQPixmapConvolutionFilterPrivate@@XZ @ 2083 NONAME ; class QPixmapConvolutionFilterPrivate const * QPixmapConvolutionFilter::d_func(void) const
	?d_func@QGraphicsScale@@AAEPAVQGraphicsScalePrivate@@XZ @ 2084 NONAME ; class QGraphicsScalePrivate * QGraphicsScale::d_func(void)
	?setTabIcon@QTabWidget@@QAEXHABVQIcon@@@Z @ 2085 NONAME ; void QTabWidget::setTabIcon(int, class QIcon const &)
	??0QDockAreaLayoutInfo@@QAE@XZ @ 2086 NONAME ; QDockAreaLayoutInfo::QDockAreaLayoutInfo(void)
	??0QStyleOptionProgressBarV2@@QAE@ABV0@@Z @ 2087 NONAME ; QStyleOptionProgressBarV2::QStyleOptionProgressBarV2(class QStyleOptionProgressBarV2 const &)
	?detach@QPicture@@QAEXXZ @ 2088 NONAME ; void QPicture::detach(void)
	??0QMdiArea@@QAE@PAVQWidget@@@Z @ 2089 NONAME ; QMdiArea::QMdiArea(class QWidget *)
	?accept@QDialog@@UAEXXZ @ 2090 NONAME ; void QDialog::accept(void)
	?text@QClipboard@@QBE?AVQString@@AAV2@W4Mode@1@@Z @ 2091 NONAME ; class QString QClipboard::text(class QString &, enum QClipboard::Mode) const
	??0QStackedLayout@@QAE@PAVQWidget@@@Z @ 2092 NONAME ; QStackedLayout::QStackedLayout(class QWidget *)
	?widgetInNavigationDirection@QWidgetPrivate@@SAPAVQWidget@@W4Direction@1@@Z @ 2093 NONAME ; class QWidget * QWidgetPrivate::widgetInNavigationDirection(enum QWidgetPrivate::Direction)
	??0QTextOption@@QAE@ABV0@@Z @ 2094 NONAME ; QTextOption::QTextOption(class QTextOption const &)
	?extractPalette@ValueExtractor@QCss@@QAE_NPAVQBrush@@000@Z @ 2095 NONAME ; bool QCss::ValueExtractor::extractPalette(class QBrush *, class QBrush *, class QBrush *, class QBrush *)
	?setResizeGripsVisible@QColumnView@@QAEX_N@Z @ 2096 NONAME ; void QColumnView::setResizeGripsVisible(bool)
	??_EQApplication@@UAE@I@Z @ 2097 NONAME ; QApplication::~QApplication(unsigned int)
	?staticMetaObject@QImageIOPlugin@@2UQMetaObject@@B @ 2098 NONAME ; struct QMetaObject const QImageIOPlugin::staticMetaObject
	?staticMetaObject@QColumnView@@2UQMetaObject@@B @ 2099 NONAME ; struct QMetaObject const QColumnView::staticMetaObject
	?getFont@QFontDialog@@SA?AVQFont@@PA_NABV2@PAVQWidget@@ABVQString@@@Z @ 2100 NONAME ; class QFont QFontDialog::getFont(bool *, class QFont const &, class QWidget *, class QString const &)
	?setAutoSipEnabled@QApplication@@QAEX_N@Z @ 2101 NONAME ; void QApplication::setAutoSipEnabled(bool)
	?tr@QAbstractButton@@SA?AVQString@@PBD0@Z @ 2102 NONAME ; class QString QAbstractButton::tr(char const *, char const *)
	?joinStyle@QPainterPathStroker@@QBE?AW4PenJoinStyle@Qt@@XZ @ 2103 NONAME ; enum Qt::PenJoinStyle QPainterPathStroker::joinStyle(void) const
	?mimeTypes@QTreeWidget@@MBE?AVQStringList@@XZ @ 2104 NONAME ; class QStringList QTreeWidget::mimeTypes(void) const
	?keyPressEvent@QAbstractButton@@MAEXPAVQKeyEvent@@@Z @ 2105 NONAME ; void QAbstractButton::keyPressEvent(class QKeyEvent *)
	?initialize@QHeaderView@@IAEXXZ @ 2106 NONAME ; void QHeaderView::initialize(void)
	?y@QGraphicsItem@@QBEMXZ @ 2107 NONAME ; float QGraphicsItem::y(void) const
	??0QPlainTextEdit@@IAE@AAVQPlainTextEditPrivate@@PAVQWidget@@@Z @ 2108 NONAME ; QPlainTextEdit::QPlainTextEdit(class QPlainTextEditPrivate &, class QWidget *)
	?reduceConfiguration@QEglProperties@@QAE_NXZ @ 2109 NONAME ; bool QEglProperties::reduceConfiguration(void)
	??0QDateEdit@@QAE@ABVQDate@@PAVQWidget@@@Z @ 2110 NONAME ; QDateEdit::QDateEdit(class QDate const &, class QWidget *)
	?setPreviewWidget@QColumnViewPrivate@@QAEXPAVQWidget@@@Z @ 2111 NONAME ; void QColumnViewPrivate::setPreviewWidget(class QWidget *)
	?setCalendarPopup@QDateTimeEdit@@QAEX_N@Z @ 2112 NONAME ; void QDateTimeEdit::setCalendarPopup(bool)
	?cursorWordForward@QLineEdit@@QAEX_N@Z @ 2113 NONAME ; void QLineEdit::cursorWordForward(bool)
	??0iterator@QTextBlock@@QAE@ABV01@@Z @ 2114 NONAME ; QTextBlock::iterator::iterator(class QTextBlock::iterator const &)
	?itemChange@QGraphicsItem@@MAE?AVQVariant@@W4GraphicsItemChange@1@ABV2@@Z @ 2115 NONAME ; class QVariant QGraphicsItem::itemChange(enum QGraphicsItem::GraphicsItemChange, class QVariant const &)
	?d_func@QPixmapBlurFilter@@AAEPAVQPixmapBlurFilterPrivate@@XZ @ 2116 NONAME ; class QPixmapBlurFilterPrivate * QPixmapBlurFilter::d_func(void)
	?inputContext@QApplicationPrivate@@2PAVQInputContext@@A @ 2117 NONAME ; class QInputContext * QApplicationPrivate::inputContext
	?bottom@QIntValidator@@QBEHXZ @ 2118 NONAME ; int QIntValidator::bottom(void) const
	?setLastScenePos@QGraphicsSceneMouseEvent@@QAEXABVQPointF@@@Z @ 2119 NONAME ; void QGraphicsSceneMouseEvent::setLastScenePos(class QPointF const &)
	?currentChanged@QTreeView@@MAEXABVQModelIndex@@0@Z @ 2120 NONAME ; void QTreeView::currentChanged(class QModelIndex const &, class QModelIndex const &)
	?setCurrentItem@QTableWidget@@QAEXPAVQTableWidgetItem@@V?$QFlags@W4SelectionFlag@QItemSelectionModel@@@@@Z @ 2121 NONAME ; void QTableWidget::setCurrentItem(class QTableWidgetItem *, class QFlags<enum QItemSelectionModel::SelectionFlag>)
	?separatorRegion@QDockAreaLayoutInfo@@QBE?AVQRegion@@XZ @ 2122 NONAME ; class QRegion QDockAreaLayoutInfo::separatorRegion(void) const
	?items@QGraphicsScene@@QBE?AV?$QList@PAVQGraphicsItem@@@@MMMMW4ItemSelectionMode@Qt@@@Z @ 2123 NONAME ; class QList<class QGraphicsItem *> QGraphicsScene::items(float, float, float, float, enum Qt::ItemSelectionMode) const
	?d_func@QCommonStyle@@ABEPBVQCommonStylePrivate@@XZ @ 2124 NONAME ; class QCommonStylePrivate const * QCommonStyle::d_func(void) const
	?undo@QLineEdit@@QAEXXZ @ 2125 NONAME ; void QLineEdit::undo(void)
	?setAnchorHref@QTextCharFormat@@QAEXABVQString@@@Z @ 2126 NONAME ; void QTextCharFormat::setAnchorHref(class QString const &)
	?length@QTextBlock@@QBEHXZ @ 2127 NONAME ; int QTextBlock::length(void) const
	?viewportEvent@QAbstractScrollAreaPrivate@@QAE_NPAVQEvent@@@Z @ 2128 NONAME ; bool QAbstractScrollAreaPrivate::viewportEvent(class QEvent *)
	?setCurrentIndex@QToolBox@@QAEXH@Z @ 2129 NONAME ; void QToolBox::setCurrentIndex(int)
	??0QItemEditorFactory@@QAE@XZ @ 2130 NONAME ; QItemEditorFactory::QItemEditorFactory(void)
	?qt_metacall@QImageIOPlugin@@UAEHW4Call@QMetaObject@@HPAPAX@Z @ 2131 NONAME ; int QImageIOPlugin::qt_metacall(enum QMetaObject::Call, int, void * *)
	?setColumnWidthConstraints@QTextTableFormat@@QAEXABV?$QVector@VQTextLength@@@@@Z @ 2132 NONAME ; void QTextTableFormat::setColumnWidthConstraints(class QVector<class QTextLength> const &)
	?d_func@QGraphicsSceneMouseEvent@@AAEPAVQGraphicsSceneMouseEventPrivate@@XZ @ 2133 NONAME ; class QGraphicsSceneMouseEventPrivate * QGraphicsSceneMouseEvent::d_func(void)
	?transform@QGraphicsView@@QBE?AVQTransform@@XZ @ 2134 NONAME ; class QTransform QGraphicsView::transform(void) const
	?actionAt@QMenuBar@@QBEPAVQAction@@ABVQPoint@@@Z @ 2135 NONAME ; class QAction * QMenuBar::actionAt(class QPoint const &) const
	?globalX@QMouseEvent@@QBEHXZ @ 2136 NONAME ; int QMouseEvent::globalX(void) const
	?keyReleaseEvent@QComboBox@@MAEXPAVQKeyEvent@@@Z @ 2137 NONAME ; void QComboBox::keyReleaseEvent(class QKeyEvent *)
	??4iterator@QTextFrame@@QAEAAV01@ABV01@@Z @ 2138 NONAME ; class QTextFrame::iterator & QTextFrame::iterator::operator=(class QTextFrame::iterator const &)
	?isPanel@QGraphicsItem@@QBE_NXZ @ 2139 NONAME ; bool QGraphicsItem::isPanel(void) const
	??0Key@QPixmapCache@@QAE@ABV01@@Z @ 2140 NONAME ; QPixmapCache::Key::Key(class QPixmapCache::Key const &)
	?restoreGeometry@QWidget@@QAE_NABVQByteArray@@@Z @ 2141 NONAME ; bool QWidget::restoreGeometry(class QByteArray const &)
	??1QMenu@@UAE@XZ @ 2142 NONAME ; QMenu::~QMenu(void)
	?setFormat@QImageWriter@@QAEXABVQByteArray@@@Z @ 2143 NONAME ; void QImageWriter::setFormat(class QByteArray const &)
	??0QInputMethodEvent@@QAE@ABV0@@Z @ 2144 NONAME ; QInputMethodEvent::QInputMethodEvent(class QInputMethodEvent const &)
	??BQImage@@QBE?AVQVariant@@XZ @ 2145 NONAME ; QImage::operator class QVariant(void) const
	?setMovie@QLabel@@QAEXPAVQMovie@@@Z @ 2146 NONAME ; void QLabel::setMovie(class QMovie *)
	?updateStaticContentsSize@QWidgetBackingStore@@AAEXXZ @ 2147 NONAME ; void QWidgetBackingStore::updateStaticContentsSize(void)
	?setFocusWidget@QInputContext@@UAEXPAVQWidget@@@Z @ 2148 NONAME ; void QInputContext::setFocusWidget(class QWidget *)
	?invalidate@QGraphicsGridLayout@@UAEXXZ @ 2149 NONAME ; void QGraphicsGridLayout::invalidate(void)
	?tr@QAbstractSlider@@SA?AVQString@@PBD0H@Z @ 2150 NONAME ; class QString QAbstractSlider::tr(char const *, char const *, int)
	??0QAbstractScrollAreaPrivate@@QAE@XZ @ 2151 NONAME ; QAbstractScrollAreaPrivate::QAbstractScrollAreaPrivate(void)
	?valueChanged@QSpinBox@@IAEXH@Z @ 2152 NONAME ; void QSpinBox::valueChanged(int)
	?updateGeometry@QGraphicsLayoutItem@@UAEXXZ @ 2153 NONAME ; void QGraphicsLayoutItem::updateGeometry(void)
	?adjustPosition@QDialog@@IAEXPAVQWidget@@@Z @ 2154 NONAME ; void QDialog::adjustPosition(class QWidget *)
	?shared_empty@QRegion@@0UQRegionData@1@A @ 2155 NONAME ; struct QRegion::QRegionData QRegion::shared_empty
	?setupEdgesInterpolation@QGraphicsAnchorLayoutPrivate@@QAEXW4Orientation@1@@Z @ 2156 NONAME ; void QGraphicsAnchorLayoutPrivate::setupEdgesInterpolation(enum QGraphicsAnchorLayoutPrivate::Orientation)
	?qt_metacast@QComboBox@@UAEPAXPBD@Z @ 2157 NONAME ; void * QComboBox::qt_metacast(char const *)
	?hasSelectedText@QLineEdit@@QBE_NXZ @ 2158 NONAME ; bool QLineEdit::hasSelectedText(void) const
	?duplicatesEnabled@QComboBox@@QBE_NXZ @ 2159 NONAME ; bool QComboBox::duplicatesEnabled(void) const
	?changeEvent@QLineEdit@@MAEXPAVQEvent@@@Z @ 2160 NONAME ; void QLineEdit::changeEvent(class QEvent *)
	?setDateRange@QCalendarWidget@@QAEXABVQDate@@0@Z @ 2161 NONAME ; void QCalendarWidget::setDateRange(class QDate const &, class QDate const &)
	?itemAt@QGridLayout@@UBEPAVQLayoutItem@@H@Z @ 2162 NONAME ; class QLayoutItem * QGridLayout::itemAt(int) const
	?inputMethodEvent@QLineEdit@@MAEXPAVQInputMethodEvent@@@Z @ 2163 NONAME ; void QLineEdit::inputMethodEvent(class QInputMethodEvent *)
	?data@QPicture@@QBEPBDXZ @ 2164 NONAME ; char const * QPicture::data(void) const
	?data@QTreeWidgetItem@@UBE?AVQVariant@@HH@Z @ 2165 NONAME ; class QVariant QTreeWidgetItem::data(int, int) const
	?setLastPos@QGraphicsSceneMouseEvent@@QAEXABVQPointF@@@Z @ 2166 NONAME ; void QGraphicsSceneMouseEvent::setLastPos(class QPointF const &)
	?setAutoRepeat@QAction@@QAEX_N@Z @ 2167 NONAME ; void QAction::setAutoRepeat(bool)
	?setCmyk@QColor@@QAEXHHHHH@Z @ 2168 NONAME ; void QColor::setCmyk(int, int, int, int, int)
	?kerning@QFont@@QBE_NXZ @ 2169 NONAME ; bool QFont::kerning(void) const
	?columnCount@QTreeWidget@@QBEHXZ @ 2170 NONAME ; int QTreeWidget::columnCount(void) const
	?alignment@QTextOption@@QBE?AV?$QFlags@W4AlignmentFlag@Qt@@@@XZ @ 2171 NONAME ; class QFlags<enum Qt::AlignmentFlag> QTextOption::alignment(void) const
	?drawPolyline@QPainter@@QAEXABVQPolygon@@@Z @ 2172 NONAME ; void QPainter::drawPolyline(class QPolygon const &)
	?isSliderDown@QAbstractSlider@@QBE_NXZ @ 2173 NONAME ; bool QAbstractSlider::isSliderDown(void) const
	?isEmpty@QLayout@@UBE_NXZ @ 2174 NONAME ; bool QLayout::isEmpty(void) const
	?nativeFrameWidth@QStyleSheetStyle@@AAEHPBVQWidget@@@Z @ 2175 NONAME ; int QStyleSheetStyle::nativeFrameWidth(class QWidget const *)
	?bezierOnInterval@QBezier@@QBE?AV1@MM@Z @ 2176 NONAME ; class QBezier QBezier::bezierOnInterval(float, float) const
	?setPosition@QTextCursor@@QAEXHW4MoveMode@1@@Z @ 2177 NONAME ; void QTextCursor::setPosition(int, enum QTextCursor::MoveMode)
	?qt_metacast@QSplitter@@UAEPAXPBD@Z @ 2178 NONAME ; void * QSplitter::qt_metacast(char const *)
	?buttonClicked@QButtonGroup@@IAEXH@Z @ 2179 NONAME ; void QButtonGroup::buttonClicked(int)
	?rowCount@QStandardItem@@QBEHXZ @ 2180 NONAME ; int QStandardItem::rowCount(void) const
	?dragMoveEvent@QPlainTextEdit@@MAEXPAVQDragMoveEvent@@@Z @ 2181 NONAME ; void QPlainTextEdit::dragMoveEvent(class QDragMoveEvent *)
	?locale@QWidget@@QBE?AVQLocale@@XZ @ 2182 NONAME ; class QLocale QWidget::locale(void) const
	?addUrls@QUrlModel@@QAEXABV?$QList@VQUrl@@@@H_N@Z @ 2183 NONAME ; void QUrlModel::addUrls(class QList<class QUrl> const &, int, bool)
	?orientation@QWheelEvent@@QBE?AW4Orientation@Qt@@XZ @ 2184 NONAME ; enum Qt::Orientation QWheelEvent::orientation(void) const
	?midlight@QPalette@@QBEABVQBrush@@XZ @ 2185 NONAME ; class QBrush const & QPalette::midlight(void) const
	?style@QWidget@@QBEPAVQStyle@@XZ @ 2186 NONAME ; class QStyle * QWidget::style(void) const
	?items@QTableWidget@@IBE?AV?$QList@PAVQTableWidgetItem@@@@PBVQMimeData@@@Z @ 2187 NONAME ; class QList<class QTableWidgetItem *> QTableWidget::items(class QMimeData const *) const
	?setRange@QSpinBox@@QAEXHH@Z @ 2188 NONAME ; void QSpinBox::setRange(int, int)
	??0QListView@@IAE@AAVQListViewPrivate@@PAVQWidget@@@Z @ 2189 NONAME ; QListView::QListView(class QListViewPrivate &, class QWidget *)
	?toPointF@QVector4D@@QBE?AVQPointF@@XZ @ 2190 NONAME ; class QPointF QVector4D::toPointF(void) const
	?blockMap@QTextDocumentPrivate@@QAEAAV?$QFragmentMap@VQTextBlockData@@@@XZ @ 2191 NONAME ; class QFragmentMap<class QTextBlockData> & QTextDocumentPrivate::blockMap(void)
	?getStaticMetaObject@QGraphicsItemAnimation@@SAABUQMetaObject@@XZ @ 2192 NONAME ; struct QMetaObject const & QGraphicsItemAnimation::getStaticMetaObject(void)
	?redF@QColor@@QBEMXZ @ 2193 NONAME ; float QColor::redF(void) const
	?file@QFileOpenEvent@@QBE?AVQString@@XZ @ 2194 NONAME ; class QString QFileOpenEvent::file(void) const
	?d_func@QBasicMouseEventTransition@@ABEPBVQBasicMouseEventTransitionPrivate@@XZ @ 2195 NONAME ; class QBasicMouseEventTransitionPrivate const * QBasicMouseEventTransition::d_func(void) const
	?testPage@Parser@QCss@@QAE_NXZ @ 2196 NONAME ; bool QCss::Parser::testPage(void)
	?trUtf8@QSlider@@SA?AVQString@@PBD0@Z @ 2197 NONAME ; class QString QSlider::trUtf8(char const *, char const *)
	?testExpr@Parser@QCss@@QAE_NXZ @ 2198 NONAME ; bool QCss::Parser::testExpr(void)
	?show@QWidget@@QAEXXZ @ 2199 NONAME ; void QWidget::show(void)
	??0QPaintEngine@@IAE@AAVQPaintEnginePrivate@@V?$QFlags@W4PaintEngineFeature@QPaintEngine@@@@@Z @ 2200 NONAME ; QPaintEngine::QPaintEngine(class QPaintEnginePrivate &, class QFlags<enum QPaintEngine::PaintEngineFeature>)
	?wheelEvent@QGraphicsView@@MAEXPAVQWheelEvent@@@Z @ 2201 NONAME ; void QGraphicsView::wheelEvent(class QWheelEvent *)
	?setAlignment@QTextOption@@QAEXV?$QFlags@W4AlignmentFlag@Qt@@@@@Z @ 2202 NONAME ; void QTextOption::setAlignment(class QFlags<enum Qt::AlignmentFlag>)
	??4QFontMetricsF@@QAEAAV0@ABV0@@Z @ 2203 NONAME ; class QFontMetricsF & QFontMetricsF::operator=(class QFontMetricsF const &)
	??1QPainterState@@UAE@XZ @ 2204 NONAME ; QPainterState::~QPainterState(void)
	?metaObject@QGraphicsWidget@@UBEPBUQMetaObject@@XZ @ 2205 NONAME ; struct QMetaObject const * QGraphicsWidget::metaObject(void) const
	??4QImage@@QAEAAV0@ABV0@@Z @ 2206 NONAME ; class QImage & QImage::operator=(class QImage const &)
	?setWindowState@QWidget@@QAEXV?$QFlags@W4WindowState@Qt@@@@@Z @ 2207 NONAME ; void QWidget::setWindowState(class QFlags<enum Qt::WindowState>)
	??_EQAbstractItemView@@UAE@I@Z @ 2208 NONAME ; QAbstractItemView::~QAbstractItemView(unsigned int)
	??0QQuaternion@@QAE@ABVQVector4D@@@Z @ 2209 NONAME ; QQuaternion::QQuaternion(class QVector4D const &)
	?setFontCapitalization@QTextCharFormat@@QAEXW4Capitalization@QFont@@@Z @ 2210 NONAME ; void QTextCharFormat::setFontCapitalization(enum QFont::Capitalization)
	?encodeString@QKeySequence@@CA?AVQString@@H@Z @ 2211 NONAME ; class QString QKeySequence::encodeString(int)
	?init@QWidgetPrivate@@QAEXPAVQWidget@@V?$QFlags@W4WindowType@Qt@@@@@Z @ 2212 NONAME ; void QWidgetPrivate::init(class QWidget *, class QFlags<enum Qt::WindowType>)
	?setSizeHint@QTableWidgetItem@@QAEXABVQSize@@@Z @ 2213 NONAME ; void QTableWidgetItem::setSizeHint(class QSize const &)
	?childrenCheckState@QTreeWidgetItem@@ABE?AVQVariant@@H@Z @ 2214 NONAME ; class QVariant QTreeWidgetItem::childrenCheckState(int) const
	?textEchoMode@QInputDialog@@QBE?AW4EchoMode@QLineEdit@@XZ @ 2215 NONAME ; enum QLineEdit::EchoMode QInputDialog::textEchoMode(void) const
	?setStyle@QWidget@@QAEXPAVQStyle@@@Z @ 2216 NONAME ; void QWidget::setStyle(class QStyle *)
	??1QPixmapColorizeFilter@@UAE@XZ @ 2217 NONAME ; QPixmapColorizeFilter::~QPixmapColorizeFilter(void)
	?startScreenPos@TouchPoint@QTouchEvent@@QBE?AVQPointF@@XZ @ 2218 NONAME ; class QPointF QTouchEvent::TouchPoint::startScreenPos(void) const
	?clear@QComboBox@@QAEXXZ @ 2219 NONAME ; void QComboBox::clear(void)
	?mapVector@QMatrix4x4@@QBE?AVQVector3D@@ABV2@@Z @ 2220 NONAME ; class QVector3D QMatrix4x4::mapVector(class QVector3D const &) const
	?getOpenFileNames@QFileDialog@@SA?AVQStringList@@PAVQWidget@@ABVQString@@11PAV4@V?$QFlags@W4Option@QFileDialog@@@@@Z @ 2221 NONAME ; class QStringList QFileDialog::getOpenFileNames(class QWidget *, class QString const &, class QString const &, class QString const &, class QString *, class QFlags<enum QFileDialog::Option>)
	?qt_filedialog_save_filename_hook@@3P6A?AVQString@@PAVQWidget@@ABV1@11PAV1@V?$QFlags@W4Option@QFileDialog@@@@@ZA @ 2222 NONAME ; class QString (*qt_filedialog_save_filename_hook)(class QWidget *, class QString const &, class QString const &, class QString const &, class QString *, class QFlags<enum QFileDialog::Option>)
	?getStaticMetaObject@QTextObject@@SAABUQMetaObject@@XZ @ 2223 NONAME ; struct QMetaObject const & QTextObject::getStaticMetaObject(void)
	?ortho@QMatrix4x4@@QAEAAV1@MMMMMM@Z @ 2224 NONAME ; class QMatrix4x4 & QMatrix4x4::ortho(float, float, float, float, float, float)
	?textAlignment@QStandardItem@@QBE?AV?$QFlags@W4AlignmentFlag@Qt@@@@XZ @ 2225 NONAME ; class QFlags<enum Qt::AlignmentFlag> QStandardItem::textAlignment(void) const
	?source@QGraphicsEffect@@QBEPAVQGraphicsEffectSource@@XZ @ 2226 NONAME ; class QGraphicsEffectSource * QGraphicsEffect::source(void) const
	??0QBitmap@@QAE@XZ @ 2227 NONAME ; QBitmap::QBitmap(void)
	??1QPaintBuffer@@UAE@XZ @ 2228 NONAME ; QPaintBuffer::~QPaintBuffer(void)
	?setRightMargin@QTextBlockFormat@@QAEXM@Z @ 2229 NONAME ; void QTextBlockFormat::setRightMargin(float)
	?horizontalHeader@QTableView@@QBEPAVQHeaderView@@XZ @ 2230 NONAME ; class QHeaderView * QTableView::horizontalHeader(void) const
	?setTabText@QTabWidget@@QAEXHABVQString@@@Z @ 2231 NONAME ; void QTabWidget::setTabText(int, class QString const &)
	?intMinimum@QInputDialog@@QBEHXZ @ 2232 NONAME ; int QInputDialog::intMinimum(void) const
	?flush@QWidgetBackingStore@@QAEXPAVQWidget@@PAVQWindowSurface@@@Z @ 2233 NONAME ; void QWidgetBackingStore::flush(class QWidget *, class QWindowSurface *)
	?setPosAt@QGraphicsItemAnimation@@QAEXMABVQPointF@@@Z @ 2234 NONAME ; void QGraphicsItemAnimation::setPosAt(float, class QPointF const &)
	?invalidateGraphicsEffectsRecursively@QGraphicsItemPrivate@@QAEXXZ @ 2235 NONAME ; void QGraphicsItemPrivate::invalidateGraphicsEffectsRecursively(void)
	?setProxyModel@QFileDialog@@QAEXPAVQAbstractProxyModel@@@Z @ 2236 NONAME ; void QFileDialog::setProxyModel(class QAbstractProxyModel *)
	?tr@QIntValidator@@SA?AVQString@@PBD0@Z @ 2237 NONAME ; class QString QIntValidator::tr(char const *, char const *)
	?setDevice@QImageWriter@@QAEXPAVQIODevice@@@Z @ 2238 NONAME ; void QImageWriter::setDevice(class QIODevice *)
	?addMenu@QMenuBar@@QAEPAVQMenu@@ABVQString@@@Z @ 2239 NONAME ; class QMenu * QMenuBar::addMenu(class QString const &)
	?clearMapping@QDataWidgetMapper@@QAEXXZ @ 2240 NONAME ; void QDataWidgetMapper::clearMapping(void)
	?selectAll@QAbstractItemView@@UAEXXZ @ 2241 NONAME ; void QAbstractItemView::selectAll(void)
	?wrapAround@QCompleter@@QBE_NXZ @ 2242 NONAME ; bool QCompleter::wrapAround(void) const
	?resizeRowsToContents@QTableView@@QAEXXZ @ 2243 NONAME ; void QTableView::resizeRowsToContents(void)
	?orientation@QSplitter@@QBE?AW4Orientation@Qt@@XZ @ 2244 NONAME ; enum Qt::Orientation QSplitter::orientation(void) const
	?trUtf8@QProgressBar@@SA?AVQString@@PBD0@Z @ 2245 NONAME ; class QString QProgressBar::trUtf8(char const *, char const *)
	?top@QDoubleValidator@@QBENXZ @ 2246 NONAME ; double QDoubleValidator::top(void) const
	?setDelta@QGraphicsSceneWheelEvent@@QAEXH@Z @ 2247 NONAME ; void QGraphicsSceneWheelEvent::setDelta(int)
	?setShearAt@QGraphicsItemAnimation@@QAEXMMM@Z @ 2248 NONAME ; void QGraphicsItemAnimation::setShearAt(float, float, float)
	?metaObject@QGridLayout@@UBEPBUQMetaObject@@XZ @ 2249 NONAME ; struct QMetaObject const * QGridLayout::metaObject(void) const
	??MQListWidgetItem@@UBE_NABV0@@Z @ 2250 NONAME ; bool QListWidgetItem::operator<(class QListWidgetItem const &) const
	?gapIndex@QDockAreaLayout@@QBE?AV?$QList@H@@ABVQPoint@@@Z @ 2251 NONAME ; class QList<int> QDockAreaLayout::gapIndex(class QPoint const &) const
	?staticMetaObject@QWidgetResizeHandler@@2UQMetaObject@@B @ 2252 NONAME ; struct QMetaObject const QWidgetResizeHandler::staticMetaObject
	??_EQCompleter@@UAE@I@Z @ 2253 NONAME ; QCompleter::~QCompleter(unsigned int)
	??0QAbstractScrollArea@@QAE@PAVQWidget@@@Z @ 2254 NONAME ; QAbstractScrollArea::QAbstractScrollArea(class QWidget *)
	?metaObject@QLineControl@@UBEPBUQMetaObject@@XZ @ 2255 NONAME ; struct QMetaObject const * QLineControl::metaObject(void) const
	?scroll_sys@QWidgetPrivate@@QAEXHH@Z @ 2256 NONAME ; void QWidgetPrivate::scroll_sys(int, int)
	?_q_gripMoved@QColumnViewPrivate@@QAEXH@Z @ 2257 NONAME ; void QColumnViewPrivate::_q_gripMoved(int)
	?markContentsDirty@QTextDocument@@QAEXHH@Z @ 2258 NONAME ; void QTextDocument::markContentsDirty(int, int)
	??1QAbstractSlider@@UAE@XZ @ 2259 NONAME ; QAbstractSlider::~QAbstractSlider(void)
	?tr@QAbstractItemDelegate@@SA?AVQString@@PBD0H@Z @ 2260 NONAME ; class QString QAbstractItemDelegate::tr(char const *, char const *, int)
	?initFrom@QPainter@@QAEXPBVQWidget@@@Z @ 2261 NONAME ; void QPainter::initFrom(class QWidget const *)
	?generatedIconPixmap@QCommonStyle@@UBE?AVQPixmap@@W4Mode@QIcon@@ABV2@PBVQStyleOption@@@Z @ 2262 NONAME ; class QPixmap QCommonStyle::generatedIconPixmap(enum QIcon::Mode, class QPixmap const &, class QStyleOption const *) const
	?codecForHtml@Qt@@YAPAVQTextCodec@@ABVQByteArray@@@Z @ 2263 NONAME ; class QTextCodec * Qt::codecForHtml(class QByteArray const &)
	?setOffset@QGraphicsDropShadowEffect@@QAEXMM@Z @ 2264 NONAME ; void QGraphicsDropShadowEffect::setOffset(float, float)
	?isMaximized@QWidget@@QBE_NXZ @ 2265 NONAME ; bool QWidget::isMaximized(void) const
	?setScalar@QQuaternion@@QAEXM@Z @ 2266 NONAME ; void QQuaternion::setScalar(float)
	?setActiveWindow@QWorkspace@@QAEXPAVQWidget@@@Z @ 2267 NONAME ; void QWorkspace::setActiveWindow(class QWidget *)
	?blockBoundingRect@QPlainTextEdit@@IBE?AVQRectF@@ABVQTextBlock@@@Z @ 2268 NONAME ; class QRectF QPlainTextEdit::blockBoundingRect(class QTextBlock const &) const
	?insertActions@QWidget@@QAEXPAVQAction@@V?$QList@PAVQAction@@@@@Z @ 2269 NONAME ; void QWidget::insertActions(class QAction *, class QList<class QAction *>)
	?polish@QWindowsStyle@@UAEXAAVQPalette@@@Z @ 2270 NONAME ; void QWindowsStyle::polish(class QPalette &)
	?delegateRefCount@QAbstractItemViewPrivate@@QBEHPBVQAbstractItemDelegate@@@Z @ 2271 NONAME ; int QAbstractItemViewPrivate::delegateRefCount(class QAbstractItemDelegate const *) const
	?bspTreeDepth@QGraphicsSceneBspTreeIndex@@QAEHXZ @ 2272 NONAME ; int QGraphicsSceneBspTreeIndex::bspTreeDepth(void)
	?setMaximumWidth@QGraphicsLayoutItem@@QAEXM@Z @ 2273 NONAME ; void QGraphicsLayoutItem::setMaximumWidth(float)
	?setPos@QCursor@@SAXABVQPoint@@@Z @ 2274 NONAME ; void QCursor::setPos(class QPoint const &)
	?inputMethodQuery@QTextControl@@UBE?AVQVariant@@W4InputMethodQuery@Qt@@@Z @ 2275 NONAME ; class QVariant QTextControl::inputMethodQuery(enum Qt::InputMethodQuery) const
	?height@QWidget@@QBEHXZ @ 2276 NONAME ; int QWidget::height(void) const
	?drawRect@QPainter@@QAEXHHHH@Z @ 2277 NONAME ; void QPainter::drawRect(int, int, int, int)
	?mapToItem@QGraphicsItem@@QBE?AVQPointF@@PBV1@MM@Z @ 2278 NONAME ; class QPointF QGraphicsItem::mapToItem(class QGraphicsItem const *, float, float) const
	?tr@QHBoxLayout@@SA?AVQString@@PBD0@Z @ 2279 NONAME ; class QString QHBoxLayout::tr(char const *, char const *)
	?metaObject@QClipboard@@UBEPBUQMetaObject@@XZ @ 2280 NONAME ; struct QMetaObject const * QClipboard::metaObject(void) const
	?staticMetaObject@QLayout@@2UQMetaObject@@B @ 2281 NONAME ; struct QMetaObject const QLayout::staticMetaObject
	?exec@QMenu@@QAEPAVQAction@@ABVQPoint@@PAV2@@Z @ 2282 NONAME ; class QAction * QMenu::exec(class QPoint const &, class QAction *)
	?sortItems@QTreeWidget@@QAEXHW4SortOrder@Qt@@@Z @ 2283 NONAME ; void QTreeWidget::sortItems(int, enum Qt::SortOrder)
	?removeApplicationFont@QFontDatabase@@SA_NH@Z @ 2284 NONAME ; bool QFontDatabase::removeApplicationFont(int)
	?d_func@QProxyModel@@AAEPAVQProxyModelPrivate@@XZ @ 2285 NONAME ; class QProxyModelPrivate * QProxyModel::d_func(void)
	?d_func@QAbstractGraphicsShapeItem@@ABEPBVQAbstractGraphicsShapeItemPrivate@@XZ @ 2286 NONAME ; class QAbstractGraphicsShapeItemPrivate const * QAbstractGraphicsShapeItem::d_func(void) const
	?grabWidget@QPixmap@@SA?AV1@PAVQWidget@@HHHH@Z @ 2287 NONAME ; class QPixmap QPixmap::grabWidget(class QWidget *, int, int, int, int)
	?drawLines@QPainter@@QAEXPBVQLineF@@H@Z @ 2288 NONAME ; void QPainter::drawLines(class QLineF const *, int)
	?unpolish@QProxyStyle@@UAEXPAVQApplication@@@Z @ 2289 NONAME ; void QProxyStyle::unpolish(class QApplication *)
	?context@QEglContext@@QBEHXZ @ 2290 NONAME ; int QEglContext::context(void) const
	?pointAtPercent@QPainterPath@@QBE?AVQPointF@@M@Z @ 2291 NONAME ; class QPointF QPainterPath::pointAtPercent(float) const
	?italic@QFontDatabase@@QBE_NABVQString@@0@Z @ 2292 NONAME ; bool QFontDatabase::italic(class QString const &, class QString const &) const
	?data@QMatrix4x4@@QBEPBMXZ @ 2293 NONAME ; float const * QMatrix4x4::data(void) const
	?drawPoints@QPaintEngineEx@@UAEXPBVQPoint@@H@Z @ 2294 NONAME ; void QPaintEngineEx::drawPoints(class QPoint const *, int)
	?value@QDoubleSpinBox@@QBENXZ @ 2295 NONAME ; double QDoubleSpinBox::value(void) const
	?setTextWidth@QTextDocument@@QAEXM@Z @ 2296 NONAME ; void QTextDocument::setTextWidth(float)
	?hitButton@QRadioButton@@MBE_NABVQPoint@@@Z @ 2297 NONAME ; bool QRadioButton::hitButton(class QPoint const &) const
	?drawImage@QPainter@@QAEXABVQPoint@@ABVQImage@@ABVQRect@@V?$QFlags@W4ImageConversionFlag@Qt@@@@@Z @ 2298 NONAME ; void QPainter::drawImage(class QPoint const &, class QImage const &, class QRect const &, class QFlags<enum Qt::ImageConversionFlag>)
	??1QLabel@@UAE@XZ @ 2299 NONAME ; QLabel::~QLabel(void)
	?setWidget@QTouchEvent@@QAEXPAVQWidget@@@Z @ 2300 NONAME ; void QTouchEvent::setWidget(class QWidget *)
	?isRightToLeft@QApplication@@SA_NXZ @ 2301 NONAME ; bool QApplication::isRightToLeft(void)
	?sys_pal@QApplicationPrivate@@2PAVQPalette@@A @ 2302 NONAME ; class QPalette * QApplicationPrivate::sys_pal
	?sortChildren@QTreeWidgetItem@@AAEXHW4SortOrder@Qt@@_N@Z @ 2303 NONAME ; void QTreeWidgetItem::sortChildren(int, enum Qt::SortOrder, bool)
	??1QTextFrameLayoutData@@UAE@XZ @ 2304 NONAME ; QTextFrameLayoutData::~QTextFrameLayoutData(void)
	?setCheckState@QTreeWidgetItem@@QAEXHW4CheckState@Qt@@@Z @ 2305 NONAME ; void QTreeWidgetItem::setCheckState(int, enum Qt::CheckState)
	?qt_metacall@QFocusFrame@@UAEHW4Call@QMetaObject@@HPAPAX@Z @ 2306 NONAME ; int QFocusFrame::qt_metacall(enum QMetaObject::Call, int, void * *)
	??1QLayoutItem@@UAE@XZ @ 2307 NONAME ; QLayoutItem::~QLayoutItem(void)
	??0QStyleOptionTabV2@@QAE@ABVQStyleOptionTab@@@Z @ 2308 NONAME ; QStyleOptionTabV2::QStyleOptionTabV2(class QStyleOptionTab const &)
	?trUtf8@QGraphicsSystemPlugin@@SA?AVQString@@PBD0H@Z @ 2309 NONAME ; class QString QGraphicsSystemPlugin::trUtf8(char const *, char const *, int)
	?hotSpot@QGesture@@QBE?AVQPointF@@XZ @ 2310 NONAME ; class QPointF QGesture::hotSpot(void) const
	?eventFilter@QCalendarWidget@@MAE_NPAVQObject@@PAVQEvent@@@Z @ 2311 NONAME ; bool QCalendarWidget::eventFilter(class QObject *, class QEvent *)
	?symbianEventFilter@QApplication@@UAE_NPBVQSymbianEvent@@@Z @ 2312 NONAME ; bool QApplication::symbianEventFilter(class QSymbianEvent const *)
	?setNotchesVisible@QDial@@QAEX_N@Z @ 2313 NONAME ; void QDial::setNotchesVisible(bool)
	?items@QGraphicsView@@QBE?AV?$QList@PAVQGraphicsItem@@@@ABVQRect@@W4ItemSelectionMode@Qt@@@Z @ 2314 NONAME ; class QList<class QGraphicsItem *> QGraphicsView::items(class QRect const &, enum Qt::ItemSelectionMode) const
	?setRenderHints@QGraphicsView@@QAEXV?$QFlags@W4RenderHint@QPainter@@@@@Z @ 2315 NONAME ; void QGraphicsView::setRenderHints(class QFlags<enum QPainter::RenderHint>)
	??0QTreeWidgetItem@@QAE@ABV0@@Z @ 2316 NONAME ; QTreeWidgetItem::QTreeWidgetItem(class QTreeWidgetItem const &)
	??_5QRegion@@QAEAAV0@ABV0@@Z @ 2317 NONAME ; class QRegion & QRegion::operator|=(class QRegion const &)
	?minimumSize@QWidgetItemV2@@UBE?AVQSize@@XZ @ 2318 NONAME ; class QSize QWidgetItemV2::minimumSize(void) const
	??YQScriptLine@@QAEXABU0@@Z @ 2319 NONAME ; void QScriptLine::operator+=(struct QScriptLine const &)
	?qt_metacall@QCommandLinkButton@@UAEHW4Call@QMetaObject@@HPAPAX@Z @ 2320 NONAME ; int QCommandLinkButton::qt_metacall(enum QMetaObject::Call, int, void * *)
	??1QGraphicsSceneHelpEvent@@UAE@XZ @ 2321 NONAME ; QGraphicsSceneHelpEvent::~QGraphicsSceneHelpEvent(void)
	?d_func@QGraphicsSceneBspTreeIndex@@ABEPBVQGraphicsSceneBspTreeIndexPrivate@@XZ @ 2322 NONAME ; class QGraphicsSceneBspTreeIndexPrivate const * QGraphicsSceneBspTreeIndex::d_func(void) const
	?offset@QHeaderView@@QBEHXZ @ 2323 NONAME ; int QHeaderView::offset(void) const
	?cursorRect@QTextControl@@QBE?AVQRectF@@XZ @ 2324 NONAME ; class QRectF QTextControl::cursorRect(void) const
	?insertToolBarBreak@QMainWindowLayout@@QAEXPAVQToolBar@@@Z @ 2325 NONAME ; void QMainWindowLayout::insertToolBarBreak(class QToolBar *)
	?qt_metacall@QBoxLayout@@UAEHW4Call@QMetaObject@@HPAPAX@Z @ 2326 NONAME ; int QBoxLayout::qt_metacall(enum QMetaObject::Call, int, void * *)
	?flags@QStringListModel@@UBE?AV?$QFlags@W4ItemFlag@Qt@@@@ABVQModelIndex@@@Z @ 2327 NONAME ; class QFlags<enum Qt::ItemFlag> QStringListModel::flags(class QModelIndex const &) const
	?tr@QWorkspace@@SA?AVQString@@PBD0@Z @ 2328 NONAME ; class QString QWorkspace::tr(char const *, char const *)
	??0QColor@@QAE@PBD@Z @ 2329 NONAME ; QColor::QColor(char const *)
	?fillRect@QPainter@@QAEXHHHHABVQBrush@@@Z @ 2330 NONAME ; void QPainter::fillRect(int, int, int, int, class QBrush const &)
	?unsetLayoutDirection@QWidget@@QAEXXZ @ 2331 NONAME ; void QWidget::unsetLayoutDirection(void)
	?slerp@QQuaternion@@SA?AV1@ABV1@0M@Z @ 2332 NONAME ; class QQuaternion QQuaternion::slerp(class QQuaternion const &, class QQuaternion const &, float)
	?widgetRemoved@QStackedLayout@@IAEXH@Z @ 2333 NONAME ; void QStackedLayout::widgetRemoved(int)
	?isFlat@QGroupBox@@QBE_NXZ @ 2334 NONAME ; bool QGroupBox::isFlat(void) const
	?qt_metacall@QTextDocumentLayout@@UAEHW4Call@QMetaObject@@HPAPAX@Z @ 2335 NONAME ; int QTextDocumentLayout::qt_metacall(enum QMetaObject::Call, int, void * *)
	?stringProperty@QTextFormat@@QBE?AVQString@@H@Z @ 2336 NONAME ; class QString QTextFormat::stringProperty(int) const
	?qt_metacast@QPlainTextEdit@@UAEPAXPBD@Z @ 2337 NONAME ; void * QPlainTextEdit::qt_metacast(char const *)
	?intersects@QItemSelectionRange@@QBE_NABV1@@Z @ 2338 NONAME ; bool QItemSelectionRange::intersects(class QItemSelectionRange const &) const
	?clearSelection@QTextCursor@@QAEXXZ @ 2339 NONAME ; void QTextCursor::clearSelection(void)
	?trUtf8@QFrame@@SA?AVQString@@PBD0H@Z @ 2340 NONAME ; class QString QFrame::trUtf8(char const *, char const *, int)
	?setBlockFormat@QTextDocumentPrivate@@QAEXABVQTextBlock@@0ABVQTextBlockFormat@@W4FormatChangeMode@1@@Z @ 2341 NONAME ; void QTextDocumentPrivate::setBlockFormat(class QTextBlock const &, class QTextBlock const &, class QTextBlockFormat const &, enum QTextDocumentPrivate::FormatChangeMode)
	?directory_sys@QFileDialogPrivate@@QBE?AVQString@@XZ @ 2342 NONAME ; class QString QFileDialogPrivate::directory_sys(void) const
	?undo@QTextEdit@@QAEXXZ @ 2343 NONAME ; void QTextEdit::undo(void)
	?addItem@QStackedLayout@@UAEXPAVQLayoutItem@@@Z @ 2344 NONAME ; void QStackedLayout::addItem(class QLayoutItem *)
	?lineCount@QTextBlock@@QBEHXZ @ 2345 NONAME ; int QTextBlock::lineCount(void) const
	?ensureWidgetVisible@QScrollArea@@QAEXPAVQWidget@@HH@Z @ 2346 NONAME ; void QScrollArea::ensureWidgetVisible(class QWidget *, int, int)
	?tr@QWorkspace@@SA?AVQString@@PBD0H@Z @ 2347 NONAME ; class QString QWorkspace::tr(char const *, char const *, int)
	?translate@QPainter@@QAEXABVQPoint@@@Z @ 2348 NONAME ; void QPainter::translate(class QPoint const &)
	?tr@QStackedLayout@@SA?AVQString@@PBD0@Z @ 2349 NONAME ; class QString QStackedLayout::tr(char const *, char const *)
	?dragLeaveEvent@QWidget@@MAEXPAVQDragLeaveEvent@@@Z @ 2350 NONAME ; void QWidget::dragLeaveEvent(class QDragLeaveEvent *)
	?trUtf8@QGraphicsGrayscaleEffect@@SA?AVQString@@PBD0@Z @ 2351 NONAME ; class QString QGraphicsGrayscaleEffect::trUtf8(char const *, char const *)
	?format@QTextObject@@QBE?AVQTextFormat@@XZ @ 2352 NONAME ; class QTextFormat QTextObject::format(void) const
	?addAction@QActionGroup@@QAEPAVQAction@@ABVQIcon@@ABVQString@@@Z @ 2353 NONAME ; class QAction * QActionGroup::addAction(class QIcon const &, class QString const &)
	?update@QGraphicsEffect@@QAEXXZ @ 2354 NONAME ; void QGraphicsEffect::update(void)
	?indexes@QItemSelectionRange@@QBE?AV?$QList@VQModelIndex@@@@XZ @ 2355 NONAME ; class QList<class QModelIndex> QItemSelectionRange::indexes(void) const
	?width@QPixmap@@QBEHXZ @ 2356 NONAME ; int QPixmap::width(void) const
	?resetMatrix@QGraphicsItem@@QAEXXZ @ 2357 NONAME ; void QGraphicsItem::resetMatrix(void)
	?drawTextItem@QPaintEngine@@UAEXABVQPointF@@ABVQTextItem@@@Z @ 2358 NONAME ; void QPaintEngine::drawTextItem(class QPointF const &, class QTextItem const &)
	?toPath@QWingedEdge@@QBE?AVQPainterPath@@XZ @ 2359 NONAME ; class QPainterPath QWingedEdge::toPath(void) const
	?type@QTextFormat@@QBEHXZ @ 2360 NONAME ; int QTextFormat::type(void) const
	?setGraphicsEffect@QGraphicsItem@@QAEXPAVQGraphicsEffect@@@Z @ 2361 NONAME ; void QGraphicsItem::setGraphicsEffect(class QGraphicsEffect *)
	?drawText@QPainter@@QAEXHHHHHABVQString@@PAVQRect@@@Z @ 2362 NONAME ; void QPainter::drawText(int, int, int, int, int, class QString const &, class QRect *)
	?qt_metacall@QSound@@UAEHW4Call@QMetaObject@@HPAPAX@Z @ 2363 NONAME ; int QSound::qt_metacall(enum QMetaObject::Call, int, void * *)
	?paintEvent@QHeaderView@@MAEXPAVQPaintEvent@@@Z @ 2364 NONAME ; void QHeaderView::paintEvent(class QPaintEvent *)
	??0QPen@@QAE@W4PenStyle@Qt@@@Z @ 2365 NONAME ; QPen::QPen(enum Qt::PenStyle)
	?endPaint@QWidgetBackingStore@@AAEXABVQRegion@@PAVQWindowSurface@@PAUBeginPaintInfo@@@Z @ 2366 NONAME ; void QWidgetBackingStore::endPaint(class QRegion const &, class QWindowSurface *, struct BeginPaintInfo *)
	?d_func@QAbstractSlider@@AAEPAVQAbstractSliderPrivate@@XZ @ 2367 NONAME ; class QAbstractSliderPrivate * QAbstractSlider::d_func(void)
	?scenePos@QGraphicsItem@@QBE?AVQPointF@@XZ @ 2368 NONAME ; class QPointF QGraphicsItem::scenePos(void) const
	?minimumDateTime@QDateTimeEdit@@QBE?AVQDateTime@@XZ @ 2369 NONAME ; class QDateTime QDateTimeEdit::minimumDateTime(void) const
	??1QWidgetPrivate@@UAE@XZ @ 2370 NONAME ; QWidgetPrivate::~QWidgetPrivate(void)
	?itemDoubleClicked@QListWidget@@IAEXPAVQListWidgetItem@@@Z @ 2371 NONAME ; void QListWidget::itemDoubleClicked(class QListWidgetItem *)
	?setDropEnabled@QStandardItem@@QAEX_N@Z @ 2372 NONAME ; void QStandardItem::setDropEnabled(bool)
	?qt_metacall@QInputContext@@UAEHW4Call@QMetaObject@@HPAPAX@Z @ 2373 NONAME ; int QInputContext::qt_metacall(enum QMetaObject::Call, int, void * *)
	?timeChanged@QDateTimeEdit@@IAEXABVQTime@@@Z @ 2374 NONAME ; void QDateTimeEdit::timeChanged(class QTime const &)
	?timerEvent@QFileSystemModel@@MAEXPAVQTimerEvent@@@Z @ 2375 NONAME ; void QFileSystemModel::timerEvent(class QTimerEvent *)
	?setCurrentIndex@QAbstractItemView@@QAEXABVQModelIndex@@@Z @ 2376 NONAME ; void QAbstractItemView::setCurrentIndex(class QModelIndex const &)
	??0QStandardItem@@IAE@AAVQStandardItemPrivate@@@Z @ 2377 NONAME ; QStandardItem::QStandardItem(class QStandardItemPrivate &)
	?select@QItemSelection@@QAEXABVQModelIndex@@0@Z @ 2378 NONAME ; void QItemSelection::select(class QModelIndex const &, class QModelIndex const &)
	?insertBlock@QTextCursor@@QAEXXZ @ 2379 NONAME ; void QTextCursor::insertBlock(void)
	?currentItemChanged@QTableWidget@@IAEXPAVQTableWidgetItem@@0@Z @ 2380 NONAME ; void QTableWidget::currentItemChanged(class QTableWidgetItem *, class QTableWidgetItem *)
	?create@QInputContextFactory@@SAPAVQInputContext@@ABVQString@@PAVQObject@@@Z @ 2381 NONAME ; class QInputContext * QInputContextFactory::create(class QString const &, class QObject *)
	?linkHovered@QLabel@@IAEXABVQString@@@Z @ 2382 NONAME ; void QLabel::linkHovered(class QString const &)
	?styleValue@Declaration@QCss@@QBE?AW4BorderStyle@2@XZ @ 2383 NONAME ; enum QCss::BorderStyle QCss::Declaration::styleValue(void) const
	?isCornerButtonEnabled@QTableView@@QBE_NXZ @ 2384 NONAME ; bool QTableView::isCornerButtonEnabled(void) const
	?setFilterRegExp@QSortFilterProxyModel@@QAEXABVQRegExp@@@Z @ 2385 NONAME ; void QSortFilterProxyModel::setFilterRegExp(class QRegExp const &)
	?qt_metacall@QCoeFepInputContext@@UAEHW4Call@QMetaObject@@HPAPAX@Z @ 2386 NONAME ; int QCoeFepInputContext::qt_metacall(enum QMetaObject::Call, int, void * *)
	?combinedMatrix@QPainter@@QBE?AVQMatrix@@XZ @ 2387 NONAME ; class QMatrix QPainter::combinedMatrix(void) const
	?tr@QStyleSheetStyle@@SA?AVQString@@PBD0@Z @ 2388 NONAME ; class QString QStyleSheetStyle::tr(char const *, char const *)
	?d_func@QTextEdit@@AAEPAVQTextEditPrivate@@XZ @ 2389 NONAME ; class QTextEditPrivate * QTextEdit::d_func(void)
	?qDrawBorderPixmap@@YAXPAVQPainter@@ABVQRect@@ABVQMargins@@ABVQPixmap@@12ABUQTileRules@@V?$QFlags@W4DrawingHint@QDrawBorderPixmap@@@@@Z @ 2390 NONAME ; void qDrawBorderPixmap(class QPainter *, class QRect const &, class QMargins const &, class QPixmap const &, class QRect const &, class QMargins const &, struct QTileRules const &, class QFlags<enum QDrawBorderPixmap::DrawingHint>)
	?setSubmitPolicy@QDataWidgetMapper@@QAEXW4SubmitPolicy@1@@Z @ 2391 NONAME ; void QDataWidgetMapper::setSubmitPolicy(enum QDataWidgetMapper::SubmitPolicy)
	?qt_metacall@QWindowsStyle@@UAEHW4Call@QMetaObject@@HPAPAX@Z @ 2392 NONAME ; int QWindowsStyle::qt_metacall(enum QMetaObject::Call, int, void * *)
	?key@QShortcutEvent@@QBEABVQKeySequence@@XZ @ 2393 NONAME ; class QKeySequence const & QShortcutEvent::key(void) const
	?intValueSelected@QInputDialog@@IAEXH@Z @ 2394 NONAME ; void QInputDialog::intValueSelected(int)
	?getStaticMetaObject@QMainWindowLayout@@SAABUQMetaObject@@XZ @ 2395 NONAME ; struct QMetaObject const & QMainWindowLayout::getStaticMetaObject(void)
	?doubleProperty@QTextFormat@@QBEMH@Z @ 2396 NONAME ; float QTextFormat::doubleProperty(int) const
	?dragLeaveEvent@QGraphicsScene@@MAEXPAVQGraphicsSceneDragDropEvent@@@Z @ 2397 NONAME ; void QGraphicsScene::dragLeaveEvent(class QGraphicsSceneDragDropEvent *)
	?removeItemWidget@QListWidget@@QAEXPAVQListWidgetItem@@@Z @ 2398 NONAME ; void QListWidget::removeItemWidget(class QListWidgetItem *)
	?addWidget@QLayout@@QAEXPAVQWidget@@@Z @ 2399 NONAME ; void QLayout::addWidget(class QWidget *)
	?standardButton@QDialogButtonBox@@QBE?AW4StandardButton@1@PAVQAbstractButton@@@Z @ 2400 NONAME ; enum QDialogButtonBox::StandardButton QDialogButtonBox::standardButton(class QAbstractButton *) const
	?normalize@QVector4D@@QAEXXZ @ 2401 NONAME ; void QVector4D::normalize(void)
	?renderFlags@QTextItem@@QBE?AV?$QFlags@W4RenderFlag@QTextItem@@@@XZ @ 2402 NONAME ; class QFlags<enum QTextItem::RenderFlag> QTextItem::renderFlags(void) const
	?qt_metacall@QGraphicsAnchor@@UAEHW4Call@QMetaObject@@HPAPAX@Z @ 2403 NONAME ; int QGraphicsAnchor::qt_metacall(enum QMetaObject::Call, int, void * *)
	??0QFileDialog@@QAE@PAVQWidget@@V?$QFlags@W4WindowType@Qt@@@@@Z @ 2404 NONAME ; QFileDialog::QFileDialog(class QWidget *, class QFlags<enum Qt::WindowType>)
	?trUtf8@QSplitterHandle@@SA?AVQString@@PBD0@Z @ 2405 NONAME ; class QString QSplitterHandle::trUtf8(char const *, char const *)
	?setStartAngle@QGraphicsEllipseItem@@QAEXH@Z @ 2406 NONAME ; void QGraphicsEllipseItem::setStartAngle(int)
	?qt_metacast@QSessionManager@@UAEPAXPBD@Z @ 2407 NONAME ; void * QSessionManager::qt_metacast(char const *)
	?d_func@QBasicKeyEventTransition@@ABEPBVQBasicKeyEventTransitionPrivate@@XZ @ 2408 NONAME ; class QBasicKeyEventTransitionPrivate const * QBasicKeyEventTransition::d_func(void) const
	?end@QLineEdit@@QAEX_N@Z @ 2409 NONAME ; void QLineEdit::end(bool)
	?currentRow@QCompleter@@QBEHXZ @ 2410 NONAME ; int QCompleter::currentRow(void) const
	?setPopup@QCompleter@@QAEXPAVQAbstractItemView@@@Z @ 2411 NONAME ; void QCompleter::setPopup(class QAbstractItemView *)
	?qRed@@YAHI@Z @ 2412 NONAME ; int qRed(unsigned int)
	?drawChord@QPainter@@QAEXABVQRectF@@HH@Z @ 2413 NONAME ; void QPainter::drawChord(class QRectF const &, int, int)
	??0QWingedEdge@@QAE@XZ @ 2414 NONAME ; QWingedEdge::QWingedEdge(void)
	?oldSize@QResizeEvent@@QBEABVQSize@@XZ @ 2415 NONAME ; class QSize const & QResizeEvent::oldSize(void) const
	?lineWrapMode@QTextEdit@@QBE?AW4LineWrapMode@1@XZ @ 2416 NONAME ; enum QTextEdit::LineWrapMode QTextEdit::lineWrapMode(void) const
	??BQQuaternion@@QBE?AVQVariant@@XZ @ 2417 NONAME ; QQuaternion::operator class QVariant(void) const
	?timerEvent@QTreeView@@MAEXPAVQTimerEvent@@@Z @ 2418 NONAME ; void QTreeView::timerEvent(class QTimerEvent *)
	?horizontalShearAt@QGraphicsItemAnimation@@QBEMM@Z @ 2419 NONAME ; float QGraphicsItemAnimation::horizontalShearAt(float) const
	?tr@QDockWidget@@SA?AVQString@@PBD0@Z @ 2420 NONAME ; class QString QDockWidget::tr(char const *, char const *)
	?autoRepeat@QShortcut@@QBE_NXZ @ 2421 NONAME ; bool QShortcut::autoRepeat(void) const
	?tr@QMainWindowLayout@@SA?AVQString@@PBD0H@Z @ 2422 NONAME ; class QString QMainWindowLayout::tr(char const *, char const *, int)
	?d_func@QButtonGroup@@ABEPBVQButtonGroupPrivate@@XZ @ 2423 NONAME ; class QButtonGroupPrivate const * QButtonGroup::d_func(void) const
	?resizeSections@QHeaderView@@QAEXW4ResizeMode@1@@Z @ 2424 NONAME ; void QHeaderView::resizeSections(enum QHeaderView::ResizeMode)
	?isObscured@QGraphicsItem@@QBE_NMMMM@Z @ 2425 NONAME ; bool QGraphicsItem::isObscured(float, float, float, float) const
	??_EQGraphicsObject@@UAE@I@Z @ 2426 NONAME ; QGraphicsObject::~QGraphicsObject(unsigned int)
	??1QDockWidgetLayout@@UAE@XZ @ 2427 NONAME ; QDockWidgetLayout::~QDockWidgetLayout(void)
	?setFont@QGraphicsTextItem@@QAEXABVQFont@@@Z @ 2428 NONAME ; void QGraphicsTextItem::setFont(class QFont const &)
	??D@YA?AVQRegion@@ABV0@ABVQTransform@@@Z @ 2429 NONAME ; class QRegion operator*(class QRegion const &, class QTransform const &)
	?staticMetaObject@QFontDialog@@2UQMetaObject@@B @ 2430 NONAME ; struct QMetaObject const QFontDialog::staticMetaObject
	?setTabPosition@QTabWidget@@QAEXW4TabPosition@1@@Z @ 2431 NONAME ; void QTabWidget::setTabPosition(enum QTabWidget::TabPosition)
	?trUtf8@QMdiSubWindow@@SA?AVQString@@PBD0H@Z @ 2432 NONAME ; class QString QMdiSubWindow::trUtf8(char const *, char const *, int)
	?paintDevice@QAbstractTextDocumentLayout@@QBEPAVQPaintDevice@@XZ @ 2433 NONAME ; class QPaintDevice * QAbstractTextDocumentLayout::paintDevice(void) const
	?tr@QTextList@@SA?AVQString@@PBD0H@Z @ 2434 NONAME ; class QString QTextList::tr(char const *, char const *, int)
	?state@QMovie@@QBE?AW4MovieState@1@XZ @ 2435 NONAME ; enum QMovie::MovieState QMovie::state(void) const
	?sceneEvent@QGraphicsTextItem@@MAE_NPAVQEvent@@@Z @ 2436 NONAME ; bool QGraphicsTextItem::sceneEvent(class QEvent *)
	?hiResGlobalPos@QTabletEvent@@QBEABVQPointF@@XZ @ 2437 NONAME ; class QPointF const & QTabletEvent::hiResGlobalPos(void) const
	?drawEllipse@QPainter@@QAEXHHHH@Z @ 2438 NONAME ; void QPainter::drawEllipse(int, int, int, int)
	?trUtf8@QGraphicsTransform@@SA?AVQString@@PBD0@Z @ 2439 NONAME ; class QString QGraphicsTransform::trUtf8(char const *, char const *)
	?d_func@QGraphicsSimpleTextItem@@AAEPAVQGraphicsSimpleTextItemPrivate@@XZ @ 2440 NONAME ; class QGraphicsSimpleTextItemPrivate * QGraphicsSimpleTextItem::d_func(void)
	??1FileInfo@QZipReader@@QAE@XZ @ 2441 NONAME ; QZipReader::FileInfo::~FileInfo(void)
	?isFirstItemColumnSpanned@QTreeWidget@@QBE_NPBVQTreeWidgetItem@@@Z @ 2442 NONAME ; bool QTreeWidget::isFirstItemColumnSpanned(class QTreeWidgetItem const *) const
	?d_func@QClipboard@@ABEPBVQClipboardPrivate@@XZ @ 2443 NONAME ; class QClipboardPrivate const * QClipboard::d_func(void) const
	?combineOpacityFromParent@QGraphicsItemPrivate@@QBEMM@Z @ 2444 NONAME ; float QGraphicsItemPrivate::combineOpacityFromParent(float) const
	?qt_metacast@QDial@@UAEPAXPBD@Z @ 2445 NONAME ; void * QDial::qt_metacast(char const *)
	?setStandardColor@QColorDialog@@SAXHI@Z @ 2446 NONAME ; void QColorDialog::setStandardColor(int, unsigned int)
	?isImageFormat@QTextFormat@@QBE_NXZ @ 2447 NONAME ; bool QTextFormat::isImageFormat(void) const
	?d_func@QAbstractItemView@@AAEPAVQAbstractItemViewPrivate@@XZ @ 2448 NONAME ; class QAbstractItemViewPrivate * QAbstractItemView::d_func(void)
	?lexem@Parser@QCss@@QBE?AVQString@@XZ @ 2449 NONAME ; class QString QCss::Parser::lexem(void) const
	?insertColumn@QStandardItem@@QAEXHABV?$QList@PAVQStandardItem@@@@@Z @ 2450 NONAME ; void QStandardItem::insertColumn(int, class QList<class QStandardItem *> const &)
	?isItemSelected@QTreeWidget@@QBE_NPBVQTreeWidgetItem@@@Z @ 2451 NONAME ; bool QTreeWidget::isItemSelected(class QTreeWidgetItem const *) const
	?display@QEglContext@@QBEHXZ @ 2452 NONAME ; int QEglContext::display(void) const
	?dropEvent@QGraphicsItem@@MAEXPAVQGraphicsSceneDragDropEvent@@@Z @ 2453 NONAME ; void QGraphicsItem::dropEvent(class QGraphicsSceneDragDropEvent *)
	?text@QGraphicsSimpleTextItem@@QBE?AVQString@@XZ @ 2454 NONAME ; class QString QGraphicsSimpleTextItem::text(void) const
	?isSizeGripEnabled@QStatusBar@@QBE_NXZ @ 2455 NONAME ; bool QStatusBar::isSizeGripEnabled(void) const
	?end@QTextDocumentPrivate@@QBE?AVConstIterator@?$QFragmentMap@VQTextFragmentData@@@@XZ @ 2456 NONAME ; class QFragmentMap<class QTextFragmentData>::ConstIterator QTextDocumentPrivate::end(void) const
	?closeEvent@QProgressDialog@@MAEXPAVQCloseEvent@@@Z @ 2457 NONAME ; void QProgressDialog::closeEvent(class QCloseEvent *)
	?dx@QMatrix@@QBEMXZ @ 2458 NONAME ; float QMatrix::dx(void) const
	?numColors@QImage@@QBEHXZ @ 2459 NONAME ; int QImage::numColors(void) const
	?wheelEvent@QComboBox@@MAEXPAVQWheelEvent@@@Z @ 2460 NONAME ; void QComboBox::wheelEvent(class QWheelEvent *)
	?takeColumn@QStandardItemModel@@QAE?AV?$QList@PAVQStandardItem@@@@H@Z @ 2461 NONAME ; class QList<class QStandardItem *> QStandardItemModel::takeColumn(int)
	?tangentialPressure@QTabletEvent@@QBEMXZ @ 2462 NONAME ; float QTabletEvent::tangentialPressure(void) const
	?setElideMode@QTabWidget@@QAEXW4TextElideMode@Qt@@@Z @ 2463 NONAME ; void QTabWidget::setElideMode(enum Qt::TextElideMode)
	?trUtf8@QDesktopWidget@@SA?AVQString@@PBD0H@Z @ 2464 NONAME ; class QString QDesktopWidget::trUtf8(char const *, char const *, int)
	?mouseReleaseEvent@QComboBoxPrivateContainer@@MAEXPAVQMouseEvent@@@Z @ 2465 NONAME ; void QComboBoxPrivateContainer::mouseReleaseEvent(class QMouseEvent *)
	?_q_navigateForward@QFileDialogPrivate@@QAEXXZ @ 2466 NONAME ; void QFileDialogPrivate::_q_navigateForward(void)
	??0QPaintEngineState@@QAE@ABV0@@Z @ 2467 NONAME ; QPaintEngineState::QPaintEngineState(class QPaintEngineState const &)
	?widget@QGraphicsEffectSource@@QBEPBVQWidget@@XZ @ 2468 NONAME ; class QWidget const * QGraphicsEffectSource::widget(void) const
	?textColor@QTreeWidgetItem@@QBE?AVQColor@@H@Z @ 2469 NONAME ; class QColor QTreeWidgetItem::textColor(int) const
	?showEvent@QWorkspace@@MAEXPAVQShowEvent@@@Z @ 2470 NONAME ; void QWorkspace::showEvent(class QShowEvent *)
	?scroll@QPixmap@@QAEXHHABVQRect@@PAVQRegion@@@Z @ 2471 NONAME ; void QPixmap::scroll(int, int, class QRect const &, class QRegion *)
	?focusOutEvent@QPushButton@@MAEXPAVQFocusEvent@@@Z @ 2472 NONAME ; void QPushButton::focusOutEvent(class QFocusEvent *)
	?redo@QUndoCommand@@UAEXXZ @ 2473 NONAME ; void QUndoCommand::redo(void)
	??0QWhatsThis@@AAE@XZ @ 2474 NONAME ; QWhatsThis::QWhatsThis(void)
	?setCalendarWidget@QDateTimeEdit@@QAEXPAVQCalendarWidget@@@Z @ 2475 NONAME ; void QDateTimeEdit::setCalendarWidget(class QCalendarWidget *)
	?minimumWidth@QWidget@@QBEHXZ @ 2476 NONAME ; int QWidget::minimumWidth(void) const
	?tr@QWizard@@SA?AVQString@@PBD0H@Z @ 2477 NONAME ; class QString QWizard::tr(char const *, char const *, int)
	?trUtf8@QFormLayout@@SA?AVQString@@PBD0@Z @ 2478 NONAME ; class QString QFormLayout::trUtf8(char const *, char const *)
	??0QAbstractScrollArea@@IAE@AAVQAbstractScrollAreaPrivate@@PAVQWidget@@@Z @ 2479 NONAME ; QAbstractScrollArea::QAbstractScrollArea(class QAbstractScrollAreaPrivate &, class QWidget *)
	?tr@QPixmapFilter@@SA?AVQString@@PBD0@Z @ 2480 NONAME ; class QString QPixmapFilter::tr(char const *, char const *)
	?tr@QGraphicsItemAnimation@@SA?AVQString@@PBD0H@Z @ 2481 NONAME ; class QString QGraphicsItemAnimation::tr(char const *, char const *, int)
	?contextMenuEvent@QGraphicsItem@@MAEXPAVQGraphicsSceneContextMenuEvent@@@Z @ 2482 NONAME ; void QGraphicsItem::contextMenuEvent(class QGraphicsSceneContextMenuEvent *)
	?ensureCursorVisible@QTextControl@@UAEXXZ @ 2483 NONAME ; void QTextControl::ensureCursorVisible(void)
	?d_func@QFormLayout@@ABEPBVQFormLayoutPrivate@@XZ @ 2484 NONAME ; class QFormLayoutPrivate const * QFormLayout::d_func(void) const
	?cornerWidget@QAbstractScrollArea@@QBEPAVQWidget@@XZ @ 2485 NONAME ; class QWidget * QAbstractScrollArea::cornerWidget(void) const
	?destroy@QEglContext@@QAEXXZ @ 2486 NONAME ; void QEglContext::destroy(void)
	?isReadOnly@QLineEdit@@QBE_NXZ @ 2487 NONAME ; bool QLineEdit::isReadOnly(void) const
	?intValue@QLCDNumber@@QBEHXZ @ 2488 NONAME ; int QLCDNumber::intValue(void) const
	??0QVector4D@@QAE@ABVQVector2D@@@Z @ 2489 NONAME ; QVector4D::QVector4D(class QVector2D const &)
	?tabRemoved@QTabWidget@@MAEXH@Z @ 2490 NONAME ; void QTabWidget::tabRemoved(int)
	?polish@QProxyStyle@@UAEXAAVQPalette@@@Z @ 2491 NONAME ; void QProxyStyle::polish(class QPalette &)
	?leaveEvent@QWidget@@MAEXPAVQEvent@@@Z @ 2492 NONAME ; void QWidget::leaveEvent(class QEvent *)
	?setEditable@QComboBox@@QAEX_N@Z @ 2493 NONAME ; void QComboBox::setEditable(bool)
	?setIntRange@QInputDialog@@QAEXHH@Z @ 2494 NONAME ; void QInputDialog::setIntRange(int, int)
	?setWordWrap@QLabel@@QAEX_N@Z @ 2495 NONAME ; void QLabel::setWordWrap(bool)
	?findBlockByLineNumber@QTextDocument@@QBE?AVQTextBlock@@H@Z @ 2496 NONAME ; class QTextBlock QTextDocument::findBlockByLineNumber(int) const
	??ZQQuaternion@@QAEAAV0@ABV0@@Z @ 2497 NONAME ; class QQuaternion & QQuaternion::operator-=(class QQuaternion const &)
	?sync@QPaintEngineEx@@UAEXXZ @ 2498 NONAME ; void QPaintEngineEx::sync(void)
	?supportsOption@QImageWriter@@QBE_NW4ImageOption@QImageIOHandler@@@Z @ 2499 NONAME ; bool QImageWriter::supportsOption(enum QImageIOHandler::ImageOption) const
	??_EQListWidget@@UAE@I@Z @ 2500 NONAME ; QListWidget::~QListWidget(unsigned int)
	??_EQColorDialog@@UAE@I@Z @ 2501 NONAME ; QColorDialog::~QColorDialog(unsigned int)
	?wheelEvent@QGraphicsItem@@MAEXPAVQGraphicsSceneWheelEvent@@@Z @ 2502 NONAME ; void QGraphicsItem::wheelEvent(class QGraphicsSceneWheelEvent *)
	?deleteChar@QTextCursor@@QAEXXZ @ 2503 NONAME ; void QTextCursor::deleteChar(void)
	?isBrushSet@QPalette@@QBE_NW4ColorGroup@1@W4ColorRole@1@@Z @ 2504 NONAME ; bool QPalette::isBrushSet(enum QPalette::ColorGroup, enum QPalette::ColorRole) const
	?fromCmykF@QColor@@SA?AV1@MMMMM@Z @ 2505 NONAME ; class QColor QColor::fromCmykF(float, float, float, float, float)
	?mapFromItem@QGraphicsItem@@QBE?AVQPointF@@PBV1@ABV2@@Z @ 2506 NONAME ; class QPointF QGraphicsItem::mapFromItem(class QGraphicsItem const *, class QPointF const &) const
	?tr@QAbstractProxyModel@@SA?AVQString@@PBD0@Z @ 2507 NONAME ; class QString QAbstractProxyModel::tr(char const *, char const *)
	?showGrid@QTableView@@QBE_NXZ @ 2508 NONAME ; bool QTableView::showGrid(void) const
	?labelForField@QFormLayout@@QBEPAVQWidget@@PAV2@@Z @ 2509 NONAME ; class QWidget * QFormLayout::labelForField(class QWidget *) const
	?setData@QDirModel@@UAE_NABVQModelIndex@@ABVQVariant@@H@Z @ 2510 NONAME ; bool QDirModel::setData(class QModelIndex const &, class QVariant const &, int)
	?createEditor@QStyledItemDelegate@@UBEPAVQWidget@@PAV2@ABVQStyleOptionViewItem@@ABVQModelIndex@@@Z @ 2511 NONAME ; class QWidget * QStyledItemDelegate::createEditor(class QWidget *, class QStyleOptionViewItem const &, class QModelIndex const &) const
	?setGlyphCache@QFontEngine@@QAEXPAXPAVQFontEngineGlyphCache@@@Z @ 2512 NONAME ; void QFontEngine::setGlyphCache(void *, class QFontEngineGlyphCache *)
	?decimals@QDoubleSpinBox@@QBEHXZ @ 2513 NONAME ; int QDoubleSpinBox::decimals(void) const
	??_EQGraphicsSceneHoverEvent@@UAE@I@Z @ 2514 NONAME ; QGraphicsSceneHoverEvent::~QGraphicsSceneHoverEvent(unsigned int)
	?staticMetaObject@QTextFrame@@2UQMetaObject@@B @ 2515 NONAME ; struct QMetaObject const QTextFrame::staticMetaObject
	?emitChanged@QClipboard@@AAEXW4Mode@1@@Z @ 2516 NONAME ; void QClipboard::emitChanged(enum QClipboard::Mode)
	?metaObject@QVBoxLayout@@UBEPBUQMetaObject@@XZ @ 2517 NONAME ; struct QMetaObject const * QVBoxLayout::metaObject(void) const
	?setAnimated@QMainWindow@@QAEX_N@Z @ 2518 NONAME ; void QMainWindow::setAnimated(bool)
	?paste@QLineControl@@QAEXXZ @ 2519 NONAME ; void QLineControl::paste(void)
	?buttons@QGraphicsSceneWheelEvent@@QBE?AV?$QFlags@W4MouseButton@Qt@@@@XZ @ 2520 NONAME ; class QFlags<enum Qt::MouseButton> QGraphicsSceneWheelEvent::buttons(void) const
	?z@QQuaternion@@QBEMXZ @ 2521 NONAME ; float QQuaternion::z(void) const
	?styleHint@QProxyStyle@@UBEHW4StyleHint@QStyle@@PBVQStyleOption@@PBVQWidget@@PAVQStyleHintReturn@@@Z @ 2522 NONAME ; int QProxyStyle::styleHint(enum QStyle::StyleHint, class QStyleOption const *, class QWidget const *, class QStyleHintReturn *) const
	?tr@QDrag@@SA?AVQString@@PBD0@Z @ 2523 NONAME ; class QString QDrag::tr(char const *, char const *)
	?standardIcon@QMessageBox@@SA?AVQPixmap@@W4Icon@1@@Z @ 2524 NONAME ; class QPixmap QMessageBox::standardIcon(enum QMessageBox::Icon)
	?qt_metacast@QSortFilterProxyModel@@UAEPAXPBD@Z @ 2525 NONAME ; void * QSortFilterProxyModel::qt_metacast(char const *)
	?setNameFilters_sys@QFileDialogPrivate@@QAEXABVQStringList@@@Z @ 2526 NONAME ; void QFileDialogPrivate::setNameFilters_sys(class QStringList const &)
	?reason@QContextMenuEvent@@QBE?AW4Reason@1@XZ @ 2527 NONAME ; enum QContextMenuEvent::Reason QContextMenuEvent::reason(void) const
	??0QWorkspace@@QAE@PAVQWidget@@@Z @ 2528 NONAME ; QWorkspace::QWorkspace(class QWidget *)
	?sorting@QDirModel@@QBE?AV?$QFlags@W4SortFlag@QDir@@@@XZ @ 2529 NONAME ; class QFlags<enum QDir::SortFlag> QDirModel::sorting(void) const
	?clear@QGraphicsItemAnimation@@QAEXXZ @ 2530 NONAME ; void QGraphicsItemAnimation::clear(void)
	?hslSaturation@QColor@@QBEHXZ @ 2531 NONAME ; int QColor::hslSaturation(void) const
	?count@QHeaderView@@QBEHXZ @ 2532 NONAME ; int QHeaderView::count(void) const
	?widgetAt@QApplication@@SAPAVQWidget@@ABVQPoint@@@Z @ 2533 NONAME ; class QWidget * QApplication::widgetAt(class QPoint const &)
	?defaultFont@QTextDocumentPrivate@@QBE?AVQFont@@XZ @ 2534 NONAME ; class QFont QTextDocumentPrivate::defaultFont(void) const
	??0QRasterWindowSurface@@QAE@PAVQWidget@@@Z @ 2535 NONAME ; QRasterWindowSurface::QRasterWindowSurface(class QWidget *)
	?setMenuWidget@QMainWindow@@QAEXPAVQWidget@@@Z @ 2536 NONAME ; void QMainWindow::setMenuWidget(class QWidget *)
	?setCurrentIndex@QItemSelectionModel@@QAEXABVQModelIndex@@V?$QFlags@W4SelectionFlag@QItemSelectionModel@@@@@Z @ 2537 NONAME ; void QItemSelectionModel::setCurrentIndex(class QModelIndex const &, class QFlags<enum QItemSelectionModel::SelectionFlag>)
	?grabShortcut@QWidget@@QAEHABVQKeySequence@@W4ShortcutContext@Qt@@@Z @ 2538 NONAME ; int QWidget::grabShortcut(class QKeySequence const &, enum Qt::ShortcutContext)
	?UpdateFepInlineTextL@QCoeFepInputContext@@UAEXABVTDesC16@@H@Z @ 2539 NONAME ; void QCoeFepInputContext::UpdateFepInlineTextL(class TDesC16 const &, int)
	?draw@QPixmapDropShadowFilter@@UBEXPAVQPainter@@ABVQPointF@@ABVQPixmap@@ABVQRectF@@@Z @ 2540 NONAME ; void QPixmapDropShadowFilter::draw(class QPainter *, class QPointF const &, class QPixmap const &, class QRectF const &) const
	?mouseMoveEvent@QMdiSubWindow@@MAEXPAVQMouseEvent@@@Z @ 2541 NONAME ; void QMdiSubWindow::mouseMoveEvent(class QMouseEvent *)
	?hoverMoveEvent@QGraphicsItem@@MAEXPAVQGraphicsSceneHoverEvent@@@Z @ 2542 NONAME ; void QGraphicsItem::hoverMoveEvent(class QGraphicsSceneHoverEvent *)
	?keyPressEvent@QGraphicsTextItem@@MAEXPAVQKeyEvent@@@Z @ 2543 NONAME ; void QGraphicsTextItem::keyPressEvent(class QKeyEvent *)
	?cellChanged@QTableWidget@@IAEXHH@Z @ 2544 NONAME ; void QTableWidget::cellChanged(int, int)
	?closeEvent@QMdiSubWindow@@MAEXPAVQCloseEvent@@@Z @ 2545 NONAME ; void QMdiSubWindow::closeEvent(class QCloseEvent *)
	?dragEnabled@QLineEdit@@QBE_NXZ @ 2546 NONAME ; bool QLineEdit::dragEnabled(void) const
	??0QSpinBox@@QAE@PAVQWidget@@@Z @ 2547 NONAME ; QSpinBox::QSpinBox(class QWidget *)
	?provides@QMimeSource@@UBE_NPBD@Z @ 2548 NONAME ; bool QMimeSource::provides(char const *) const
	?setStrikeOut@QFont@@QAEX_N@Z @ 2549 NONAME ; void QFont::setStrikeOut(bool)
	?keyPressEvent@QDateTimeEdit@@MAEXPAVQKeyEvent@@@Z @ 2550 NONAME ; void QDateTimeEdit::keyPressEvent(class QKeyEvent *)
	??_EQVBoxLayout@@UAE@I@Z @ 2551 NONAME ; QVBoxLayout::~QVBoxLayout(unsigned int)
	?right@QItemSelectionRange@@QBEHXZ @ 2552 NONAME ; int QItemSelectionRange::right(void) const
	??6@YA?AVQDebug@@V0@ABVQPolygonF@@@Z @ 2553 NONAME ; class QDebug operator<<(class QDebug, class QPolygonF const &)
	?isCharFormat@QTextFormat@@QBE_NXZ @ 2554 NONAME ; bool QTextFormat::isCharFormat(void) const
	?saveState@QMainWindowLayout@@QBEXAAVQDataStream@@@Z @ 2555 NONAME ; void QMainWindowLayout::saveState(class QDataStream &) const
	??6@YA?AVQDebug@@V0@ABVQFont@@@Z @ 2556 NONAME ; class QDebug operator<<(class QDebug, class QFont const &)
	?setColumnSpacing@QGraphicsGridLayout@@QAEXHM@Z @ 2557 NONAME ; void QGraphicsGridLayout::setColumnSpacing(int, float)
	?insert_frame@QTextDocumentPrivate@@AAEXPAVQTextFrame@@@Z @ 2558 NONAME ; void QTextDocumentPrivate::insert_frame(class QTextFrame *)
	?setRowAlignment@QGraphicsGridLayout@@QAEXHV?$QFlags@W4AlignmentFlag@Qt@@@@@Z @ 2559 NONAME ; void QGraphicsGridLayout::setRowAlignment(int, class QFlags<enum Qt::AlignmentFlag>)
	?setEscapeButton@QMessageBox@@QAEXPAVQAbstractButton@@@Z @ 2560 NONAME ; void QMessageBox::setEscapeButton(class QAbstractButton *)
	?editTextChanged@QComboBox@@IAEXABVQString@@@Z @ 2561 NONAME ; void QComboBox::editTextChanged(class QString const &)
	?xHeight@QFontMetricsF@@QBEMXZ @ 2562 NONAME ; float QFontMetricsF::xHeight(void) const
	?transformations@QGraphicsItem@@QBE?AV?$QList@PAVQGraphicsTransform@@@@XZ @ 2563 NONAME ; class QList<class QGraphicsTransform *> QGraphicsItem::transformations(void) const
	?setSingleStep@QAbstractSlider@@QAEXH@Z @ 2564 NONAME ; void QAbstractSlider::setSingleStep(int)
	??_EQStackedLayout@@UAE@I@Z @ 2565 NONAME ; QStackedLayout::~QStackedLayout(unsigned int)
	?moveCursor@QTextControl@@QAEXW4MoveOperation@QTextCursor@@W4MoveMode@3@@Z @ 2566 NONAME ; void QTextControl::moveCursor(enum QTextCursor::MoveOperation, enum QTextCursor::MoveMode)
	?isTopLevel@QWidget@@QBE_NXZ @ 2567 NONAME ; bool QWidget::isTopLevel(void) const
	?qt_metacast@QPixmapFilter@@UAEPAXPBD@Z @ 2568 NONAME ; void * QPixmapFilter::qt_metacast(char const *)
	?buttonPressed@QButtonGroup@@IAEXH@Z @ 2569 NONAME ; void QButtonGroup::buttonPressed(int)
	?closeColumns@QColumnViewPrivate@@QAEXABVQModelIndex@@_N@Z @ 2570 NONAME ; void QColumnViewPrivate::closeColumns(class QModelIndex const &, bool)
	?mimeData@QStandardItemModel@@UBEPAVQMimeData@@ABV?$QList@VQModelIndex@@@@@Z @ 2571 NONAME ; class QMimeData * QStandardItemModel::mimeData(class QList<class QModelIndex> const &) const
	?tabIcon@QTabWidget@@QBE?AVQIcon@@H@Z @ 2572 NONAME ; class QIcon QTabWidget::tabIcon(int) const
	??_EQProxyModel@@UAE@I@Z @ 2573 NONAME ; QProxyModel::~QProxyModel(unsigned int)
	?widgetEvent@QGraphicsLayout@@UAEXPAVQEvent@@@Z @ 2574 NONAME ; void QGraphicsLayout::widgetEvent(class QEvent *)
	?isMovingEnabled@QWidgetResizeHandler@@QBE_NXZ @ 2575 NONAME ; bool QWidgetResizeHandler::isMovingEnabled(void) const
	??_EQGraphicsSystemPlugin@@UAE@I@Z @ 2576 NONAME ; QGraphicsSystemPlugin::~QGraphicsSystemPlugin(unsigned int)
	?metaObject@QSplitterHandle@@UBEPBUQMetaObject@@XZ @ 2577 NONAME ; struct QMetaObject const * QSplitterHandle::metaObject(void) const
	?intersects@QRegion@@QBE_NABVQRect@@@Z @ 2578 NONAME ; bool QRegion::intersects(class QRect const &) const
	?d_func@QPixmapDropShadowFilter@@AAEPAVQPixmapDropShadowFilterPrivate@@XZ @ 2579 NONAME ; class QPixmapDropShadowFilterPrivate * QPixmapDropShadowFilter::d_func(void)
	?spacerItemFactoryMethod@QLayoutPrivate@@2P6APAVQSpacerItem@@PBVQLayout@@HHW4Policy@QSizePolicy@@1@ZA @ 2580 NONAME ; class QSpacerItem * (*QLayoutPrivate::spacerItemFactoryMethod)(class QLayout const *, int, int, enum QSizePolicy::Policy, enum QSizePolicy::Policy)
	?isObscuredBy@QGraphicsItemGroup@@UBE_NPBVQGraphicsItem@@@Z @ 2581 NONAME ; bool QGraphicsItemGroup::isObscuredBy(class QGraphicsItem const *) const
	?setRedF@QColor@@QAEXM@Z @ 2582 NONAME ; void QColor::setRedF(float)
	?attributes@QInputMethodEvent@@QBEABV?$QList@VAttribute@QInputMethodEvent@@@@XZ @ 2583 NONAME ; class QList<class QInputMethodEvent::Attribute> const & QInputMethodEvent::attributes(void) const
	?key@QBasicKeyEventTransition@@QBEHXZ @ 2584 NONAME ; int QBasicKeyEventTransition::key(void) const
	?toVector4D@QVector2D@@QBE?AVQVector4D@@XZ @ 2585 NONAME ; class QVector4D QVector2D::toVector4D(void) const
	?setLastScaleFactor@QPinchGesture@@QAEXM@Z @ 2586 NONAME ; void QPinchGesture::setLastScaleFactor(float)
	?currentPage@QWizard@@QBEPAVQWizardPage@@XZ @ 2587 NONAME ; class QWizardPage * QWizard::currentPage(void) const
	?boundingRect@QPicture@@QBE?AVQRect@@XZ @ 2588 NONAME ; class QRect QPicture::boundingRect(void) const
	?tessellateConvex@QTessellator@@QAEXPBVQPointF@@H@Z @ 2589 NONAME ; void QTessellator::tessellateConvex(class QPointF const *, int)
	?styleOption@QGraphicsEffectSource@@QBEPBVQStyleOption@@XZ @ 2590 NONAME ; class QStyleOption const * QGraphicsEffectSource::styleOption(void) const
	?resetMatrix@QGraphicsView@@QAEXXZ @ 2591 NONAME ; void QGraphicsView::resetMatrix(void)
	?isHidden@QTreeWidgetItem@@QBE_NXZ @ 2592 NONAME ; bool QTreeWidgetItem::isHidden(void) const
	?boundingRect@QGraphicsLineItem@@UBE?AVQRectF@@XZ @ 2593 NONAME ; class QRectF QGraphicsLineItem::boundingRect(void) const
	?qt_metacast@QCompleter@@UAEPAXPBD@Z @ 2594 NONAME ; void * QCompleter::qt_metacast(char const *)
	??0QListView@@QAE@PAVQWidget@@@Z @ 2595 NONAME ; QListView::QListView(class QWidget *)
	?clearMaximumDateTime@QDateTimeEdit@@QAEXXZ @ 2596 NONAME ; void QDateTimeEdit::clearMaximumDateTime(void)
	?trUtf8@QTextControl@@SA?AVQString@@PBD0H@Z @ 2597 NONAME ; class QString QTextControl::trUtf8(char const *, char const *, int)
	?toolTip@QGraphicsItem@@QBE?AVQString@@XZ @ 2598 NONAME ; class QString QGraphicsItem::toolTip(void) const
	?modificationChanged@QTextDocument@@IAEX_N@Z @ 2599 NONAME ; void QTextDocument::modificationChanged(bool)
	?setLastScenePos@TouchPoint@QTouchEvent@@QAEXABVQPointF@@@Z @ 2600 NONAME ; void QTouchEvent::TouchPoint::setLastScenePos(class QPointF const &)
	?setCosmetic@QPen@@QAEX_N@Z @ 2601 NONAME ; void QPen::setCosmetic(bool)
	?setBorder@QTextFrameFormat@@QAEXM@Z @ 2602 NONAME ; void QTextFrameFormat::setBorder(float)
	?pixmap@QClipboard@@QBE?AVQPixmap@@W4Mode@1@@Z @ 2603 NONAME ; class QPixmap QClipboard::pixmap(enum QClipboard::Mode) const
	?visualRow@QTableWidget@@QBEHH@Z @ 2604 NONAME ; int QTableWidget::visualRow(int) const
	?drawRoundedRect@QPainter@@QAEXABVQRect@@MMW4SizeMode@Qt@@@Z @ 2605 NONAME ; void QPainter::drawRoundedRect(class QRect const &, float, float, enum Qt::SizeMode)
	?showEvent@QWidget@@MAEXPAVQShowEvent@@@Z @ 2606 NONAME ; void QWidget::showEvent(class QShowEvent *)
	??0QCommonStyle@@IAE@AAVQCommonStylePrivate@@@Z @ 2607 NONAME ; QCommonStyle::QCommonStyle(class QCommonStylePrivate &)
	?hideColumn@QTreeView@@QAEXH@Z @ 2608 NONAME ; void QTreeView::hideColumn(int)
	?eventFilter@QFocusFrame@@MAE_NPAVQObject@@PAVQEvent@@@Z @ 2609 NONAME ; bool QFocusFrame::eventFilter(class QObject *, class QEvent *)
	??0QPushButton@@QAE@PAVQWidget@@@Z @ 2610 NONAME ; QPushButton::QPushButton(class QWidget *)
	?toInternal@QFileDialogPrivate@@SA?AVQString@@ABV2@@Z @ 2611 NONAME ; class QString QFileDialogPrivate::toInternal(class QString const &)
	?setAlphaF@QColor@@QAEXM@Z @ 2612 NONAME ; void QColor::setAlphaF(float)
	??0QFontDialog@@QAE@ABVQFont@@PAVQWidget@@@Z @ 2613 NONAME ; QFontDialog::QFontDialog(class QFont const &, class QWidget *)
	?openPopup@QApplicationPrivate@@QAEXPAVQWidget@@@Z @ 2614 NONAME ; void QApplicationPrivate::openPopup(class QWidget *)
	?showColumn@QTableView@@QAEXH@Z @ 2615 NONAME ; void QTableView::showColumn(int)
	?blockFormat@QTextFormatCollection@@QBE?AVQTextBlockFormat@@H@Z @ 2616 NONAME ; class QTextBlockFormat QTextFormatCollection::blockFormat(int) const
	?addAnchors@QGraphicsAnchorLayout@@QAEXPAVQGraphicsLayoutItem@@0V?$QFlags@W4Orientation@Qt@@@@@Z @ 2617 NONAME ; void QGraphicsAnchorLayout::addAnchors(class QGraphicsLayoutItem *, class QGraphicsLayoutItem *, class QFlags<enum Qt::Orientation>)
	?self@QApplicationPrivate@@0PAV1@A @ 2618 NONAME ; class QApplicationPrivate * QApplicationPrivate::self
	?addPixmap@QIconEngine@@UAEXABVQPixmap@@W4Mode@QIcon@@W4State@4@@Z @ 2619 NONAME ; void QIconEngine::addPixmap(class QPixmap const &, enum QIcon::Mode, enum QIcon::State)
	?getStaticMetaObject@QItemDelegate@@SAABUQMetaObject@@XZ @ 2620 NONAME ; struct QMetaObject const & QItemDelegate::getStaticMetaObject(void)
	?sendDataChanged@QActionPrivate@@QAEXXZ @ 2621 NONAME ; void QActionPrivate::sendDataChanged(void)
	?indexForEditor@QAbstractItemViewPrivate@@QBE?AVQModelIndex@@PAVQWidget@@@Z @ 2622 NONAME ; class QModelIndex QAbstractItemViewPrivate::indexForEditor(class QWidget *) const
	?leftBearing@QFontMetrics@@QBEHVQChar@@@Z @ 2623 NONAME ; int QFontMetrics::leftBearing(class QChar) const
	?tr@QEventDispatcherS60@@SA?AVQString@@PBD0@Z @ 2624 NONAME ; class QString QEventDispatcherS60::tr(char const *, char const *)
	?setHtml@QGraphicsTextItem@@QAEXABVQString@@@Z @ 2625 NONAME ; void QGraphicsTextItem::setHtml(class QString const &)
	?setWidget@QMdiSubWindow@@QAEXPAVQWidget@@@Z @ 2626 NONAME ; void QMdiSubWindow::setWidget(class QWidget *)
	?qt_metacall@QFontComboBox@@UAEHW4Call@QMetaObject@@HPAPAX@Z @ 2627 NONAME ; int QFontComboBox::qt_metacall(enum QMetaObject::Call, int, void * *)
	??0QToolBarExtension@@QAE@PAVQWidget@@@Z @ 2628 NONAME ; QToolBarExtension::QToolBarExtension(class QWidget *)
	?getStaticMetaObject@QSyntaxHighlighter@@SAABUQMetaObject@@XZ @ 2629 NONAME ; struct QMetaObject const & QSyntaxHighlighter::getStaticMetaObject(void)
	?setSizeHint@QTreeWidgetItem@@QAEXHABVQSize@@@Z @ 2630 NONAME ; void QTreeWidgetItem::setSizeHint(int, class QSize const &)
	??_EQTableWidget@@UAE@I@Z @ 2631 NONAME ; QTableWidget::~QTableWidget(unsigned int)
	?leaveAfterRelease@QApplicationPrivate@@2V?$QPointer@VQWidget@@@@A @ 2632 NONAME ; class QPointer<class QWidget> QApplicationPrivate::leaveAfterRelease
	?cursorPositionChanged@QTextEdit@@IAEXXZ @ 2633 NONAME ; void QTextEdit::cursorPositionChanged(void)
	?width@QWidget@@QBEHXZ @ 2634 NONAME ; int QWidget::width(void) const
	?property@QTextFormat@@QBE?AVQVariant@@H@Z @ 2635 NONAME ; class QVariant QTextFormat::property(int) const
	?scroll@QWidget@@QAEXHHABVQRect@@@Z @ 2636 NONAME ; void QWidget::scroll(int, int, class QRect const &)
	?select@QItemSelectionModel@@UAEXABVQItemSelection@@V?$QFlags@W4SelectionFlag@QItemSelectionModel@@@@@Z @ 2637 NONAME ; void QItemSelectionModel::select(class QItemSelection const &, class QFlags<enum QItemSelectionModel::SelectionFlag>)
	?qt_metacast@QGraphicsScene@@UAEPAXPBD@Z @ 2638 NONAME ; void * QGraphicsScene::qt_metacast(char const *)
	?drawRects@QPainter@@QAEXABV?$QVector@VQRect@@@@@Z @ 2639 NONAME ; void QPainter::drawRects(class QVector<class QRect> const &)
	?updated@QMovie@@IAEXABVQRect@@@Z @ 2640 NONAME ; void QMovie::updated(class QRect const &)
	?setConstraints_sys@QWidgetPrivate@@QAEXXZ @ 2641 NONAME ; void QWidgetPrivate::setConstraints_sys(void)
	?drawRow@QTreeView@@MBEXPAVQPainter@@ABVQStyleOptionViewItem@@ABVQModelIndex@@@Z @ 2642 NONAME ; void QTreeView::drawRow(class QPainter *, class QStyleOptionViewItem const &, class QModelIndex const &) const
	?addRoundRect@QPainterPath@@QAEXMMMMHH@Z @ 2643 NONAME ; void QPainterPath::addRoundRect(float, float, float, float, int, int)
	?setLabelText@QInputDialog@@QAEXABVQString@@@Z @ 2644 NONAME ; void QInputDialog::setLabelText(class QString const &)
	?fontMetrics@QWidget@@QBE?AVQFontMetrics@@XZ @ 2645 NONAME ; class QFontMetrics QWidget::fontMetrics(void) const
	?sizeHintForColumn@QTableView@@MBEHH@Z @ 2646 NONAME ; int QTableView::sizeHintForColumn(int) const
	??_EQGraphicsScene@@UAE@I@Z @ 2647 NONAME ; QGraphicsScene::~QGraphicsScene(unsigned int)
	?pixmap@QWizardPage@@QBE?AVQPixmap@@W4WizardPixmap@QWizard@@@Z @ 2648 NONAME ; class QPixmap QWizardPage::pixmap(enum QWizard::WizardPixmap) const
	?paint@QIcon@@QBEXPAVQPainter@@ABVQRect@@V?$QFlags@W4AlignmentFlag@Qt@@@@W4Mode@1@W4State@1@@Z @ 2649 NONAME ; void QIcon::paint(class QPainter *, class QRect const &, class QFlags<enum Qt::AlignmentFlag>, enum QIcon::Mode, enum QIcon::State) const
	?data@QStringListModel@@UBE?AVQVariant@@ABVQModelIndex@@H@Z @ 2650 NONAME ; class QVariant QStringListModel::data(class QModelIndex const &, int) const
	?q_func@QTextDocumentPrivate@@AAEPAVQTextDocument@@XZ @ 2651 NONAME ; class QTextDocument * QTextDocumentPrivate::q_func(void)
	?key@QKeyEvent@@QBEHXZ @ 2652 NONAME ; int QKeyEvent::key(void) const
	?qt_metacall@QAbstractItemView@@UAEHW4Call@QMetaObject@@HPAPAX@Z @ 2653 NONAME ; int QAbstractItemView::qt_metacall(enum QMetaObject::Call, int, void * *)
	?firstBlock@QTextDocument@@QBE?AVQTextBlock@@XZ @ 2654 NONAME ; class QTextBlock QTextDocument::firstBlock(void) const
	??1QContextMenuEvent@@UAE@XZ @ 2655 NONAME ; QContextMenuEvent::~QContextMenuEvent(void)
	?parseSimpleSelector@Parser@QCss@@QAE_NPAUBasicSelector@2@@Z @ 2656 NONAME ; bool QCss::Parser::parseSimpleSelector(struct QCss::BasicSelector *)
	?trUtf8@QColorDialog@@SA?AVQString@@PBD0@Z @ 2657 NONAME ; class QString QColorDialog::trUtf8(char const *, char const *)
	?setFloating@QDockWidget@@QAEX_N@Z @ 2658 NONAME ; void QDockWidget::setFloating(bool)
	?allocStyleOptionsArray@QGraphicsViewPrivate@@QAEPAVQStyleOptionGraphicsItem@@H@Z @ 2659 NONAME ; class QStyleOptionGraphicsItem * QGraphicsViewPrivate::allocStyleOptionsArray(int)
	?onTransition@QBasicMouseEventTransition@@MAEXPAVQEvent@@@Z @ 2660 NONAME ; void QBasicMouseEventTransition::onTransition(class QEvent *)
	?notchesVisible@QDial@@QBE_NXZ @ 2661 NONAME ; bool QDial::notchesVisible(void) const
	?releaseEditor@QAbstractItemViewPrivate@@QBEXPAVQWidget@@@Z @ 2662 NONAME ; void QAbstractItemViewPrivate::releaseEditor(class QWidget *) const
	?minimumSizeHint@QSplitter@@UBE?AVQSize@@XZ @ 2663 NONAME ; class QSize QSplitter::minimumSizeHint(void) const
	?topLevelItem@QGraphicsItem@@QBEPAV1@XZ @ 2664 NONAME ; class QGraphicsItem * QGraphicsItem::topLevelItem(void) const
	?text@QImage@@QBE?AVQString@@ABVQImageTextKeyLang@@@Z @ 2665 NONAME ; class QString QImage::text(class QImageTextKeyLang const &) const
	?angle@QGraphicsRotation@@QBEMXZ @ 2666 NONAME ; float QGraphicsRotation::angle(void) const
	?lineTo@QStrokerOps@@QAEXMM@Z @ 2667 NONAME ; void QStrokerOps::lineTo(float, float)
	?selectedText@QLineControl@@QBE?AVQString@@XZ @ 2668 NONAME ; class QString QLineControl::selectedText(void) const
	??0QSyntaxHighlighter@@QAE@PAVQTextEdit@@@Z @ 2669 NONAME ; QSyntaxHighlighter::QSyntaxHighlighter(class QTextEdit *)
	?wrapping@QAbstractSpinBox@@QBE_NXZ @ 2670 NONAME ; bool QAbstractSpinBox::wrapping(void) const
	?setHeaderData@QStandardItemModel@@UAE_NHW4Orientation@Qt@@ABVQVariant@@H@Z @ 2671 NONAME ; bool QStandardItemModel::setHeaderData(int, enum Qt::Orientation, class QVariant const &, int)
	?hide@QGraphicsItem@@QAEXXZ @ 2672 NONAME ; void QGraphicsItem::hide(void)
	?metaObject@QProxyModel@@UBEPBUQMetaObject@@XZ @ 2673 NONAME ; struct QMetaObject const * QProxyModel::metaObject(void) const
	?resolvePalette@QGraphicsItemPrivate@@UAEXI@Z @ 2674 NONAME ; void QGraphicsItemPrivate::resolvePalette(unsigned int)
	?activePopupWidget@QApplication@@SAPAVQWidget@@XZ @ 2675 NONAME ; class QWidget * QApplication::activePopupWidget(void)
	?trUtf8@QPlainTextDocumentLayout@@SA?AVQString@@PBD0H@Z @ 2676 NONAME ; class QString QPlainTextDocumentLayout::trUtf8(char const *, char const *, int)
	?sizeHint@QFormLayout@@UBE?AVQSize@@XZ @ 2677 NONAME ; class QSize QFormLayout::sizeHint(void) const
	?layout@QTextDocumentPrivate@@QBEPAVQAbstractTextDocumentLayout@@XZ @ 2678 NONAME ; class QAbstractTextDocumentLayout * QTextDocumentPrivate::layout(void) const
	?mousePressEvent@QGroupBox@@MAEXPAVQMouseEvent@@@Z @ 2679 NONAME ; void QGroupBox::mousePressEvent(class QMouseEvent *)
	?itemView@QComboBoxPrivateContainer@@QBEPAVQAbstractItemView@@XZ @ 2680 NONAME ; class QAbstractItemView * QComboBoxPrivateContainer::itemView(void) const
	?d_func@QPixmapConvolutionFilter@@AAEPAVQPixmapConvolutionFilterPrivate@@XZ @ 2681 NONAME ; class QPixmapConvolutionFilterPrivate * QPixmapConvolutionFilter::d_func(void)
	?addTab@QTabWidget@@QAEHPAVQWidget@@ABVQString@@@Z @ 2682 NONAME ; int QTabWidget::addTab(class QWidget *, class QString const &)
	?hide_sys@QWidgetPrivate@@QAEXXZ @ 2683 NONAME ; void QWidgetPrivate::hide_sys(void)
	?expandingDirections@QSpacerItem@@UBE?AV?$QFlags@W4Orientation@Qt@@@@XZ @ 2684 NONAME ; class QFlags<enum Qt::Orientation> QSpacerItem::expandingDirections(void) const
	??_EQUndoGroup@@UAE@I@Z @ 2685 NONAME ; QUndoGroup::~QUndoGroup(unsigned int)
	?preferredWidth@QGraphicsLayoutItem@@QBEMXZ @ 2686 NONAME ; float QGraphicsLayoutItem::preferredWidth(void) const
	?fetchedRoot@QFileInfoGatherer@@2_NA @ 2687 NONAME ; bool QFileInfoGatherer::fetchedRoot
	?d_func@QTextDocumentLayout@@AAEPAVQTextDocumentLayoutPrivate@@XZ @ 2688 NONAME ; class QTextDocumentLayoutPrivate * QTextDocumentLayout::d_func(void)
	??0QGraphicsView@@QAE@PAVQWidget@@@Z @ 2689 NONAME ; QGraphicsView::QGraphicsView(class QWidget *)
	??0QStyleOptionFrameV3@@QAE@ABV0@@Z @ 2690 NONAME ; QStyleOptionFrameV3::QStyleOptionFrameV3(class QStyleOptionFrameV3 const &)
	??_EQProxyStyle@@UAE@I@Z @ 2691 NONAME ; QProxyStyle::~QProxyStyle(unsigned int)
	?tabMoved@QTabBar@@IAEXHH@Z @ 2692 NONAME ; void QTabBar::tabMoved(int, int)
	?aboutToDestroy@QPaintBufferSignalProxy@@IAEXPBVQPaintBufferPrivate@@@Z @ 2693 NONAME ; void QPaintBufferSignalProxy::aboutToDestroy(class QPaintBufferPrivate const *)
	?setMaximumSize@QWidget@@QAEXABVQSize@@@Z @ 2694 NONAME ; void QWidget::setMaximumSize(class QSize const &)
	??0QPixmapBlurFilter@@QAE@PAVQObject@@@Z @ 2695 NONAME ; QPixmapBlurFilter::QPixmapBlurFilter(class QObject *)
	??1QGraphicsSceneHoverEvent@@UAE@XZ @ 2696 NONAME ; QGraphicsSceneHoverEvent::~QGraphicsSceneHoverEvent(void)
	?styleFeaturesValue@Declaration@QCss@@QBEHXZ @ 2697 NONAME ; int QCss::Declaration::styleFeaturesValue(void) const
	?currentColorGroup@QPalette@@QBE?AW4ColorGroup@1@XZ @ 2698 NONAME ; enum QPalette::ColorGroup QPalette::currentColorGroup(void) const
	?tr@QGraphicsColorizeEffect@@SA?AVQString@@PBD0H@Z @ 2699 NONAME ; class QString QGraphicsColorizeEffect::tr(char const *, char const *, int)
	?sizeHint@QColumnView@@UBE?AVQSize@@XZ @ 2700 NONAME ; class QSize QColumnView::sizeHint(void) const
	?removeItem@QToolBox@@QAEXH@Z @ 2701 NONAME ; void QToolBox::removeItem(int)
	?selectionChanged@QClipboard@@IAEXXZ @ 2702 NONAME ; void QClipboard::selectionChanged(void)
	??5@YAAAVQDataStream@@AAV0@AAVQSizePolicy@@@Z @ 2703 NONAME ; class QDataStream & operator>>(class QDataStream &, class QSizePolicy &)
	?setBrush@QPainter@@QAEXABVQBrush@@@Z @ 2704 NONAME ; void QPainter::setBrush(class QBrush const &)
	?setSelected@QTableWidgetItem@@QAEX_N@Z @ 2705 NONAME ; void QTableWidgetItem::setSelected(bool)
	?event@QCheckBox@@MAE_NPAVQEvent@@@Z @ 2706 NONAME ; bool QCheckBox::event(class QEvent *)
	?itemClicked@QTableWidget@@IAEXPAVQTableWidgetItem@@@Z @ 2707 NONAME ; void QTableWidget::itemClicked(class QTableWidgetItem *)
	?originCorner@QGridLayout@@QBE?AW4Corner@Qt@@XZ @ 2708 NONAME ; enum Qt::Corner QGridLayout::originCorner(void) const
	??0QVector2D@@QAE@ABVQPointF@@@Z @ 2709 NONAME ; QVector2D::QVector2D(class QPointF const &)
	?standardButton@QMessageBox@@QBE?AW4StandardButton@1@PAVQAbstractButton@@@Z @ 2710 NONAME ; enum QMessageBox::StandardButton QMessageBox::standardButton(class QAbstractButton *) const
	??1QPathClipper@@QAE@XZ @ 2711 NONAME ; QPathClipper::~QPathClipper(void)
	?render@QWidget@@QAEXPAVQPainter@@ABVQPoint@@ABVQRegion@@V?$QFlags@W4RenderFlag@QWidget@@@@@Z @ 2712 NONAME ; void QWidget::render(class QPainter *, class QPoint const &, class QRegion const &, class QFlags<enum QWidget::RenderFlag>)
	?mouseMoveEvent@QColumnViewGrip@@MAEXPAVQMouseEvent@@@Z @ 2713 NONAME ; void QColumnViewGrip::mouseMoveEvent(class QMouseEvent *)
	??4QStyleOptionFrameV2@@QAEAAV0@ABVQStyleOptionFrame@@@Z @ 2714 NONAME ; class QStyleOptionFrameV2 & QStyleOptionFrameV2::operator=(class QStyleOptionFrame const &)
	?_q_fileSystemChanged@QFileSystemModelPrivate@@QAEXABVQString@@ABV?$QList@U?$QPair@VQString@@VQFileInfo@@@@@@@Z @ 2715 NONAME ; void QFileSystemModelPrivate::_q_fileSystemChanged(class QString const &, class QList<struct QPair<class QString, class QFileInfo> > const &)
	?staticMetaObject@QColorDialog@@2UQMetaObject@@B @ 2716 NONAME ; struct QMetaObject const QColorDialog::staticMetaObject
	?mousePressEvent@QAbstractButton@@MAEXPAVQMouseEvent@@@Z @ 2717 NONAME ; void QAbstractButton::mousePressEvent(class QMouseEvent *)
	?drawArc@QPainter@@QAEXABVQRectF@@HH@Z @ 2718 NONAME ; void QPainter::drawArc(class QRectF const &, int, int)
	?setColumnMinimumWidth@QGridLayout@@QAEXHH@Z @ 2719 NONAME ; void QGridLayout::setColumnMinimumWidth(int, int)
	?miterLimit@QPainterPathStroker@@QBEMXZ @ 2720 NONAME ; float QPainterPathStroker::miterLimit(void) const
	?tr@QGraphicsSystemPlugin@@SA?AVQString@@PBD0H@Z @ 2721 NONAME ; class QString QGraphicsSystemPlugin::tr(char const *, char const *, int)
	?windowIconText@QWidget@@QBE?AVQString@@XZ @ 2722 NONAME ; class QString QWidget::windowIconText(void) const
	?tr@QMainWindowLayout@@SA?AVQString@@PBD0@Z @ 2723 NONAME ; class QString QMainWindowLayout::tr(char const *, char const *)
	?dark@QPalette@@QBEABVQBrush@@XZ @ 2724 NONAME ; class QBrush const & QPalette::dark(void) const
	?qt_widget_private@@YAPAVQWidgetPrivate@@PAVQWidget@@@Z @ 2725 NONAME ; class QWidgetPrivate * qt_widget_private(class QWidget *)
	?lineTo@QPainterPath@@QAEXABVQPointF@@@Z @ 2726 NONAME ; void QPainterPath::lineTo(class QPointF const &)
	?parseAttrib@Parser@QCss@@QAE_NPAUAttributeSelector@2@@Z @ 2727 NONAME ; bool QCss::Parser::parseAttrib(struct QCss::AttributeSelector *)
	?buttons@QDialogButtonBox@@QBE?AV?$QList@PAVQAbstractButton@@@@XZ @ 2728 NONAME ; class QList<class QAbstractButton *> QDialogButtonBox::buttons(void) const
	?drawPrimitive@QCommonStyle@@UBEXW4PrimitiveElement@QStyle@@PBVQStyleOption@@PAVQPainter@@PBVQWidget@@@Z @ 2729 NONAME ; void QCommonStyle::drawPrimitive(enum QStyle::PrimitiveElement, class QStyleOption const *, class QPainter *, class QWidget const *) const
	?textOutline@QTextCharFormat@@QBE?AVQPen@@XZ @ 2730 NONAME ; class QPen QTextCharFormat::textOutline(void) const
	?tr@QLineEdit@@SA?AVQString@@PBD0H@Z @ 2731 NONAME ; class QString QLineEdit::tr(char const *, char const *, int)
	?stringList@QStringListModel@@QBE?AVQStringList@@XZ @ 2732 NONAME ; class QStringList QStringListModel::stringList(void) const
	?moveEvent@QMdiSubWindow@@MAEXPAVQMoveEvent@@@Z @ 2733 NONAME ; void QMdiSubWindow::moveEvent(class QMoveEvent *)
	?mapToWS@QWidgetPrivate@@QBE?AVQRect@@ABV2@@Z @ 2734 NONAME ; class QRect QWidgetPrivate::mapToWS(class QRect const &) const
	?fontItalic@QTextCharFormat@@QBE_NXZ @ 2735 NONAME ; bool QTextCharFormat::fontItalic(void) const
	??0QSessionManager@@AAE@PAVQApplication@@AAVQString@@1@Z @ 2736 NONAME ; QSessionManager::QSessionManager(class QApplication *, class QString &, class QString &)
	?tr@QSplitter@@SA?AVQString@@PBD0H@Z @ 2737 NONAME ; class QString QSplitter::tr(char const *, char const *, int)
	?formAlignment@QFormLayout@@QBE?AV?$QFlags@W4AlignmentFlag@Qt@@@@XZ @ 2738 NONAME ; class QFlags<enum Qt::AlignmentFlag> QFormLayout::formAlignment(void) const
	?qDrawShadeLine@@YAXPAVQPainter@@ABVQPoint@@1ABVQPalette@@_NHH@Z @ 2739 NONAME ; void qDrawShadeLine(class QPainter *, class QPoint const &, class QPoint const &, class QPalette const &, bool, int, int)
	?itemForRole@QDockWidgetLayout@@QBEPAVQLayoutItem@@W4Role@1@@Z @ 2740 NONAME ; class QLayoutItem * QDockWidgetLayout::itemForRole(enum QDockWidgetLayout::Role) const
	??0QRadialGradient@@QAE@ABVQPointF@@M0@Z @ 2741 NONAME ; QRadialGradient::QRadialGradient(class QPointF const &, float, class QPointF const &)
	?currentCharFormat@QTextControl@@QBE?AVQTextCharFormat@@XZ @ 2742 NONAME ; class QTextCharFormat QTextControl::currentCharFormat(void) const
	??0QListWidgetItem@@QAE@ABVQIcon@@ABVQString@@PAVQListWidget@@H@Z @ 2743 NONAME ; QListWidgetItem::QListWidgetItem(class QIcon const &, class QString const &, class QListWidget *, int)
	?setActiveWindow@QApplication@@SAXPAVQWidget@@@Z @ 2744 NONAME ; void QApplication::setActiveWindow(class QWidget *)
	?dateTextFormat@QCalendarWidget@@QBE?AV?$QMap@VQDate@@VQTextCharFormat@@@@XZ @ 2745 NONAME ; class QMap<class QDate, class QTextCharFormat> QCalendarWidget::dateTextFormat(void) const
	?beginLayout@QTextLayout@@QAEXXZ @ 2746 NONAME ; void QTextLayout::beginLayout(void)
	?setPreviewWidget@QColumnView@@QAEXPAVQWidget@@@Z @ 2747 NONAME ; void QColumnView::setPreviewWidget(class QWidget *)
	?d_func@QWizardPage@@AAEPAVQWizardPagePrivate@@XZ @ 2748 NONAME ; class QWizardPagePrivate * QWizardPage::d_func(void)
	?hasChildren@QSortFilterProxyModel@@UBE_NABVQModelIndex@@@Z @ 2749 NONAME ; bool QSortFilterProxyModel::hasChildren(class QModelIndex const &) const
	?setFinalStop@QLinearGradient@@QAEXMM@Z @ 2750 NONAME ; void QLinearGradient::setFinalStop(float, float)
	?tr@QComboBoxPrivateContainer@@SA?AVQString@@PBD0H@Z @ 2751 NONAME ; class QString QComboBoxPrivateContainer::tr(char const *, char const *, int)
	?setKey@QKeySequence@@AAEXHH@Z @ 2752 NONAME ; void QKeySequence::setKey(int, int)
	?nativeParentWidget@QWidget@@QBEPAV1@XZ @ 2753 NONAME ; class QWidget * QWidget::nativeParentWidget(void) const
	?dropEvent@QTextEdit@@MAEXPAVQDropEvent@@@Z @ 2754 NONAME ; void QTextEdit::dropEvent(class QDropEvent *)
	?d_func@QStackedWidget@@AAEPAVQStackedWidgetPrivate@@XZ @ 2755 NONAME ; class QStackedWidgetPrivate * QStackedWidget::d_func(void)
	?exactMatch@QFontInfo@@QBE_NXZ @ 2756 NONAME ; bool QFontInfo::exactMatch(void) const
	?drawDecoration@QItemDelegate@@MBEXPAVQPainter@@ABVQStyleOptionViewItem@@ABVQRect@@ABVQPixmap@@@Z @ 2757 NONAME ; void QItemDelegate::drawDecoration(class QPainter *, class QStyleOptionViewItem const &, class QRect const &, class QPixmap const &) const
	?autoDestruct@QPaintEngine@@ABE_NXZ @ 2758 NONAME ; bool QPaintEngine::autoDestruct(void) const
	?getStaticMetaObject@QWindowsStyle@@SAABUQMetaObject@@XZ @ 2759 NONAME ; struct QMetaObject const & QWindowsStyle::getStaticMetaObject(void)
	??0QPen@@QAE@ABV0@@Z @ 2760 NONAME ; QPen::QPen(class QPen const &)
	?tr@QUndoStack@@SA?AVQString@@PBD0H@Z @ 2761 NONAME ; class QString QUndoStack::tr(char const *, char const *, int)
	??0QWidgetBackingStore@@QAE@PAVQWidget@@@Z @ 2762 NONAME ; QWidgetBackingStore::QWidgetBackingStore(class QWidget *)
	?setDoubleRange@QInputDialog@@QAEXNN@Z @ 2763 NONAME ; void QInputDialog::setDoubleRange(double, double)
	?setVisible@QAction@@QAEX_N@Z @ 2764 NONAME ; void QAction::setVisible(bool)
	?solvePreferred@QGraphicsAnchorLayoutPrivate@@QAE_NABV?$QList@PAUQSimplexConstraint@@@@ABV?$QList@PAUAnchorData@@@@@Z @ 2765 NONAME ; bool QGraphicsAnchorLayoutPrivate::solvePreferred(class QList<struct QSimplexConstraint *> const &, class QList<struct AnchorData *> const &)
	?scenePos@QGraphicsSceneMouseEvent@@QBE?AVQPointF@@XZ @ 2766 NONAME ; class QPointF QGraphicsSceneMouseEvent::scenePos(void) const
	?testSelector@Parser@QCss@@QAE_NXZ @ 2767 NONAME ; bool QCss::Parser::testSelector(void)
	?graphicsProxyWidget@QWidget@@QBEPAVQGraphicsProxyWidget@@XZ @ 2768 NONAME ; class QGraphicsProxyWidget * QWidget::graphicsProxyWidget(void) const
	?setDocumentMode@QMdiArea@@QAEX_N@Z @ 2769 NONAME ; void QMdiArea::setDocumentMode(bool)
	?createWidget@QWidgetAction@@MAEPAVQWidget@@PAV2@@Z @ 2770 NONAME ; class QWidget * QWidgetAction::createWidget(class QWidget *)
	??0QItemSelectionModel@@QAE@PAVQAbstractItemModel@@PAVQObject@@@Z @ 2771 NONAME ; QItemSelectionModel::QItemSelectionModel(class QAbstractItemModel *, class QObject *)
	?trUtf8@QLCDNumber@@SA?AVQString@@PBD0@Z @ 2772 NONAME ; class QString QLCDNumber::trUtf8(char const *, char const *)
	?qt_metacall@QErrorMessage@@UAEHW4Call@QMetaObject@@HPAPAX@Z @ 2773 NONAME ; int QErrorMessage::qt_metacall(enum QMetaObject::Call, int, void * *)
	?ungrabKeyboardEvent@QGraphicsWidget@@MAEXPAVQEvent@@@Z @ 2774 NONAME ; void QGraphicsWidget::ungrabKeyboardEvent(class QEvent *)
	?isColumnHidden@QTreeView@@QBE_NH@Z @ 2775 NONAME ; bool QTreeView::isColumnHidden(int) const
	?iconProvider@QDirModel@@QBEPAVQFileIconProvider@@XZ @ 2776 NONAME ; class QFileIconProvider * QDirModel::iconProvider(void) const
	?statusTip@QWidget@@QBE?AVQString@@XZ @ 2777 NONAME ; class QString QWidget::statusTip(void) const
	?getRgb@QColor@@QBEXPAH000@Z @ 2778 NONAME ; void QColor::getRgb(int *, int *, int *, int *) const
	?setColor@QPixmapColorizeFilter@@QAEXABVQColor@@@Z @ 2779 NONAME ; void QPixmapColorizeFilter::setColor(class QColor const &)
	?isSortCacheEnabled@QGraphicsScene@@QBE_NXZ @ 2780 NONAME ; bool QGraphicsScene::isSortCacheEnabled(void) const
	?rectForIndex@QListView@@IBE?AVQRect@@ABVQModelIndex@@@Z @ 2781 NONAME ; class QRect QListView::rectForIndex(class QModelIndex const &) const
	??0QContextMenuEvent@@QAE@W4Reason@0@ABVQPoint@@1@Z @ 2782 NONAME ; QContextMenuEvent::QContextMenuEvent(enum QContextMenuEvent::Reason, class QPoint const &, class QPoint const &)
	?d_func@QDialogButtonBox@@AAEPAVQDialogButtonBoxPrivate@@XZ @ 2783 NONAME ; class QDialogButtonBoxPrivate * QDialogButtonBox::d_func(void)
	?setStatusTip@QWidget@@QAEXABVQString@@@Z @ 2784 NONAME ; void QWidget::setStatusTip(class QString const &)
	??0QIcon@@QAE@ABV0@@Z @ 2785 NONAME ; QIcon::QIcon(class QIcon const &)
	?metaObject@QDesktopWidget@@UBEPBUQMetaObject@@XZ @ 2786 NONAME ; struct QMetaObject const * QDesktopWidget::metaObject(void) const
	?findSeparator@QDockAreaLayoutInfo@@QBE?AV?$QList@H@@ABVQPoint@@@Z @ 2787 NONAME ; class QList<int> QDockAreaLayoutInfo::findSeparator(class QPoint const &) const
	??0QScrollArea@@QAE@PAVQWidget@@@Z @ 2788 NONAME ; QScrollArea::QScrollArea(class QWidget *)
	?metaObject@QWidget@@UBEPBUQMetaObject@@XZ @ 2789 NONAME ; struct QMetaObject const * QWidget::metaObject(void) const
	?text@QImage@@QBE?AVQString@@ABV2@@Z @ 2790 NONAME ; class QString QImage::text(class QString const &) const
	?showMessage@QSplashScreen@@QAEXABVQString@@HABVQColor@@@Z @ 2791 NONAME ; void QSplashScreen::showMessage(class QString const &, int, class QColor const &)
	?getStaticMetaObject@QStyleSheetStyle@@SAABUQMetaObject@@XZ @ 2792 NONAME ; struct QMetaObject const & QStyleSheetStyle::getStaticMetaObject(void)
	?setActiveSubWindow@QMdiArea@@QAEXPAVQMdiSubWindow@@@Z @ 2793 NONAME ; void QMdiArea::setActiveSubWindow(class QMdiSubWindow *)
	?metaObject@QCoeFepInputContext@@UBEPBUQMetaObject@@XZ @ 2794 NONAME ; struct QMetaObject const * QCoeFepInputContext::metaObject(void) const
	?showEvent@QGraphicsProxyWidget@@MAEXPAVQShowEvent@@@Z @ 2795 NONAME ; void QGraphicsProxyWidget::showEvent(class QShowEvent *)
	?bitmap@QCursor@@QBEPBVQBitmap@@XZ @ 2796 NONAME ; class QBitmap const * QCursor::bitmap(void) const
	?trUtf8@QMenuBar@@SA?AVQString@@PBD0H@Z @ 2797 NONAME ; class QString QMenuBar::trUtf8(char const *, char const *, int)
	?rect@QPaintEvent@@QBEABVQRect@@XZ @ 2798 NONAME ; class QRect const & QPaintEvent::rect(void) const
	??1QFileSystemModel@@UAE@XZ @ 2799 NONAME ; QFileSystemModel::~QFileSystemModel(void)
	?childEvent@QLayout@@MAEXPAVQChildEvent@@@Z @ 2800 NONAME ; void QLayout::childEvent(class QChildEvent *)
	??Fiterator@QTextFrame@@QAE?AV01@H@Z @ 2801 NONAME ; class QTextFrame::iterator QTextFrame::iterator::operator--(int)
	??0QStyleOptionTabBarBaseV2@@IAE@H@Z @ 2802 NONAME ; QStyleOptionTabBarBaseV2::QStyleOptionTabBarBaseV2(int)
	?tr@QTextTable@@SA?AVQString@@PBD0@Z @ 2803 NONAME ; class QString QTextTable::tr(char const *, char const *)
	?childEvent@QGroupBox@@MAEXPAVQChildEvent@@@Z @ 2804 NONAME ; void QGroupBox::childEvent(class QChildEvent *)
	??1QFontPrivate@@QAE@XZ @ 2805 NONAME ; QFontPrivate::~QFontPrivate(void)
	?setSelectionArea@QGraphicsScene@@QAEXABVQPainterPath@@W4ItemSelectionMode@Qt@@ABVQTransform@@@Z @ 2806 NONAME ; void QGraphicsScene::setSelectionArea(class QPainterPath const &, enum Qt::ItemSelectionMode, class QTransform const &)
	?metaObject@QGraphicsTextItem@@UBEPBUQMetaObject@@XZ @ 2807 NONAME ; struct QMetaObject const * QGraphicsTextItem::metaObject(void) const
	?indexAt@QListView@@UBE?AVQModelIndex@@ABVQPoint@@@Z @ 2808 NONAME ; class QModelIndex QListView::indexAt(class QPoint const &) const
	?children@QGraphicsItem@@QBE?AV?$QList@PAVQGraphicsItem@@@@XZ @ 2809 NONAME ; class QList<class QGraphicsItem *> QGraphicsItem::children(void) const
	?touchPointStates@QTouchEvent@@QBE?AV?$QFlags@W4TouchPointState@Qt@@@@XZ @ 2810 NONAME ; class QFlags<enum Qt::TouchPointState> QTouchEvent::touchPointStates(void) const
	?setOrigin@QGraphicsScale@@QAEXABVQVector3D@@@Z @ 2811 NONAME ; void QGraphicsScale::setOrigin(class QVector3D const &)
	?setOption@QWizard@@QAEXW4WizardOption@1@_N@Z @ 2812 NONAME ; void QWizard::setOption(enum QWizard::WizardOption, bool)
	??_EQComboBoxPrivateScroller@@UAE@I@Z @ 2813 NONAME ; QComboBoxPrivateScroller::~QComboBoxPrivateScroller(unsigned int)
	?cut@QTextControl@@QAEXXZ @ 2814 NONAME ; void QTextControl::cut(void)
	?mapFromScene@QGraphicsItem@@QBE?AVQPolygonF@@MMMM@Z @ 2815 NONAME ; class QPolygonF QGraphicsItem::mapFromScene(float, float, float, float) const
	??0QTableWidgetSelectionRange@@QAE@XZ @ 2816 NONAME ; QTableWidgetSelectionRange::QTableWidgetSelectionRange(void)
	?tr@QAbstractSpinBox@@SA?AVQString@@PBD0@Z @ 2817 NONAME ; class QString QAbstractSpinBox::tr(char const *, char const *)
	?testOption@QMdiArea@@QBE_NW4AreaOption@1@@Z @ 2818 NONAME ; bool QMdiArea::testOption(enum QMdiArea::AreaOption) const
	?clear@QPlainTextEdit@@QAEXXZ @ 2819 NONAME ; void QPlainTextEdit::clear(void)
	?_q_deleteCurrent@QFileDialogPrivate@@QAEXXZ @ 2820 NONAME ; void QFileDialogPrivate::_q_deleteCurrent(void)
	?trUtf8@QApplication@@SA?AVQString@@PBD0@Z @ 2821 NONAME ; class QString QApplication::trUtf8(char const *, char const *)
	?populate@QTextureGlyphCache@@QAEXABVQTextItemInt@@ABV?$QVarLengthArray@I$0BAA@@@ABV?$QVarLengthArray@UQFixedPoint@@$0BAA@@@@Z @ 2822 NONAME ; void QTextureGlyphCache::populate(class QTextItemInt const &, class QVarLengthArray<unsigned int, 256> const &, class QVarLengthArray<struct QFixedPoint, 256> const &)
	?toString@QFont@@QBE?AVQString@@XZ @ 2823 NONAME ; class QString QFont::toString(void) const
	?insertWidget@QStackedWidget@@QAEHHPAVQWidget@@@Z @ 2824 NONAME ; int QStackedWidget::insertWidget(int, class QWidget *)
	?takeVerticalHeaderItem@QStandardItemModel@@QAEPAVQStandardItem@@H@Z @ 2825 NONAME ; class QStandardItem * QStandardItemModel::takeVerticalHeaderItem(int)
	?strokePath@QStrokerOps@@QAEXABVQPainterPath@@PAXABVQTransform@@@Z @ 2826 NONAME ; void QStrokerOps::strokePath(class QPainterPath const &, void *, class QTransform const &)
	?mouseMoveEvent@QGraphicsProxyWidget@@MAEXPAVQGraphicsSceneMouseEvent@@@Z @ 2827 NONAME ; void QGraphicsProxyWidget::mouseMoveEvent(class QGraphicsSceneMouseEvent *)
	?insert@QTextDocumentPrivate@@QAEXHHHH@Z @ 2828 NONAME ; void QTextDocumentPrivate::insert(int, int, int, int)
	?removePixmapDestructionHook@QImagePixmapCleanupHooks@@QAEXP6AXPAVQPixmap@@@Z@Z @ 2829 NONAME ; void QImagePixmapCleanupHooks::removePixmapDestructionHook(void (*)(class QPixmap *))
	?keyPressEvent@QPlainTextEdit@@MAEXPAVQKeyEvent@@@Z @ 2830 NONAME ; void QPlainTextEdit::keyPressEvent(class QKeyEvent *)
	??0QBitmap@@QAE@ABVQSize@@@Z @ 2831 NONAME ; QBitmap::QBitmap(class QSize const &)
	?updateScene@QGraphicsView@@QAEXABV?$QList@VQRectF@@@@@Z @ 2832 NONAME ; void QGraphicsView::updateScene(class QList<class QRectF> const &)
	?setData@QProxyModel@@UAE_NABVQModelIndex@@ABVQVariant@@H@Z @ 2833 NONAME ; bool QProxyModel::setData(class QModelIndex const &, class QVariant const &, int)
	?toNativeType@QPixmapData@@UAEPAXW4NativeType@1@@Z @ 2834 NONAME ; void * QPixmapData::toNativeType(enum QPixmapData::NativeType)
	?newPos@QGraphicsSceneMoveEvent@@QBE?AVQPointF@@XZ @ 2835 NONAME ; class QPointF QGraphicsSceneMoveEvent::newPos(void) const
	?contextMenuEvent@QAbstractScrollArea@@MAEXPAVQContextMenuEvent@@@Z @ 2836 NONAME ; void QAbstractScrollArea::contextMenuEvent(class QContextMenuEvent *)
	?instanceCounter@QWidgetPrivate@@2HA @ 2837 NONAME ; int QWidgetPrivate::instanceCounter
	?setNumDigits@QLCDNumber@@QAEXH@Z @ 2838 NONAME ; void QLCDNumber::setNumDigits(int)
	??XQMatrix@@QAEAAV0@ABV0@@Z @ 2839 NONAME ; class QMatrix & QMatrix::operator*=(class QMatrix const &)
	?metaObject@QTextEdit@@UBEPBUQMetaObject@@XZ @ 2840 NONAME ; struct QMetaObject const * QTextEdit::metaObject(void) const
	??1QImageData@@QAE@XZ @ 2841 NONAME ; QImageData::~QImageData(void)
	?app_style@QApplicationPrivate@@2PAVQStyle@@A @ 2842 NONAME ; class QStyle * QApplicationPrivate::app_style
	?supportedDropActions@QProxyModel@@UBE?AV?$QFlags@W4DropAction@Qt@@@@XZ @ 2843 NONAME ; class QFlags<enum Qt::DropAction> QProxyModel::supportedDropActions(void) const
	?selectionCommand@QAbstractItemView@@MBE?AV?$QFlags@W4SelectionFlag@QItemSelectionModel@@@@ABVQModelIndex@@PBVQEvent@@@Z @ 2844 NONAME ; class QFlags<enum QItemSelectionModel::SelectionFlag> QAbstractItemView::selectionCommand(class QModelIndex const &, class QEvent const *) const
	?delta@QGraphicsSceneWheelEvent@@QBEHXZ @ 2845 NONAME ; int QGraphicsSceneWheelEvent::delta(void) const
	??0QFontPrivate@@QAE@ABV0@@Z @ 2846 NONAME ; QFontPrivate::QFontPrivate(class QFontPrivate const &)
	?tr@QUndoGroup@@SA?AVQString@@PBD0@Z @ 2847 NONAME ; class QString QUndoGroup::tr(char const *, char const *)
	?fileInfo@QFileSystemModel@@QBE?AVQFileInfo@@ABVQModelIndex@@@Z @ 2848 NONAME ; class QFileInfo QFileSystemModel::fileInfo(class QModelIndex const &) const
	?done@QFontDialog@@MAEXH@Z @ 2849 NONAME ; void QFontDialog::done(int)
	?timerEvent@QTableView@@MAEXPAVQTimerEvent@@@Z @ 2850 NONAME ; void QTableView::timerEvent(class QTimerEvent *)
	?clear@QLineControl@@QAEXXZ @ 2851 NONAME ; void QLineControl::clear(void)
	?metaObject@QInputContextPlugin@@UBEPBUQMetaObject@@XZ @ 2852 NONAME ; struct QMetaObject const * QInputContextPlugin::metaObject(void) const
	?height@QTextImageFormat@@QBEMXZ @ 2853 NONAME ; float QTextImageFormat::height(void) const
	?sizeHint@QMenuBar@@UBE?AVQSize@@XZ @ 2854 NONAME ; class QSize QMenuBar::sizeHint(void) const
	?rawMode@QFontInfo@@QBE_NXZ @ 2855 NONAME ; bool QFontInfo::rawMode(void) const
	?items@QGraphicsSceneIndex@@UBE?AV?$QList@PAVQGraphicsItem@@@@ABVQPointF@@W4ItemSelectionMode@Qt@@W4SortOrder@5@ABVQTransform@@@Z @ 2856 NONAME ; class QList<class QGraphicsItem *> QGraphicsSceneIndex::items(class QPointF const &, enum Qt::ItemSelectionMode, enum Qt::SortOrder, class QTransform const &) const
	?critical@QMessageBox@@SAHPAVQWidget@@ABVQString@@1W4StandardButton@1@2@Z @ 2857 NONAME ; int QMessageBox::critical(class QWidget *, class QString const &, class QString const &, enum QMessageBox::StandardButton, enum QMessageBox::StandardButton)
	?physicalDpiY@QPaintDevice@@QBEHXZ @ 2858 NONAME ; int QPaintDevice::physicalDpiY(void) const
	?trUtf8@QAbstractProxyModel@@SA?AVQString@@PBD0@Z @ 2859 NONAME ; class QString QAbstractProxyModel::trUtf8(char const *, char const *)
	?d_func@QToolButton@@AAEPAVQToolButtonPrivate@@XZ @ 2860 NONAME ; class QToolButtonPrivate * QToolButton::d_func(void)
	?opaqueArea@QGraphicsEllipseItem@@UBE?AVQPainterPath@@XZ @ 2861 NONAME ; class QPainterPath QGraphicsEllipseItem::opaqueArea(void) const
	?hitTestComplexControl@QCommonStyle@@UBE?AW4SubControl@QStyle@@W4ComplexControl@3@PBVQStyleOptionComplex@@ABVQPoint@@PBVQWidget@@@Z @ 2862 NONAME ; enum QStyle::SubControl QCommonStyle::hitTestComplexControl(enum QStyle::ComplexControl, class QStyleOptionComplex const *, class QPoint const &, class QWidget const *) const
	??0QGraphicsBloomEffect@@QAE@PAVQObject@@@Z @ 2863 NONAME ; QGraphicsBloomEffect::QGraphicsBloomEffect(class QObject *)
	?index@QFileSystemModelPrivate@@QAE?AVQModelIndex@@ABVQString@@@Z @ 2864 NONAME ; class QModelIndex QFileSystemModelPrivate::index(class QString const &)
	?alternateBase@QPalette@@QBEABVQBrush@@XZ @ 2865 NONAME ; class QBrush const & QPalette::alternateBase(void) const
	?qt_metacast@QColumnView@@UAEPAXPBD@Z @ 2866 NONAME ; void * QColumnView::qt_metacast(char const *)
	??_0QQuaternion@@QAEAAV0@M@Z @ 2867 NONAME ; class QQuaternion & QQuaternion::operator/=(float)
	?showEvent@QPlainTextEdit@@MAEXPAVQShowEvent@@@Z @ 2868 NONAME ; void QPlainTextEdit::showEvent(class QShowEvent *)
	?isMovable@QTabWidget@@QBE_NXZ @ 2869 NONAME ; bool QTabWidget::isMovable(void) const
	?setIcon@QTableWidgetItem@@QAEXABVQIcon@@@Z @ 2870 NONAME ; void QTableWidgetItem::setIcon(class QIcon const &)
	?doResize@QWidgetResizeHandler@@QAEXXZ @ 2871 NONAME ; void QWidgetResizeHandler::doResize(void)
	??1QWidgetAction@@UAE@XZ @ 2872 NONAME ; QWidgetAction::~QWidgetAction(void)
	?paintingActive@QPaintDevice@@QBE_NXZ @ 2873 NONAME ; bool QPaintDevice::paintingActive(void) const
	?options@QFileDialog@@QBE?AV?$QFlags@W4Option@QFileDialog@@@@XZ @ 2874 NONAME ; class QFlags<enum QFileDialog::Option> QFileDialog::options(void) const
	?dataChanged@QHeaderView@@MAEXABVQModelIndex@@0@Z @ 2875 NONAME ; void QHeaderView::dataChanged(class QModelIndex const &, class QModelIndex const &)
	?hideText@QWhatsThis@@SAXXZ @ 2876 NONAME ; void QWhatsThis::hideText(void)
	?getStaticMetaObject@QGraphicsGrayscaleEffect@@SAABUQMetaObject@@XZ @ 2877 NONAME ; struct QMetaObject const & QGraphicsGrayscaleEffect::getStaticMetaObject(void)
	?construct@QApplicationPrivate@@QAEXXZ @ 2878 NONAME ; void QApplicationPrivate::construct(void)
	?mouseReleaseEvent@QSizeGrip@@MAEXPAVQMouseEvent@@@Z @ 2879 NONAME ; void QSizeGrip::mouseReleaseEvent(class QMouseEvent *)
	?currentIndex@QTabBar@@QBEHXZ @ 2880 NONAME ; int QTabBar::currentIndex(void) const
	??0QFontInfo@@QAE@ABV0@@Z @ 2881 NONAME ; QFontInfo::QFontInfo(class QFontInfo const &)
	?setArrowType@QToolButton@@QAEXW4ArrowType@Qt@@@Z @ 2882 NONAME ; void QToolButton::setArrowType(enum Qt::ArrowType)
	?setTextAlignment@QTableWidgetItem@@QAEXH@Z @ 2883 NONAME ; void QTableWidgetItem::setTextAlignment(int)
	?setScreenPos@TouchPoint@QTouchEvent@@QAEXABVQPointF@@@Z @ 2884 NONAME ; void QTouchEvent::TouchPoint::setScreenPos(class QPointF const &)
	?finalStop@QLinearGradient@@QBE?AVQPointF@@XZ @ 2885 NONAME ; class QPointF QLinearGradient::finalStop(void) const
	?setDragEnabled@QAbstractItemView@@QAEX_N@Z @ 2886 NONAME ; void QAbstractItemView::setDragEnabled(bool)
	?timerEvent@QMenuBar@@MAEXPAVQTimerEvent@@@Z @ 2887 NONAME ; void QMenuBar::timerEvent(class QTimerEvent *)
	?getStaticMetaObject@QDrag@@SAABUQMetaObject@@XZ @ 2888 NONAME ; struct QMetaObject const & QDrag::getStaticMetaObject(void)
	?setFiltersChildEvents@QGraphicsItem@@QAEX_N@Z @ 2889 NONAME ; void QGraphicsItem::setFiltersChildEvents(bool)
	?trUtf8@QAbstractItemView@@SA?AVQString@@PBD0@Z @ 2890 NONAME ; class QString QAbstractItemView::trUtf8(char const *, char const *)
	?isChecked@QGroupBox@@QBE_NXZ @ 2891 NONAME ; bool QGroupBox::isChecked(void) const
	?type@QApplication@@SA?AW4Type@1@XZ @ 2892 NONAME ; enum QApplication::Type QApplication::type(void)
	?setClean@QUndoStack@@QAEXXZ @ 2893 NONAME ; void QUndoStack::setClean(void)
	?staticMetaObject@QGradient@@2UQMetaObject@@B @ 2894 NONAME ; struct QMetaObject const QGradient::staticMetaObject
	?trUtf8@QSwipeGesture@@SA?AVQString@@PBD0@Z @ 2895 NONAME ; class QString QSwipeGesture::trUtf8(char const *, char const *)
	?metaObject@QDateEdit@@UBEPBUQMetaObject@@XZ @ 2896 NONAME ; struct QMetaObject const * QDateEdit::metaObject(void) const
	??1QStyleSheetStyle@@UAE@XZ @ 2897 NONAME ; QStyleSheetStyle::~QStyleSheetStyle(void)
	?symbol@Parser@QCss@@QBEABUSymbol@2@XZ @ 2898 NONAME ; struct QCss::Symbol const & QCss::Parser::symbol(void) const
	?tr@QStyledItemDelegate@@SA?AVQString@@PBD0@Z @ 2899 NONAME ; class QString QStyledItemDelegate::tr(char const *, char const *)
	?setMinimumSize_helper@QWidgetPrivate@@QAE_NAAH0@Z @ 2900 NONAME ; bool QWidgetPrivate::setMinimumSize_helper(int &, int &)
	?maximumSize@QDockWidgetLayout@@UBE?AVQSize@@XZ @ 2901 NONAME ; class QSize QDockWidgetLayout::maximumSize(void) const
	??0Declaration@QCss@@QAE@XZ @ 2902 NONAME ; QCss::Declaration::Declaration(void)
	??4QPaintBuffer@@QAEAAV0@ABV0@@Z @ 2903 NONAME ; class QPaintBuffer & QPaintBuffer::operator=(class QPaintBuffer const &)
	?buttonPressed@QButtonGroup@@IAEXPAVQAbstractButton@@@Z @ 2904 NONAME ; void QButtonGroup::buttonPressed(class QAbstractButton *)
	?menuWidget@QMainWindow@@QBEPAVQWidget@@XZ @ 2905 NONAME ; class QWidget * QMainWindow::menuWidget(void) const
	?_q_navigateToParent@QFileDialogPrivate@@QAEXXZ @ 2906 NONAME ; void QFileDialogPrivate::_q_navigateToParent(void)
	?d_func@QTextEdit@@ABEPBVQTextEditPrivate@@XZ @ 2907 NONAME ; class QTextEditPrivate const * QTextEdit::d_func(void) const
	?removeItem@QGraphicsSceneBspTreeIndex@@MAEXPAVQGraphicsItem@@@Z @ 2908 NONAME ; void QGraphicsSceneBspTreeIndex::removeItem(class QGraphicsItem *)
	??0QResizeEvent@@QAE@ABVQSize@@0@Z @ 2909 NONAME ; QResizeEvent::QResizeEvent(class QSize const &, class QSize const &)
	?drawRects@QPainter@@QAEXPBVQRect@@H@Z @ 2910 NONAME ; void QPainter::drawRects(class QRect const *, int)
	?totalRotationAngle@QPinchGesture@@QBEMXZ @ 2911 NONAME ; float QPinchGesture::totalRotationAngle(void) const
	?addButton@QButtonGroup@@QAEXPAVQAbstractButton@@@Z @ 2912 NONAME ; void QButtonGroup::addButton(class QAbstractButton *)
	?drawImage@QPaintEngine@@UAEXABVQRectF@@ABVQImage@@0V?$QFlags@W4ImageConversionFlag@Qt@@@@@Z @ 2913 NONAME ; void QPaintEngine::drawImage(class QRectF const &, class QImage const &, class QRectF const &, class QFlags<enum Qt::ImageConversionFlag>)
	?addWidget@QStackedWidget@@QAEHPAVQWidget@@@Z @ 2914 NONAME ; int QStackedWidget::addWidget(class QWidget *)
	?removeAnchor@QGraphicsAnchorLayoutPrivate@@QAEXPAUAnchorVertex@@0@Z @ 2915 NONAME ; void QGraphicsAnchorLayoutPrivate::removeAnchor(struct AnchorVertex *, struct AnchorVertex *)
	?combineTransformFromParent@QGraphicsItemPrivate@@QBEXPAVQTransform@@PBV2@@Z @ 2916 NONAME ; void QGraphicsItemPrivate::combineTransformFromParent(class QTransform *, class QTransform const *) const
	?q_func@QAbstractItemViewPrivate@@ABEPBVQAbstractItemView@@XZ @ 2917 NONAME ; class QAbstractItemView const * QAbstractItemViewPrivate::q_func(void) const
	?normalized@QVector3D@@QBE?AV1@XZ @ 2918 NONAME ; class QVector3D QVector3D::normalized(void) const
	??_EQMainWindow@@UAE@I@Z @ 2919 NONAME ; QMainWindow::~QMainWindow(unsigned int)
	??1QBasicKeyEventTransition@@UAE@XZ @ 2920 NONAME ; QBasicKeyEventTransition::~QBasicKeyEventTransition(void)
	?styleSheet@QApplication@@QBE?AVQString@@XZ @ 2921 NONAME ; class QString QApplication::styleSheet(void) const
	?setColumnAlignment@QGraphicsGridLayout@@QAEXHV?$QFlags@W4AlignmentFlag@Qt@@@@@Z @ 2922 NONAME ; void QGraphicsGridLayout::setColumnAlignment(int, class QFlags<enum Qt::AlignmentFlag>)
	?modifiers@QGraphicsSceneHoverEvent@@QBE?AV?$QFlags@W4KeyboardModifier@Qt@@@@XZ @ 2923 NONAME ; class QFlags<enum Qt::KeyboardModifier> QGraphicsSceneHoverEvent::modifiers(void) const
	?setPen@QAbstractGraphicsShapeItem@@QAEXABVQPen@@@Z @ 2924 NONAME ; void QAbstractGraphicsShapeItem::setPen(class QPen const &)
	??0QTextList@@QAE@PAVQTextDocument@@@Z @ 2925 NONAME ; QTextList::QTextList(class QTextDocument *)
	?drawLine@QPainter@@QAEXABVQLine@@@Z @ 2926 NONAME ; void QPainter::drawLine(class QLine const &)
	?staticMetaObject@QComboBoxPrivateContainer@@2UQMetaObject@@B @ 2927 NONAME ; struct QMetaObject const QComboBoxPrivateContainer::staticMetaObject
	?panelModality@QGraphicsItem@@QBE?AW4PanelModality@1@XZ @ 2928 NONAME ; enum QGraphicsItem::PanelModality QGraphicsItem::panelModality(void) const
	?heightForWidth@QWidgetItem@@UBEHH@Z @ 2929 NONAME ; int QWidgetItem::heightForWidth(int) const
	?cleanIndex@QUndoStack@@QBEHXZ @ 2930 NONAME ; int QUndoStack::cleanIndex(void) const
	?index@QFileSystemModel@@UBE?AVQModelIndex@@HHABV2@@Z @ 2931 NONAME ; class QModelIndex QFileSystemModel::index(int, int, class QModelIndex const &) const
	??1QStyleOptionFrameV3@@QAE@XZ @ 2932 NONAME ; QStyleOptionFrameV3::~QStyleOptionFrameV3(void)
	??1QGraphicsBloomEffect@@UAE@XZ @ 2933 NONAME ; QGraphicsBloomEffect::~QGraphicsBloomEffect(void)
	??1QAbstractTextDocumentLayout@@UAE@XZ @ 2934 NONAME ; QAbstractTextDocumentLayout::~QAbstractTextDocumentLayout(void)
	?scaled@QPixmap@@QBE?AV1@HHW4AspectRatioMode@Qt@@W4TransformationMode@3@@Z @ 2935 NONAME ; class QPixmap QPixmap::scaled(int, int, enum Qt::AspectRatioMode, enum Qt::TransformationMode) const
	??_EQGraphicsTransform@@UAE@I@Z @ 2936 NONAME ; QGraphicsTransform::~QGraphicsTransform(unsigned int)
	?tr@QAbstractScrollArea@@SA?AVQString@@PBD0@Z @ 2937 NONAME ; class QString QAbstractScrollArea::tr(char const *, char const *)
	?clickedButton@QMessageBox@@QBEPAVQAbstractButton@@XZ @ 2938 NONAME ; class QAbstractButton * QMessageBox::clickedButton(void) const
	?setClipPath@QPainter@@QAEXABVQPainterPath@@W4ClipOperation@Qt@@@Z @ 2939 NONAME ; void QPainter::setClipPath(class QPainterPath const &, enum Qt::ClipOperation)
	?qt_metacall@QStringListModel@@UAEHW4Call@QMetaObject@@HPAPAX@Z @ 2940 NONAME ; int QStringListModel::qt_metacall(enum QMetaObject::Call, int, void * *)
	?hasPendingEvents@QEventDispatcherS60@@UAE_NXZ @ 2941 NONAME ; bool QEventDispatcherS60::hasPendingEvents(void)
	?addAction@QMenuBar@@QAEPAVQAction@@ABVQString@@@Z @ 2942 NONAME ; class QAction * QMenuBar::addAction(class QString const &)
	?undo@QTextDocument@@QAEXXZ @ 2943 NONAME ; void QTextDocument::undo(void)
	?tr@QTableWidget@@SA?AVQString@@PBD0H@Z @ 2944 NONAME ; class QString QTableWidget::tr(char const *, char const *, int)
	?_q_columnsInserted@QColumnViewPrivate@@UAEXABVQModelIndex@@HH@Z @ 2945 NONAME ; void QColumnViewPrivate::_q_columnsInserted(class QModelIndex const &, int, int)
	?widgetEvent@QLayout@@IAEXPAVQEvent@@@Z @ 2946 NONAME ; void QLayout::widgetEvent(class QEvent *)
	?setRowHeight@QTableView@@QAEXHH@Z @ 2947 NONAME ; void QTableView::setRowHeight(int, int)
	?setRect@QGraphicsEllipseItem@@QAEXABVQRectF@@@Z @ 2948 NONAME ; void QGraphicsEllipseItem::setRect(class QRectF const &)
	?isBlockFormat@QTextFormat@@QBE_NXZ @ 2949 NONAME ; bool QTextFormat::isBlockFormat(void) const
	??0QColormap@@QAE@ABV0@@Z @ 2950 NONAME ; QColormap::QColormap(class QColormap const &)
	?startAutoScroll@QAbstractItemViewPrivate@@QAEXXZ @ 2951 NONAME ; void QAbstractItemViewPrivate::startAutoScroll(void)
	?rightPadding@QTextTableCellFormat@@QBEMXZ @ 2952 NONAME ; float QTextTableCellFormat::rightPadding(void) const
	?staticMetaObject@QGraphicsBloomEffect@@2UQMetaObject@@B @ 2953 NONAME ; struct QMetaObject const QGraphicsBloomEffect::staticMetaObject
	?leading@QFontMetricsF@@QBEMXZ @ 2954 NONAME ; float QFontMetricsF::leading(void) const
	?beginNativePainting@QPainter@@QAEXXZ @ 2955 NONAME ; void QPainter::beginNativePainting(void)
	?addChildWidget@QLayout@@IAEXPAVQWidget@@@Z @ 2956 NONAME ; void QLayout::addChildWidget(class QWidget *)
	?setVisible@QColorDialog@@UAEX_N@Z @ 2957 NONAME ; void QColorDialog::setVisible(bool)
	?selectedColumns@QItemSelectionModel@@QBE?AV?$QList@VQModelIndex@@@@H@Z @ 2958 NONAME ; class QList<class QModelIndex> QItemSelectionModel::selectedColumns(int) const
	?mouseMoveEvent@QRadioButton@@MAEXPAVQMouseEvent@@@Z @ 2959 NONAME ; void QRadioButton::mouseMoveEvent(class QMouseEvent *)
	?hasStaticContents@QWindowSurface@@IBE_NXZ @ 2960 NONAME ; bool QWindowSurface::hasStaticContents(void) const
	?sizeHint@QGraphicsView@@UBE?AVQSize@@XZ @ 2961 NONAME ; class QSize QGraphicsView::sizeHint(void) const
	?hiddenSectionCount@QHeaderView@@QBEHXZ @ 2962 NONAME ; int QHeaderView::hiddenSectionCount(void) const
	?getStaticMetaObject@QTabWidget@@SAABUQMetaObject@@XZ @ 2963 NONAME ; struct QMetaObject const & QTabWidget::getStaticMetaObject(void)
	?fade_tooltip@QApplicationPrivate@@2_NA @ 2964 NONAME ; bool QApplicationPrivate::fade_tooltip
	?tr@QStackedLayout@@SA?AVQString@@PBD0H@Z @ 2965 NONAME ; class QString QStackedLayout::tr(char const *, char const *, int)
	?redo@QLineEdit@@QAEXXZ @ 2966 NONAME ; void QLineEdit::redo(void)
	?deviceTransform@QPainter@@QBEABVQTransform@@XZ @ 2967 NONAME ; class QTransform const & QPainter::deviceTransform(void) const
	?checkStateSet@QAbstractButton@@MAEXXZ @ 2968 NONAME ; void QAbstractButton::checkStateSet(void)
	?removeRows@QSortFilterProxyModel@@UAE_NHHABVQModelIndex@@@Z @ 2969 NONAME ; bool QSortFilterProxyModel::removeRows(int, int, class QModelIndex const &)
	??0iterator@QTextBlock@@QAE@XZ @ 2970 NONAME ; QTextBlock::iterator::iterator(void)
	?staticMetaObject@QGraphicsItemAnimation@@2UQMetaObject@@B @ 2971 NONAME ; struct QMetaObject const QGraphicsItemAnimation::staticMetaObject
	?setSourceModel@QAbstractProxyModel@@UAEXPAVQAbstractItemModel@@@Z @ 2972 NONAME ; void QAbstractProxyModel::setSourceModel(class QAbstractItemModel *)
	??0QTextImageFormat@@QAE@XZ @ 2973 NONAME ; QTextImageFormat::QTextImageFormat(void)
	?toHtml@QTextDocumentFragment@@QBE?AVQString@@XZ @ 2974 NONAME ; class QString QTextDocumentFragment::toHtml(void) const
	?removeButton@QMessageBox@@QAEXPAVQAbstractButton@@@Z @ 2975 NONAME ; void QMessageBox::removeButton(class QAbstractButton *)
	?setWhatsThis@QTableWidgetItem@@QAEXABVQString@@@Z @ 2976 NONAME ; void QTableWidgetItem::setWhatsThis(class QString const &)
	?inputMethodQuery@QLineEdit@@UBE?AVQVariant@@W4InputMethodQuery@Qt@@@Z @ 2977 NONAME ; class QVariant QLineEdit::inputMethodQuery(enum Qt::InputMethodQuery) const
	?slopeAtPercent@QPainterPath@@QBEMM@Z @ 2978 NONAME ; float QPainterPath::slopeAtPercent(float) const
	?font@QTableWidgetItem@@QBE?AVQFont@@XZ @ 2979 NONAME ; class QFont QTableWidgetItem::font(void) const
	?staticMetaObject@QInputDialog@@2UQMetaObject@@B @ 2980 NONAME ; struct QMetaObject const QInputDialog::staticMetaObject
	?statusTip@QListWidgetItem@@QBE?AVQString@@XZ @ 2981 NONAME ; class QString QListWidgetItem::statusTip(void) const
	?mouseReleaseEvent@QAbstractScrollArea@@MAEXPAVQMouseEvent@@@Z @ 2982 NONAME ; void QAbstractScrollArea::mouseReleaseEvent(class QMouseEvent *)
	?mapFromParent@QGraphicsItem@@QBE?AVQPointF@@MM@Z @ 2983 NONAME ; class QPointF QGraphicsItem::mapFromParent(float, float) const
	?initStyleOption@QRadioButton@@IBEXPAVQStyleOptionButton@@@Z @ 2984 NONAME ; void QRadioButton::initStyleOption(class QStyleOptionButton *) const
	?fileDialogDelete@QGuiPlatformPlugin@@UAEXPAVQFileDialog@@@Z @ 2985 NONAME ; void QGuiPlatformPlugin::fileDialogDelete(class QFileDialog *)
	?joinForJoinMode@QStroker@@KA?AW4PenJoinStyle@Qt@@W4LineJoinMode@1@@Z @ 2986 NONAME ; enum Qt::PenJoinStyle QStroker::joinForJoinMode(enum QStroker::LineJoinMode)
	?paintEngine@QWidget@@UBEPAVQPaintEngine@@XZ @ 2987 NONAME ; class QPaintEngine * QWidget::paintEngine(void) const
	??9QMatrix@@QBE_NABV0@@Z @ 2988 NONAME ; bool QMatrix::operator!=(class QMatrix const &) const
	?tr@QInputContext@@SA?AVQString@@PBD0@Z @ 2989 NONAME ; class QString QInputContext::tr(char const *, char const *)
	?setFocusPolicy@QGraphicsWidget@@QAEXW4FocusPolicy@Qt@@@Z @ 2990 NONAME ; void QGraphicsWidget::setFocusPolicy(enum Qt::FocusPolicy)
	?qt_metacall@QAbstractScrollArea@@UAEHW4Call@QMetaObject@@HPAPAX@Z @ 2991 NONAME ; int QAbstractScrollArea::qt_metacall(enum QMetaObject::Call, int, void * *)
	?type@QGradient@@QBE?AW4Type@1@XZ @ 2992 NONAME ; enum QGradient::Type QGradient::type(void) const
	??0QVector4D@@QAE@MMMM@Z @ 2993 NONAME ; QVector4D::QVector4D(float, float, float, float)
	?setFirstItemColumnSpanned@QTreeWidget@@QAEXPBVQTreeWidgetItem@@_N@Z @ 2994 NONAME ; void QTreeWidget::setFirstItemColumnSpanned(class QTreeWidgetItem const *, bool)
	?group@QGraphicsItem@@QBEPAVQGraphicsItemGroup@@XZ @ 2995 NONAME ; class QGraphicsItemGroup * QGraphicsItem::group(void) const
	?isMovable@QToolBar@@QBE_NXZ @ 2996 NONAME ; bool QToolBar::isMovable(void) const
	?completionModel@QCompleter@@QBEPAVQAbstractItemModel@@XZ @ 2997 NONAME ; class QAbstractItemModel * QCompleter::completionModel(void) const
	??_EQGraphicsSceneMoveEvent@@UAE@I@Z @ 2998 NONAME ; QGraphicsSceneMoveEvent::~QGraphicsSceneMoveEvent(unsigned int)
	?mapRectFromItem@QGraphicsItem@@QBE?AVQRectF@@PBV1@ABV2@@Z @ 2999 NONAME ; class QRectF QGraphicsItem::mapRectFromItem(class QGraphicsItem const *, class QRectF const &) const
	?setMargin@QLabel@@QAEXH@Z @ 3000 NONAME ; void QLabel::setMargin(int)
	?data_ptr@QPicture@@QAEAAV?$QExplicitlySharedDataPointer@VQPicturePrivate@@@@XZ @ 3001 NONAME ; class QExplicitlySharedDataPointer<class QPicturePrivate> & QPicture::data_ptr(void)
	?closeAllWindows@QApplication@@SAXXZ @ 3002 NONAME ; void QApplication::closeAllWindows(void)
	?setMimeData@QDrag@@QAEXPAVQMimeData@@@Z @ 3003 NONAME ; void QDrag::setMimeData(class QMimeData *)
	?trUtf8@QGraphicsGrayscaleEffect@@SA?AVQString@@PBD0H@Z @ 3004 NONAME ; class QString QGraphicsGrayscaleEffect::trUtf8(char const *, char const *, int)
	?trUtf8@QStringListModel@@SA?AVQString@@PBD0H@Z @ 3005 NONAME ; class QString QStringListModel::trUtf8(char const *, char const *, int)
	?trUtf8@QEventDispatcherS60@@SA?AVQString@@PBD0@Z @ 3006 NONAME ; class QString QEventDispatcherS60::trUtf8(char const *, char const *)
	??0QMdiSubWindow@@QAE@PAVQWidget@@V?$QFlags@W4WindowType@Qt@@@@@Z @ 3007 NONAME ; QMdiSubWindow::QMdiSubWindow(class QWidget *, class QFlags<enum Qt::WindowType>)
	?heightForWidth@QLayoutItem@@UBEHH@Z @ 3008 NONAME ; int QLayoutItem::heightForWidth(int) const
	?backwardHistoryCount@QTextBrowser@@QBEHXZ @ 3009 NONAME ; int QTextBrowser::backwardHistoryCount(void) const
	?dateEditAcceptDelay@QCalendarWidget@@QBEHXZ @ 3010 NONAME ; int QCalendarWidget::dateEditAcceptDelay(void) const
	?staticMetaObject@QTreeView@@2UQMetaObject@@B @ 3011 NONAME ; struct QMetaObject const QTreeView::staticMetaObject
	?mouseReleaseEvent@QHeaderView@@MAEXPAVQMouseEvent@@@Z @ 3012 NONAME ; void QHeaderView::mouseReleaseEvent(class QMouseEvent *)
	?tr@QProgressBar@@SA?AVQString@@PBD0@Z @ 3013 NONAME ; class QString QProgressBar::tr(char const *, char const *)
	?device@QImageReader@@QBEPAVQIODevice@@XZ @ 3014 NONAME ; class QIODevice * QImageReader::device(void) const
	??0QTreeWidgetItem@@QAE@PAV0@H@Z @ 3015 NONAME ; QTreeWidgetItem::QTreeWidgetItem(class QTreeWidgetItem *, int)
	??5@YAAAVQDataStream@@AAV0@AAVQColor@@@Z @ 3016 NONAME ; class QDataStream & operator>>(class QDataStream &, class QColor &)
	?qt_metacall@QStackedLayout@@UAEHW4Call@QMetaObject@@HPAPAX@Z @ 3017 NONAME ; int QStackedLayout::qt_metacall(enum QMetaObject::Call, int, void * *)
	?filter@QFileSystemModel@@QBE?AV?$QFlags@W4Filter@QDir@@@@XZ @ 3018 NONAME ; class QFlags<enum QDir::Filter> QFileSystemModel::filter(void) const
	??_EQCommandLinkButton@@UAE@I@Z @ 3019 NONAME ; QCommandLinkButton::~QCommandLinkButton(unsigned int)
	?d_func@QGraphicsRotation@@ABEPBVQGraphicsRotationPrivate@@XZ @ 3020 NONAME ; class QGraphicsRotationPrivate const * QGraphicsRotation::d_func(void) const
	?d_func@QBasicKeyEventTransition@@AAEPAVQBasicKeyEventTransitionPrivate@@XZ @ 3021 NONAME ; class QBasicKeyEventTransitionPrivate * QBasicKeyEventTransition::d_func(void)
	?isIndexDragEnabled@QAbstractItemViewPrivate@@QBE_NABVQModelIndex@@@Z @ 3022 NONAME ; bool QAbstractItemViewPrivate::isIndexDragEnabled(class QModelIndex const &) const
	?d_func@QCheckBox@@AAEPAVQCheckBoxPrivate@@XZ @ 3023 NONAME ; class QCheckBoxPrivate * QCheckBox::d_func(void)
	?d_func@QGridLayout@@AAEPAVQGridLayoutPrivate@@XZ @ 3024 NONAME ; class QGridLayoutPrivate * QGridLayout::d_func(void)
	?aboutQt@QApplication@@SAXXZ @ 3025 NONAME ; void QApplication::aboutQt(void)
	?selectedTableCells@QTextCursor@@QBEXPAH000@Z @ 3026 NONAME ; void QTextCursor::selectedTableCells(int *, int *, int *, int *) const
	?testAndParseUri@Parser@QCss@@QAE_NPAVQString@@@Z @ 3027 NONAME ; bool QCss::Parser::testAndParseUri(class QString *)
	?paintEvent@QListView@@MAEXPAVQPaintEvent@@@Z @ 3028 NONAME ; void QListView::paintEvent(class QPaintEvent *)
	??_EQFileSystemModel@@UAE@I@Z @ 3029 NONAME ; QFileSystemModel::~QFileSystemModel(unsigned int)
	?setGeometry@QWindowSurface@@UAEXABVQRect@@@Z @ 3030 NONAME ; void QWindowSurface::setGeometry(class QRect const &)
	?setFontStyleStrategy@QTextCharFormat@@QAEXW4StyleStrategy@QFont@@@Z @ 3031 NONAME ; void QTextCharFormat::setFontStyleStrategy(enum QFont::StyleStrategy)
	?prefix@QDoubleSpinBox@@QBE?AVQString@@XZ @ 3032 NONAME ; class QString QDoubleSpinBox::prefix(void) const
	?inFont@QFontMetrics@@QBE_NVQChar@@@Z @ 3033 NONAME ; bool QFontMetrics::inFont(class QChar) const
	?addLine@QGraphicsScene@@QAEPAVQGraphicsLineItem@@ABVQLineF@@ABVQPen@@@Z @ 3034 NONAME ; class QGraphicsLineItem * QGraphicsScene::addLine(class QLineF const &, class QPen const &)
	??6@YA?AVQDebug@@V0@ABVQItemSelectionRange@@@Z @ 3035 NONAME ; class QDebug operator<<(class QDebug, class QItemSelectionRange const &)
	?getFont@QFontDialog@@SA?AVQFont@@PA_NABV2@PAVQWidget@@ABVQString@@V?$QFlags@W4FontDialogOption@QFontDialog@@@@@Z @ 3036 NONAME ; class QFont QFontDialog::getFont(bool *, class QFont const &, class QWidget *, class QString const &, class QFlags<enum QFontDialog::FontDialogOption>)
	?windowFlags@QGraphicsWidget@@QBE?AV?$QFlags@W4WindowType@Qt@@@@XZ @ 3037 NONAME ; class QFlags<enum Qt::WindowType> QGraphicsWidget::windowFlags(void) const
	?setTextOutline@QTextCharFormat@@QAEXABVQPen@@@Z @ 3038 NONAME ; void QTextCharFormat::setTextOutline(class QPen const &)
	?setFixedHeight@QWidget@@QAEXH@Z @ 3039 NONAME ; void QWidget::setFixedHeight(int)
	?qt_metacall@QToolBarExtension@@UAEHW4Call@QMetaObject@@HPAPAX@Z @ 3040 NONAME ; int QToolBarExtension::qt_metacall(enum QMetaObject::Call, int, void * *)
	?addItem@QGraphicsSceneBspTreeIndex@@MAEXPAVQGraphicsItem@@@Z @ 3041 NONAME ; void QGraphicsSceneBspTreeIndex::addItem(class QGraphicsItem *)
	?invalidateCachedClipPath@QGraphicsItemPrivate@@QAEXXZ @ 3042 NONAME ; void QGraphicsItemPrivate::invalidateCachedClipPath(void)
	??6@YA?AVQDebug@@V0@ABVQTransform@@@Z @ 3043 NONAME ; class QDebug operator<<(class QDebug, class QTransform const &)
	??_EQGraphicsEllipseItem@@UAE@I@Z @ 3044 NONAME ; QGraphicsEllipseItem::~QGraphicsEllipseItem(unsigned int)
	?setCancelButtonText@QInputDialog@@QAEXABVQString@@@Z @ 3045 NONAME ; void QInputDialog::setCancelButtonText(class QString const &)
	??0QStyleOptionProgressBarV2@@QAE@ABVQStyleOptionProgressBar@@@Z @ 3046 NONAME ; QStyleOptionProgressBarV2::QStyleOptionProgressBarV2(class QStyleOptionProgressBar const &)
	??_EQTextControl@@UAE@I@Z @ 3047 NONAME ; QTextControl::~QTextControl(unsigned int)
	?setPosition@QTextLayout@@QAEXABVQPointF@@@Z @ 3048 NONAME ; void QTextLayout::setPosition(class QPointF const &)
	?keyBindings@QKeySequence@@SA?AV?$QList@VQKeySequence@@@@W4StandardKey@1@@Z @ 3049 NONAME ; class QList<class QKeySequence> QKeySequence::keyBindings(enum QKeySequence::StandardKey)
	?resetLabelAlignment@QFormLayout@@AAEXXZ @ 3050 NONAME ; void QFormLayout::resetLabelAlignment(void)
	?buttonRole@QMessageBox@@QBE?AW4ButtonRole@1@PAVQAbstractButton@@@Z @ 3051 NONAME ; enum QMessageBox::ButtonRole QMessageBox::buttonRole(class QAbstractButton *) const
	?imageCount@QImageIOHandler@@UBEHXZ @ 3052 NONAME ; int QImageIOHandler::imageCount(void) const
	?event@QAbstractItemView@@MAE_NPAVQEvent@@@Z @ 3053 NONAME ; bool QAbstractItemView::event(class QEvent *)
	?boundingRect@QPainter@@QAE?AVQRectF@@ABV2@HABVQString@@@Z @ 3054 NONAME ; class QRectF QPainter::boundingRect(class QRectF const &, int, class QString const &)
	?stops@QGradient@@QBE?AV?$QVector@U?$QPair@MVQColor@@@@@@XZ @ 3055 NONAME ; class QVector<struct QPair<float, class QColor> > QGradient::stops(void) const
	?qt_metacast@QHBoxLayout@@UAEPAXPBD@Z @ 3056 NONAME ; void * QHBoxLayout::qt_metacast(char const *)
	?createAction@QWhatsThis@@SAPAVQAction@@PAVQObject@@@Z @ 3057 NONAME ; class QAction * QWhatsThis::createAction(class QObject *)
	?setWhatsThis@QAction@@QAEXABVQString@@@Z @ 3058 NONAME ; void QAction::setWhatsThis(class QString const &)
	?setFrameShadow@QFrame@@QAEXW4Shadow@1@@Z @ 3059 NONAME ; void QFrame::setFrameShadow(enum QFrame::Shadow)
	?priv@QPlainTextDocumentLayout@@ABEPAVQPlainTextDocumentLayoutPrivate@@XZ @ 3060 NONAME ; class QPlainTextDocumentLayoutPrivate * QPlainTextDocumentLayout::priv(void) const
	?d_func@QDesktopWidget@@ABEPBVQDesktopWidgetPrivate@@XZ @ 3061 NONAME ; class QDesktopWidgetPrivate const * QDesktopWidget::d_func(void) const
	??0QHoverEvent@@QAE@W4Type@QEvent@@ABVQPoint@@1@Z @ 3062 NONAME ; QHoverEvent::QHoverEvent(enum QEvent::Type, class QPoint const &, class QPoint const &)
	?documentMode@QMainWindowLayout@@QBE_NXZ @ 3063 NONAME ; bool QMainWindowLayout::documentMode(void) const
	?sizeHintForRow@QAbstractItemView@@UBEHH@Z @ 3064 NONAME ; int QAbstractItemView::sizeHintForRow(int) const
	?d_func@QGraphicsDropShadowEffect@@ABEPBVQGraphicsDropShadowEffectPrivate@@XZ @ 3065 NONAME ; class QGraphicsDropShadowEffectPrivate const * QGraphicsDropShadowEffect::d_func(void) const
	?alignment@QScrollArea@@QBE?AV?$QFlags@W4AlignmentFlag@Qt@@@@XZ @ 3066 NONAME ; class QFlags<enum Qt::AlignmentFlag> QScrollArea::alignment(void) const
	?mkdir@QFileSystemModel@@QAE?AVQModelIndex@@ABV2@ABVQString@@@Z @ 3067 NONAME ; class QModelIndex QFileSystemModel::mkdir(class QModelIndex const &, class QString const &)
	?update@QWidget@@QAEXABVQRegion@@@Z @ 3068 NONAME ; void QWidget::update(class QRegion const &)
	??9QFontMetrics@@QAE_NABV0@@Z @ 3069 NONAME ; bool QFontMetrics::operator!=(class QFontMetrics const &)
	?font@QTextEngine@@QBE?AVQFont@@ABUQScriptItem@@@Z @ 3070 NONAME ; class QFont QTextEngine::font(struct QScriptItem const &) const
	?focusInEvent@QGraphicsTextItem@@MAEXPAVQFocusEvent@@@Z @ 3071 NONAME ; void QGraphicsTextItem::focusInEvent(class QFocusEvent *)
	?transformed@QPixmap@@QBE?AV1@ABVQMatrix@@W4TransformationMode@Qt@@@Z @ 3072 NONAME ; class QPixmap QPixmap::transformed(class QMatrix const &, enum Qt::TransformationMode) const
	?count@QMainWindowLayout@@UBEHXZ @ 3073 NONAME ; int QMainWindowLayout::count(void) const
	?mapRectToItem@QGraphicsItem@@QBE?AVQRectF@@PBV1@ABV2@@Z @ 3074 NONAME ; class QRectF QGraphicsItem::mapRectToItem(class QGraphicsItem const *, class QRectF const &) const
	?gapRect@QDockAreaLayout@@QBE?AVQRect@@ABV?$QList@H@@@Z @ 3075 NONAME ; class QRect QDockAreaLayout::gapRect(class QList<int> const &) const
	??4QTextFormatCollection@@QAEAAV0@ABV0@@Z @ 3076 NONAME ; class QTextFormatCollection & QTextFormatCollection::operator=(class QTextFormatCollection const &)
	?setDecMode@QLCDNumber@@QAEXXZ @ 3077 NONAME ; void QLCDNumber::setDecMode(void)
	?setSelected@QTreeWidgetItem@@QAEX_N@Z @ 3078 NONAME ; void QTreeWidgetItem::setSelected(bool)
	??_EQGraphicsGrayscaleEffect@@UAE@I@Z @ 3079 NONAME ; QGraphicsGrayscaleEffect::~QGraphicsGrayscaleEffect(unsigned int)
	?setTransformations@QGraphicsItem@@QAEXABV?$QList@PAVQGraphicsTransform@@@@@Z @ 3080 NONAME ; void QGraphicsItem::setTransformations(class QList<class QGraphicsTransform *> const &)
	?associatedWidgets@QAction@@QBE?AV?$QList@PAVQWidget@@@@XZ @ 3081 NONAME ; class QList<class QWidget *> QAction::associatedWidgets(void) const
	??0QTransform@@QAE@W4Initialization@Qt@@@Z @ 3082 NONAME ; QTransform::QTransform(enum Qt::Initialization)
	?setWordWrap@QTableView@@QAEX_N@Z @ 3083 NONAME ; void QTableView::setWordWrap(bool)
	?intersected@QPolygon@@QBE?AV1@ABV1@@Z @ 3084 NONAME ; class QPolygon QPolygon::intersected(class QPolygon const &) const
	??0QStyleOptionTabV2@@IAE@H@Z @ 3085 NONAME ; QStyleOptionTabV2::QStyleOptionTabV2(int)
	?setOptimizationFlags@QGraphicsView@@QAEXV?$QFlags@W4OptimizationFlag@QGraphicsView@@@@@Z @ 3086 NONAME ; void QGraphicsView::setOptimizationFlags(class QFlags<enum QGraphicsView::OptimizationFlag>)
	?contextMenuEvent@QMainWindow@@MAEXPAVQContextMenuEvent@@@Z @ 3087 NONAME ; void QMainWindow::contextMenuEvent(class QContextMenuEvent *)
	?m22@QTransform@@QBEMXZ @ 3088 NONAME ; float QTransform::m22(void) const
	?cursor@QLineControl@@QBEHXZ @ 3089 NONAME ; int QLineControl::cursor(void) const
	?updateTopBottomMargin@QComboBoxPrivateContainer@@QAEXXZ @ 3090 NONAME ; void QComboBoxPrivateContainer::updateTopBottomMargin(void)
	?lazyDoneCurrent@QEglContext@@QAE_NXZ @ 3091 NONAME ; bool QEglContext::lazyDoneCurrent(void)
	?flags@QTextOption@@QBE?AV?$QFlags@W4Flag@QTextOption@@@@XZ @ 3092 NONAME ; class QFlags<enum QTextOption::Flag> QTextOption::flags(void) const
	?edit@QAbstractItemView@@MAE_NABVQModelIndex@@W4EditTrigger@1@PAVQEvent@@@Z @ 3093 NONAME ; bool QAbstractItemView::edit(class QModelIndex const &, enum QAbstractItemView::EditTrigger, class QEvent *)
	?setDashPattern@QPainterPathStroker@@QAEXABV?$QVector@M@@@Z @ 3094 NONAME ; void QPainterPathStroker::setDashPattern(class QVector<float> const &)
	?intersected@QPainterPath@@QBE?AV1@ABV1@@Z @ 3095 NONAME ; class QPainterPath QPainterPath::intersected(class QPainterPath const &) const
	?isClean@QUndoStack@@QBE_NXZ @ 3096 NONAME ; bool QUndoStack::isClean(void) const
	??_EQKeyEventTransition@@UAE@I@Z @ 3097 NONAME ; QKeyEventTransition::~QKeyEventTransition(unsigned int)
	?wizard@QWizardPage@@IBEPAVQWizard@@XZ @ 3098 NONAME ; class QWizard * QWizardPage::wizard(void) const
	?setLayoutDirection@QTextFormat@@QAEXW4LayoutDirection@Qt@@@Z @ 3099 NONAME ; void QTextFormat::setLayoutDirection(enum Qt::LayoutDirection)
	?createStandardContextMenu@QLineEdit@@QAEPAVQMenu@@XZ @ 3100 NONAME ; class QMenu * QLineEdit::createStandardContextMenu(void)
	?trUtf8@QLayout@@SA?AVQString@@PBD0H@Z @ 3101 NONAME ; class QString QLayout::trUtf8(char const *, char const *, int)
	?toPolygon@QBezier@@QBE?AVQPolygonF@@XZ @ 3102 NONAME ; class QPolygonF QBezier::toPolygon(void) const
	?clearMessage@QSplashScreen@@QAEXXZ @ 3103 NONAME ; void QSplashScreen::clearMessage(void)
	?closePersistentEditor@QAbstractItemView@@QAEXABVQModelIndex@@@Z @ 3104 NONAME ; void QAbstractItemView::closePersistentEditor(class QModelIndex const &)
	?useDesignMetrics@QTextDocument@@QBE_NXZ @ 3105 NONAME ; bool QTextDocument::useDesignMetrics(void) const
	?type@QGraphicsItemGroup@@UBEHXZ @ 3106 NONAME ; int QGraphicsItemGroup::type(void) const
	?trUtf8@QGraphicsOpacityEffect@@SA?AVQString@@PBD0H@Z @ 3107 NONAME ; class QString QGraphicsOpacityEffect::trUtf8(char const *, char const *, int)
	??0QBrush@@QAE@ABVQPixmap@@@Z @ 3108 NONAME ; QBrush::QBrush(class QPixmap const &)
	?tr@QPlainTextDocumentLayout@@SA?AVQString@@PBD0H@Z @ 3109 NONAME ; class QString QPlainTextDocumentLayout::tr(char const *, char const *, int)
	?tileSubWindows@QMdiArea@@QAEXXZ @ 3110 NONAME ; void QMdiArea::tileSubWindows(void)
	?d_func@QMessageBox@@ABEPBVQMessageBoxPrivate@@XZ @ 3111 NONAME ; class QMessageBoxPrivate const * QMessageBox::d_func(void) const
	?focalPoint@QRadialGradient@@QBE?AVQPointF@@XZ @ 3112 NONAME ; class QPointF QRadialGradient::focalPoint(void) const
	?selectedItems@QListWidget@@QBE?AV?$QList@PAVQListWidgetItem@@@@XZ @ 3113 NONAME ; class QList<class QListWidgetItem *> QListWidget::selectedItems(void) const
	?bidiReorder@QTextEngine@@SAXHPBEPAH@Z @ 3114 NONAME ; void QTextEngine::bidiReorder(int, unsigned char const *, int *)
	?sizeFromContents@QCommonStyle@@UBE?AVQSize@@W4ContentsType@QStyle@@PBVQStyleOption@@ABV2@PBVQWidget@@@Z @ 3115 NONAME ; class QSize QCommonStyle::sizeFromContents(enum QStyle::ContentsType, class QStyleOption const *, class QSize const &, class QWidget const *) const
	?isBackwardAvailable@QTextBrowser@@QBE_NXZ @ 3116 NONAME ; bool QTextBrowser::isBackwardAvailable(void) const
	?setCreationPermissions@QZipWriter@@QAEXV?$QFlags@W4Permission@QFile@@@@@Z @ 3117 NONAME ; void QZipWriter::setCreationPermissions(class QFlags<enum QFile::Permission>)
	??1QTextCursor@@QAE@XZ @ 3118 NONAME ; QTextCursor::~QTextCursor(void)
	?node@QFileSystemModelPrivate@@QBEPAVQFileSystemNode@1@ABVQModelIndex@@@Z @ 3119 NONAME ; class QFileSystemModelPrivate::QFileSystemNode * QFileSystemModelPrivate::node(class QModelIndex const &) const
	?setItem@QTableWidget@@QAEXHHPAVQTableWidgetItem@@@Z @ 3120 NONAME ; void QTableWidget::setItem(int, int, class QTableWidgetItem *)
	??0QSpacerItem@@QAE@HHW4Policy@QSizePolicy@@0@Z @ 3121 NONAME ; QSpacerItem::QSpacerItem(int, int, enum QSizePolicy::Policy, enum QSizePolicy::Policy)
	?keyReleaseEvent@QGraphicsProxyWidget@@MAEXPAVQKeyEvent@@@Z @ 3122 NONAME ; void QGraphicsProxyWidget::keyReleaseEvent(class QKeyEvent *)
	?mapFromScene@QGraphicsItem@@QBE?AVQPointF@@MM@Z @ 3123 NONAME ; class QPointF QGraphicsItem::mapFromScene(float, float) const
	?setRowCount@QStandardItemModel@@QAEXH@Z @ 3124 NONAME ; void QStandardItemModel::setRowCount(int)
	?lastPosition@QTextTableCell@@QBEHXZ @ 3125 NONAME ; int QTextTableCell::lastPosition(void) const
	?_q_changeCurrentColumn@QColumnViewPrivate@@QAEXXZ @ 3126 NONAME ; void QColumnViewPrivate::_q_changeCurrentColumn(void)
	?getStaticMetaObject@QDesktopWidget@@SAABUQMetaObject@@XZ @ 3127 NONAME ; struct QMetaObject const & QDesktopWidget::getStaticMetaObject(void)
	?updateSoftKeys@QSoftKeyManager@@SAXXZ @ 3128 NONAME ; void QSoftKeyManager::updateSoftKeys(void)
	?preeditAreaText@QTextLayout@@QBE?AVQString@@XZ @ 3129 NONAME ; class QString QTextLayout::preeditAreaText(void) const
	??1QAbstractItemView@@UAE@XZ @ 3130 NONAME ; QAbstractItemView::~QAbstractItemView(void)
	?parentWidget@QShortcut@@QBEPAVQWidget@@XZ @ 3131 NONAME ; class QWidget * QShortcut::parentWidget(void) const
	?smallCapsFont@QFontPrivate@@QBE?AVQFont@@XZ @ 3132 NONAME ; class QFont QFontPrivate::smallCapsFont(void) const
	?qt_metacast@QScrollBar@@UAEPAXPBD@Z @ 3133 NONAME ; void * QScrollBar::qt_metacast(char const *)
	?removeFromIndex@QGraphicsItem@@IAEXXZ @ 3134 NONAME ; void QGraphicsItem::removeFromIndex(void)
	?drawRects@QPainter@@QAEXPBVQRectF@@H@Z @ 3135 NONAME ; void QPainter::drawRects(class QRectF const *, int)
	?setResolveSymlinks@QFileSystemModel@@QAEX_N@Z @ 3136 NONAME ; void QFileSystemModel::setResolveSymlinks(bool)
	??5@YAAAVQDataStream@@AAV0@AAVQTreeWidgetItem@@@Z @ 3137 NONAME ; class QDataStream & operator>>(class QDataStream &, class QTreeWidgetItem &)
	?qt_metacast@QGraphicsSceneIndex@@UAEPAXPBD@Z @ 3138 NONAME ; void * QGraphicsSceneIndex::qt_metacast(char const *)
	?qt_metacast@QToolBar@@UAEPAXPBD@Z @ 3139 NONAME ; void * QToolBar::qt_metacast(char const *)
	?setFileMode@QFileDialog@@QAEXW4FileMode@1@@Z @ 3140 NONAME ; void QFileDialog::setFileMode(enum QFileDialog::FileMode)
	?executePixmapDestructionHooks@QImagePixmapCleanupHooks@@SAXPAVQPixmap@@@Z @ 3141 NONAME ; void QImagePixmapCleanupHooks::executePixmapDestructionHooks(class QPixmap *)
	?blockBoundingGeometry@QPlainTextEdit@@IBE?AVQRectF@@ABVQTextBlock@@@Z @ 3142 NONAME ; class QRectF QPlainTextEdit::blockBoundingGeometry(class QTextBlock const &) const
	??0QColor@@QAE@ABVQString@@@Z @ 3143 NONAME ; QColor::QColor(class QString const &)
	?truncateUndoStack@QTextDocumentPrivate@@AAEXXZ @ 3144 NONAME ; void QTextDocumentPrivate::truncateUndoStack(void)
	?focusNextPrevChild_helper@QApplicationPrivate@@SAPAVQWidget@@PAV2@_N@Z @ 3145 NONAME ; class QWidget * QApplicationPrivate::focusNextPrevChild_helper(class QWidget *, bool)
	?selectionChanged@QLineControl@@IAEXXZ @ 3146 NONAME ; void QLineControl::selectionChanged(void)
	?metaObject@QTextDocument@@UBEPBUQMetaObject@@XZ @ 3147 NONAME ; struct QMetaObject const * QTextDocument::metaObject(void) const
	?finished@QDialog@@IAEXH@Z @ 3148 NONAME ; void QDialog::finished(int)
	?styleSheet@QWidget@@QBE?AVQString@@XZ @ 3149 NONAME ; class QString QWidget::styleSheet(void) const
	?trUtf8@QGraphicsOpacityEffect@@SA?AVQString@@PBD0@Z @ 3150 NONAME ; class QString QGraphicsOpacityEffect::trUtf8(char const *, char const *)
	??0QStyleOptionTabBarBase@@QAE@ABV0@@Z @ 3151 NONAME ; QStyleOptionTabBarBase::QStyleOptionTabBarBase(class QStyleOptionTabBarBase const &)
	?isModified@QTextDocument@@QBE_NXZ @ 3152 NONAME ; bool QTextDocument::isModified(void) const
	?setDocumentMode@QMainWindow@@QAEX_N@Z @ 3153 NONAME ; void QMainWindow::setDocumentMode(bool)
	?itemChanged@QTableWidget@@IAEXPAVQTableWidgetItem@@@Z @ 3154 NONAME ; void QTableWidget::itemChanged(class QTableWidgetItem *)
	?tr@QTextFrame@@SA?AVQString@@PBD0@Z @ 3155 NONAME ; class QString QTextFrame::tr(char const *, char const *)
	?topMargin@QTextFrameFormat@@QBEMXZ @ 3156 NONAME ; float QTextFrameFormat::topMargin(void) const
	?qt_qsliderStyleOption@@YA?AVQStyleOptionSlider@@PAVQSlider@@@Z @ 3157 NONAME ; class QStyleOptionSlider qt_qsliderStyleOption(class QSlider *)
	?isClipEnabled@QPaintEngineState@@QBE_NXZ @ 3158 NONAME ; bool QPaintEngineState::isClipEnabled(void) const
	?setBackground@QTextFormat@@QAEXABVQBrush@@@Z @ 3159 NONAME ; void QTextFormat::setBackground(class QBrush const &)
	?weekdayTextFormat@QCalendarWidget@@QBE?AVQTextCharFormat@@W4DayOfWeek@Qt@@@Z @ 3160 NONAME ; class QTextCharFormat QCalendarWidget::weekdayTextFormat(enum Qt::DayOfWeek) const
	?setRedirected@QPainter@@SAXPBVQPaintDevice@@PAV2@ABVQPoint@@@Z @ 3161 NONAME ; void QPainter::setRedirected(class QPaintDevice const *, class QPaintDevice *, class QPoint const &)
	?setUpLayout@QTabWidget@@AAEX_N@Z @ 3162 NONAME ; void QTabWidget::setUpLayout(bool)
	?setReadOnly@QDirModel@@QAEX_N@Z @ 3163 NONAME ; void QDirModel::setReadOnly(bool)
	?qt_metacast@QPaintBufferResource@@UAEPAXPBD@Z @ 3164 NONAME ; void * QPaintBufferResource::qt_metacast(char const *)
	?getContentsMargins@QWidget@@QBEXPAH000@Z @ 3165 NONAME ; void QWidget::getContentsMargins(int *, int *, int *, int *) const
	?selectUrl@QSidebar@@QAEXABVQUrl@@@Z @ 3166 NONAME ; void QSidebar::selectUrl(class QUrl const &)
	?size@QFontMetrics@@QBE?AVQSize@@HABVQString@@HPAH@Z @ 3167 NONAME ; class QSize QFontMetrics::size(int, class QString const &, int, int *) const
	?selectedNameFilter@QFileDialog@@QBE?AVQString@@XZ @ 3168 NONAME ; class QString QFileDialog::selectedNameFilter(void) const
	?mousePressEvent@QTabBar@@MAEXPAVQMouseEvent@@@Z @ 3169 NONAME ; void QTabBar::mousePressEvent(class QMouseEvent *)
	?grabMouse@QWidget@@QAEXABVQCursor@@@Z @ 3170 NONAME ; void QWidget::grabMouse(class QCursor const &)
	?isNaturalChild@QStyleSheetStyle@@CA_NPBVQWidget@@@Z @ 3171 NONAME ; bool QStyleSheetStyle::isNaturalChild(class QWidget const *)
	?getStaticMetaObject@QMessageBox@@SAABUQMetaObject@@XZ @ 3172 NONAME ; struct QMetaObject const & QMessageBox::getStaticMetaObject(void)
	?reparentFocusWidgets@QWidgetPrivate@@QAEXPAVQWidget@@@Z @ 3173 NONAME ; void QWidgetPrivate::reparentFocusWidgets(class QWidget *)
	?restoreState@QMainWindowLayout@@QAE_NAAVQDataStream@@@Z @ 3174 NONAME ; bool QMainWindowLayout::restoreState(class QDataStream &)
	?mimeData@QFileSystemModel@@UBEPAVQMimeData@@ABV?$QList@VQModelIndex@@@@@Z @ 3175 NONAME ; class QMimeData * QFileSystemModel::mimeData(class QList<class QModelIndex> const &) const
	?mapToParent@QGraphicsItem@@QBE?AVQPointF@@MM@Z @ 3176 NONAME ; class QPointF QGraphicsItem::mapToParent(float, float) const
	?internalWinId@QWidget@@QBEPAVCCoeControl@@XZ @ 3177 NONAME ; class CCoeControl * QWidget::internalWinId(void) const
	?intersected@QPolygonF@@QBE?AV1@ABV1@@Z @ 3178 NONAME ; class QPolygonF QPolygonF::intersected(class QPolygonF const &) const
	??0QTextCursor@@QAE@PAVQTextDocument@@@Z @ 3179 NONAME ; QTextCursor::QTextCursor(class QTextDocument *)
	?count@QFormLayout@@UBEHXZ @ 3180 NONAME ; int QFormLayout::count(void) const
	?columnPreferredWidth@QGraphicsGridLayout@@QBEMH@Z @ 3181 NONAME ; float QGraphicsGridLayout::columnPreferredWidth(int) const
	?globalX@QHelpEvent@@QBEHXZ @ 3182 NONAME ; int QHelpEvent::globalX(void) const
	??_EQMoveEvent@@UAE@I@Z @ 3183 NONAME ; QMoveEvent::~QMoveEvent(unsigned int)
	?wordWrapMode@QPlainTextEdit@@QBE?AW4WrapMode@QTextOption@@XZ @ 3184 NONAME ; enum QTextOption::WrapMode QPlainTextEdit::wordWrapMode(void) const
	?setPos@QGraphicsItem@@QAEXMM@Z @ 3185 NONAME ; void QGraphicsItem::setPos(float, float)
	?subtractedInverted@QPainterPath@@QBE?AV1@ABV1@@Z @ 3186 NONAME ; class QPainterPath QPainterPath::subtractedInverted(class QPainterPath const &) const
	?metaObject@QTextControl@@UBEPBUQMetaObject@@XZ @ 3187 NONAME ; struct QMetaObject const * QTextControl::metaObject(void) const
	?isTearOffEnabled@QMenu@@QBE_NXZ @ 3188 NONAME ; bool QMenu::isTearOffEnabled(void) const
	?d_func@QPixmapFilter@@ABEPBVQPixmapFilterPrivate@@XZ @ 3189 NONAME ; class QPixmapFilterPrivate const * QPixmapFilter::d_func(void) const
	?changeEvent@QAbstractSlider@@MAEXPAVQEvent@@@Z @ 3190 NONAME ; void QAbstractSlider::changeEvent(class QEvent *)
	?paintEngine@QPainter@@QBEPAVQPaintEngine@@XZ @ 3191 NONAME ; class QPaintEngine * QPainter::paintEngine(void) const
	?addRoundRect@QPainterPath@@QAEXABVQRectF@@HH@Z @ 3192 NONAME ; void QPainterPath::addRoundRect(class QRectF const &, int, int)
	?descent@QTextInlineObject@@QBEMXZ @ 3193 NONAME ; float QTextInlineObject::descent(void) const
	?setClipping@QPainter@@QAEX_N@Z @ 3194 NONAME ; void QPainter::setClipping(bool)
	?unnest@QDockAreaLayoutInfo@@QAEXH@Z @ 3195 NONAME ; void QDockAreaLayoutInfo::unnest(int)
	?setShortcut@QAbstractButton@@QAEXABVQKeySequence@@@Z @ 3196 NONAME ; void QAbstractButton::setShortcut(class QKeySequence const &)
	?redo@QTextEdit@@QAEXXZ @ 3197 NONAME ; void QTextEdit::redo(void)
	?d_func@QAbstractButton@@ABEPBVQAbstractButtonPrivate@@XZ @ 3198 NONAME ; class QAbstractButtonPrivate const * QAbstractButton::d_func(void) const
	?staticMetaObject@QAction@@2UQMetaObject@@B @ 3199 NONAME ; struct QMetaObject const QAction::staticMetaObject
	?qt_metacast@QFormLayout@@UAEPAXPBD@Z @ 3200 NONAME ; void * QFormLayout::qt_metacast(char const *)
	??1QTimeEdit@@UAE@XZ @ 3201 NONAME ; QTimeEdit::~QTimeEdit(void)
	?paletteChange@QWidget@@MAEXABVQPalette@@@Z @ 3202 NONAME ; void QWidget::paletteChange(class QPalette const &)
	?getStaticMetaObject@QStylePlugin@@SAABUQMetaObject@@XZ @ 3203 NONAME ; struct QMetaObject const & QStylePlugin::getStaticMetaObject(void)
	?updateDirtyRegion@QAbstractItemViewPrivate@@QAEXXZ @ 3204 NONAME ; void QAbstractItemViewPrivate::updateDirtyRegion(void)
	?takeVerticalHeaderItem@QTableWidget@@QAEPAVQTableWidgetItem@@H@Z @ 3205 NONAME ; class QTableWidgetItem * QTableWidget::takeVerticalHeaderItem(int)
	?quality@QImageReader@@QBEHXZ @ 3206 NONAME ; int QImageReader::quality(void) const
	?qt_metacall@QSortFilterProxyModel@@UAEHW4Call@QMetaObject@@HPAPAX@Z @ 3207 NONAME ; int QSortFilterProxyModel::qt_metacall(enum QMetaObject::Call, int, void * *)
	?focusInEvent@QMdiSubWindow@@MAEXPAVQFocusEvent@@@Z @ 3208 NONAME ; void QMdiSubWindow::focusInEvent(class QFocusEvent *)
	?underlineColor@QTextCharFormat@@QBE?AVQColor@@XZ @ 3209 NONAME ; class QColor QTextCharFormat::underlineColor(void) const
	?contains@QRegion@@QBE_NABVQPoint@@@Z @ 3210 NONAME ; bool QRegion::contains(class QPoint const &) const
	?setItem@QFormLayout@@QAEXHW4ItemRole@1@PAVQLayoutItem@@@Z @ 3211 NONAME ; void QFormLayout::setItem(int, enum QFormLayout::ItemRole, class QLayoutItem *)
	?setModel@QDataWidgetMapper@@QAEXPAVQAbstractItemModel@@@Z @ 3212 NONAME ; void QDataWidgetMapper::setModel(class QAbstractItemModel *)
	?setColumnPreferredWidth@QGraphicsGridLayout@@QAEXHM@Z @ 3213 NONAME ; void QGraphicsGridLayout::setColumnPreferredWidth(int, float)
	?grabKeyboard@QGraphicsItem@@QAEXXZ @ 3214 NONAME ; void QGraphicsItem::grabKeyboard(void)
	?ensureSceneTransformRecursive@QGraphicsItemPrivate@@QAEXPAPAVQGraphicsItem@@@Z @ 3215 NONAME ; void QGraphicsItemPrivate::ensureSceneTransformRecursive(class QGraphicsItem * *)
	?shortcut@QAction@@QBE?AVQKeySequence@@XZ @ 3216 NONAME ; class QKeySequence QAction::shortcut(void) const
	?toSubpathPolygons@QPainterPath@@QBE?AV?$QList@VQPolygonF@@@@ABVQTransform@@@Z @ 3217 NONAME ; class QList<class QPolygonF> QPainterPath::toSubpathPolygons(class QTransform const &) const
	?rows@QPixmapConvolutionFilter@@ABEHXZ @ 3218 NONAME ; int QPixmapConvolutionFilter::rows(void) const
	??5@YAAAVQDataStream@@AAV0@AAVQVector2D@@@Z @ 3219 NONAME ; class QDataStream & operator>>(class QDataStream &, class QVector2D &)
	?setX@QQuaternion@@QAEXM@Z @ 3220 NONAME ; void QQuaternion::setX(float)
	?staticMetaObject@QComboBoxPrivateScroller@@2UQMetaObject@@B @ 3221 NONAME ; struct QMetaObject const QComboBoxPrivateScroller::staticMetaObject
	?drawTextItem@QPainter@@QAEXHHABVQTextItem@@@Z @ 3222 NONAME ; void QPainter::drawTextItem(int, int, class QTextItem const &)
	?scenePos@TouchPoint@QTouchEvent@@QBE?AVQPointF@@XZ @ 3223 NONAME ; class QPointF QTouchEvent::TouchPoint::scenePos(void) const
	?tr@QErrorMessage@@SA?AVQString@@PBD0H@Z @ 3224 NONAME ; class QString QErrorMessage::tr(char const *, char const *, int)
	?drawEllipse@QPaintEngine@@UAEXABVQRect@@@Z @ 3225 NONAME ; void QPaintEngine::drawEllipse(class QRect const &)
	?determinant@QTransform@@QBEMXZ @ 3226 NONAME ; float QTransform::determinant(void) const
	?commitData@QAbstractItemView@@MAEXPAVQWidget@@@Z @ 3227 NONAME ; void QAbstractItemView::commitData(class QWidget *)
	?setHeaderItem@QTreeWidget@@QAEXPAVQTreeWidgetItem@@@Z @ 3228 NONAME ; void QTreeWidget::setHeaderItem(class QTreeWidgetItem *)
	?qt_metacast@QFileInfoGatherer@@UAEPAXPBD@Z @ 3229 NONAME ; void * QFileInfoGatherer::qt_metacast(char const *)
	??_EQGesture@@UAE@I@Z @ 3230 NONAME ; QGesture::~QGesture(unsigned int)
	?scroll@QPixmap@@QAEXHHHHHHPAVQRegion@@@Z @ 3231 NONAME ; void QPixmap::scroll(int, int, int, int, int, int, class QRegion *)
	?parseHexColor@Parser@QCss@@QAE_NPAVQColor@@@Z @ 3232 NONAME ; bool QCss::Parser::parseHexColor(class QColor *)
	??1QTextDocumentFragment@@QAE@XZ @ 3233 NONAME ; QTextDocumentFragment::~QTextDocumentFragment(void)
	?setInsertPolicy@QComboBox@@QAEXW4InsertPolicy@1@@Z @ 3234 NONAME ; void QComboBox::setInsertPolicy(enum QComboBox::InsertPolicy)
	?setHorizontalSpacing@QGridLayout@@QAEXH@Z @ 3235 NONAME ; void QGridLayout::setHorizontalSpacing(int)
	?setPixelSize@QGraphicsPixelizeEffect@@QAEXH@Z @ 3236 NONAME ; void QGraphicsPixelizeEffect::setPixelSize(int)
	?tr@QImageIOPlugin@@SA?AVQString@@PBD0@Z @ 3237 NONAME ; class QString QImageIOPlugin::tr(char const *, char const *)
	?staticMetaObject@QSoftKeyManager@@2UQMetaObject@@B @ 3238 NONAME ; struct QMetaObject const QSoftKeyManager::staticMetaObject
	?setStyle@QApplication@@SAPAVQStyle@@ABVQString@@@Z @ 3239 NONAME ; class QStyle * QApplication::setStyle(class QString const &)
	??0QDrag@@QAE@PAVQWidget@@@Z @ 3240 NONAME ; QDrag::QDrag(class QWidget *)
	?undoText@QUndoStack@@QBE?AVQString@@XZ @ 3241 NONAME ; class QString QUndoStack::undoText(void) const
	?paintEvent@QScrollBar@@MAEXPAVQPaintEvent@@@Z @ 3242 NONAME ; void QScrollBar::paintEvent(class QPaintEvent *)
	?initStyleOption@QLineEdit@@IBEXPAVQStyleOptionFrame@@@Z @ 3243 NONAME ; void QLineEdit::initStyleOption(class QStyleOptionFrame *) const
	?setIconSize@QToolBar@@QAEXABVQSize@@@Z @ 3244 NONAME ; void QToolBar::setIconSize(class QSize const &)
	?isEnabled@QShortcut@@QBE_NXZ @ 3245 NONAME ; bool QShortcut::isEnabled(void) const
	?setSelectionArea@QGraphicsScene@@QAEXABVQPainterPath@@ABVQTransform@@@Z @ 3246 NONAME ; void QGraphicsScene::setSelectionArea(class QPainterPath const &, class QTransform const &)
	?metaObject@QDirModel@@UBEPBUQMetaObject@@XZ @ 3247 NONAME ; struct QMetaObject const * QDirModel::metaObject(void) const
	?elideMode@QTabWidget@@QBE?AW4TextElideMode@Qt@@XZ @ 3248 NONAME ; enum Qt::TextElideMode QTabWidget::elideMode(void) const
	?d_func@QPushButton@@ABEPBVQPushButtonPrivate@@XZ @ 3249 NONAME ; class QPushButtonPrivate const * QPushButton::d_func(void) const
	?minRightBearing@QFontEngine@@UBEMXZ @ 3250 NONAME ; float QFontEngine::minRightBearing(void) const
	?isAmbiguous@QShortcutEvent@@QBE_NXZ @ 3251 NONAME ; bool QShortcutEvent::isAmbiguous(void) const
	?getStaticMetaObject@QAbstractSpinBox@@SAABUQMetaObject@@XZ @ 3252 NONAME ; struct QMetaObject const & QAbstractSpinBox::getStaticMetaObject(void)
	?testPrio@Parser@QCss@@QAE_NXZ @ 3253 NONAME ; bool QCss::Parser::testPrio(void)
	?getStaticMetaObject@QWizard@@SAABUQMetaObject@@XZ @ 3254 NONAME ; struct QMetaObject const & QWizard::getStaticMetaObject(void)
	?exec@QApplication@@SAHXZ @ 3255 NONAME ; int QApplication::exec(void)
	?windowList@QWorkspace@@QBE?AV?$QList@PAVQWidget@@@@W4WindowOrder@1@@Z @ 3256 NONAME ; class QList<class QWidget *> QWorkspace::windowList(enum QWorkspace::WindowOrder) const
	?setIntMinimum@QInputDialog@@QAEXH@Z @ 3257 NONAME ; void QInputDialog::setIntMinimum(int)
	?pseudoClass@Selector@QCss@@QBE_KPA_K@Z @ 3258 NONAME ; unsigned long long QCss::Selector::pseudoClass(unsigned long long *) const
	?vertexCount@QWingedEdge@@QBEHXZ @ 3259 NONAME ; int QWingedEdge::vertexCount(void) const
	?trUtf8@QWindowsStyle@@SA?AVQString@@PBD0H@Z @ 3260 NONAME ; class QString QWindowsStyle::trUtf8(char const *, char const *, int)
	?displayTextChanged@QLineControl@@IAEXABVQString@@@Z @ 3261 NONAME ; void QLineControl::displayTextChanged(class QString const &)
	?strikeOutPos@QFontMetrics@@QBEHXZ @ 3262 NONAME ; int QFontMetrics::strikeOutPos(void) const
	?sectionSize@QHeaderView@@QBEHH@Z @ 3263 NONAME ; int QHeaderView::sectionSize(int) const
	?d_func@QSound@@ABEPBVQSoundPrivate@@XZ @ 3264 NONAME ; class QSoundPrivate const * QSound::d_func(void) const
	?cellRect@QGridLayout@@QBE?AVQRect@@HH@Z @ 3265 NONAME ; class QRect QGridLayout::cellRect(int, int) const
	?sectionSizeHint@QHeaderView@@QBEHH@Z @ 3266 NONAME ; int QHeaderView::sectionSizeHint(int) const
	?internalDrag@QListView@@IAEXV?$QFlags@W4DropAction@Qt@@@@@Z @ 3267 NONAME ; void QListView::internalDrag(class QFlags<enum Qt::DropAction>)
	??8QPalette@@QBE_NABV0@@Z @ 3268 NONAME ; bool QPalette::operator==(class QPalette const &) const
	?initStyleOption@QAbstractSpinBox@@IBEXPAVQStyleOptionSpinBox@@@Z @ 3269 NONAME ; void QAbstractSpinBox::initStyleOption(class QStyleOptionSpinBox *) const
	?nameFilterDisables@QFileSystemModel@@QBE_NXZ @ 3270 NONAME ; bool QFileSystemModel::nameFilterDisables(void) const
	?onTransition@QKeyEventTransition@@MAEXPAVQEvent@@@Z @ 3271 NONAME ; void QKeyEventTransition::onTransition(class QEvent *)
	?size@QImageReader@@QBE?AVQSize@@XZ @ 3272 NONAME ; class QSize QImageReader::size(void) const
	?unite@QRegion@@QBE?AV1@ABVQRect@@@Z @ 3273 NONAME ; class QRegion QRegion::unite(class QRect const &) const
	?strength@QGraphicsBloomEffect@@QBEMXZ @ 3274 NONAME ; float QGraphicsBloomEffect::strength(void) const
	?registerEditor@QItemEditorFactory@@QAEXW4Type@QVariant@@PAVQItemEditorCreatorBase@@@Z @ 3275 NONAME ; void QItemEditorFactory::registerEditor(enum QVariant::Type, class QItemEditorCreatorBase *)
	?itemChange@QGraphicsSceneIndex@@MAEXPBVQGraphicsItem@@W4GraphicsItemChange@2@ABVQVariant@@@Z @ 3276 NONAME ; void QGraphicsSceneIndex::itemChange(class QGraphicsItem const *, enum QGraphicsItem::GraphicsItemChange, class QVariant const &)
	?count@QListWidget@@QBEHXZ @ 3277 NONAME ; int QListWidget::count(void) const
	?loadFromData@QPixmap@@QAE_NPBEIPBDV?$QFlags@W4ImageConversionFlag@Qt@@@@@Z @ 3278 NONAME ; bool QPixmap::loadFromData(unsigned char const *, unsigned int, char const *, class QFlags<enum Qt::ImageConversionFlag>)
	?updateEditorGeometry@QAbstractItemDelegate@@UBEXPAVQWidget@@ABVQStyleOptionViewItem@@ABVQModelIndex@@@Z @ 3279 NONAME ; void QAbstractItemDelegate::updateEditorGeometry(class QWidget *, class QStyleOptionViewItem const &, class QModelIndex const &) const
	?d_func@QFileDialog@@ABEPBVQFileDialogPrivate@@XZ @ 3280 NONAME ; class QFileDialogPrivate const * QFileDialog::d_func(void) const
	??_EQDateEdit@@UAE@I@Z @ 3281 NONAME ; QDateEdit::~QDateEdit(unsigned int)
	?mapToScene@QGraphicsView@@QBE?AVQPolygonF@@HHHH@Z @ 3282 NONAME ; class QPolygonF QGraphicsView::mapToScene(int, int, int, int) const
	?cleanupPage@QWizardPage@@UAEXXZ @ 3283 NONAME ; void QWizardPage::cleanupPage(void)
	?fitInView@QGraphicsView@@QAEXPBVQGraphicsItem@@W4AspectRatioMode@Qt@@@Z @ 3284 NONAME ; void QGraphicsView::fitInView(class QGraphicsItem const *, enum Qt::AspectRatioMode)
	?fileData@QZipReader@@QBE?AVQByteArray@@ABVQString@@@Z @ 3285 NONAME ; class QByteArray QZipReader::fileData(class QString const &) const
	?setOpenExternalLinks@QTextControl@@QAEX_N@Z @ 3286 NONAME ; void QTextControl::setOpenExternalLinks(bool)
	?endLayout@QTextLayout@@QAEXXZ @ 3287 NONAME ; void QTextLayout::endLayout(void)
	?toVector3D@QVector4D@@QBE?AVQVector3D@@XZ @ 3288 NONAME ; class QVector3D QVector4D::toVector3D(void) const
	?setY@QVector2D@@QAEXM@Z @ 3289 NONAME ; void QVector2D::setY(float)
	?itemEntered@QTreeWidget@@IAEXPAVQTreeWidgetItem@@H@Z @ 3290 NONAME ; void QTreeWidget::itemEntered(class QTreeWidgetItem *, int)
	?getStaticMetaObject@QGraphicsRotation@@SAABUQMetaObject@@XZ @ 3291 NONAME ; struct QMetaObject const & QGraphicsRotation::getStaticMetaObject(void)
	?d_func@QMenu@@AAEPAVQMenuPrivate@@XZ @ 3292 NONAME ; class QMenuPrivate * QMenu::d_func(void)
	?windowStateChanged@QMdiSubWindow@@IAEXV?$QFlags@W4WindowState@Qt@@@@0@Z @ 3293 NONAME ; void QMdiSubWindow::windowStateChanged(class QFlags<enum Qt::WindowState>, class QFlags<enum Qt::WindowState>)
	?tr@QCalendarWidget@@SA?AVQString@@PBD0@Z @ 3294 NONAME ; class QString QCalendarWidget::tr(char const *, char const *)
	?devType@QPicture@@UBEHXZ @ 3295 NONAME ; int QPicture::devType(void) const
	?setVisible@QWizard@@UAEX_N@Z @ 3296 NONAME ; void QWizard::setVisible(bool)
	?setPressure@TouchPoint@QTouchEvent@@QAEXM@Z @ 3297 NONAME ; void QTouchEvent::TouchPoint::setPressure(float)
	?dropEvent@QListWidget@@UAEXPAVQDropEvent@@@Z @ 3298 NONAME ; void QListWidget::dropEvent(class QDropEvent *)
	?verticalHeader@QTableView@@QBEPAVQHeaderView@@XZ @ 3299 NONAME ; class QHeaderView * QTableView::verticalHeader(void) const
	?keyPressEvent@QCalendarWidget@@MAEXPAVQKeyEvent@@@Z @ 3300 NONAME ; void QCalendarWidget::keyPressEvent(class QKeyEvent *)
	??0QTimeEdit@@QAE@ABVQTime@@PAVQWidget@@@Z @ 3301 NONAME ; QTimeEdit::QTimeEdit(class QTime const &, class QWidget *)
	??1QBoxLayout@@UAE@XZ @ 3302 NONAME ; QBoxLayout::~QBoxLayout(void)
	?keepSize@QDockAreaLayout@@QAEXPAVQDockWidget@@@Z @ 3303 NONAME ; void QDockAreaLayout::keepSize(class QDockWidget *)
	?fileSelected@QFileDialog@@IAEXABVQString@@@Z @ 3304 NONAME ; void QFileDialog::fileSelected(class QString const &)
	?setItem@QGraphicsItemAnimation@@QAEXPAVQGraphicsItem@@@Z @ 3305 NONAME ; void QGraphicsItemAnimation::setItem(class QGraphicsItem *)
	?polish@QProxyStyle@@UAEXPAVQApplication@@@Z @ 3306 NONAME ; void QProxyStyle::polish(class QApplication *)
	?trUtf8@QStyledItemDelegate@@SA?AVQString@@PBD0@Z @ 3307 NONAME ; class QString QStyledItemDelegate::trUtf8(char const *, char const *)
	?setRawMode@QFont@@QAEX_N@Z @ 3308 NONAME ; void QFont::setRawMode(bool)
	?d_func@QGraphicsLayoutItem@@AAEPAVQGraphicsLayoutItemPrivate@@XZ @ 3309 NONAME ; class QGraphicsLayoutItemPrivate * QGraphicsLayoutItem::d_func(void)
	?information@QMessageBox@@SAHPAVQWidget@@ABVQString@@1HHH@Z @ 3310 NONAME ; int QMessageBox::information(class QWidget *, class QString const &, class QString const &, int, int, int)
	?shear@QPainter@@QAEXMM@Z @ 3311 NONAME ; void QPainter::shear(float, float)
	?tr@QRegExpValidator@@SA?AVQString@@PBD0H@Z @ 3312 NONAME ; class QString QRegExpValidator::tr(char const *, char const *, int)
	?setActive@QPaintEngine@@QAEX_N@Z @ 3313 NONAME ; void QPaintEngine::setActive(bool)
	?trUtf8@QStandardItemModel@@SA?AVQString@@PBD0@Z @ 3314 NONAME ; class QString QStandardItemModel::trUtf8(char const *, char const *)
	?currentContext@QEglContext@@CAPAV1@W4API@QEgl@@@Z @ 3315 NONAME ; class QEglContext * QEglContext::currentContext(enum QEgl::API)
	?customCount@QColorDialog@@SAHXZ @ 3316 NONAME ; int QColorDialog::customCount(void)
	?tr@QTextFrame@@SA?AVQString@@PBD0H@Z @ 3317 NONAME ; class QString QTextFrame::tr(char const *, char const *, int)
	?setIcon@QTreeWidgetItem@@QAEXHABVQIcon@@@Z @ 3318 NONAME ; void QTreeWidgetItem::setIcon(int, class QIcon const &)
	?addButton@QMessageBox@@QAEXPAVQAbstractButton@@W4ButtonRole@1@@Z @ 3319 NONAME ; void QMessageBox::addButton(class QAbstractButton *, enum QMessageBox::ButtonRole)
	?scaledToHeight@QPixmap@@QBE?AV1@HW4TransformationMode@Qt@@@Z @ 3320 NONAME ; class QPixmap QPixmap::scaledToHeight(int, enum Qt::TransformationMode) const
	?columnCount@QFileSystemModel@@UBEHABVQModelIndex@@@Z @ 3321 NONAME ; int QFileSystemModel::columnCount(class QModelIndex const &) const
	?state@TouchPoint@QTouchEvent@@QBE?AW4TouchPointState@Qt@@XZ @ 3322 NONAME ; enum Qt::TouchPointState QTouchEvent::TouchPoint::state(void) const
	?joinModeForJoin@QStroker@@KA?AW4LineJoinMode@1@W4PenJoinStyle@Qt@@@Z @ 3323 NONAME ; enum QStroker::LineJoinMode QStroker::joinModeForJoin(enum Qt::PenJoinStyle)
	?fileSystemIcon@QGuiPlatformPlugin@@UAE?AVQIcon@@ABVQFileInfo@@@Z @ 3324 NONAME ; class QIcon QGuiPlatformPlugin::fileSystemIcon(class QFileInfo const &)
	?mapToParent@QGraphicsItem@@QBE?AVQPolygonF@@ABV2@@Z @ 3325 NONAME ; class QPolygonF QGraphicsItem::mapToParent(class QPolygonF const &) const
	?setKeyboardPageStep@QMdiSubWindow@@QAEXH@Z @ 3326 NONAME ; void QMdiSubWindow::setKeyboardPageStep(int)
	??0QStandardItemModel@@QAE@HHPAVQObject@@@Z @ 3327 NONAME ; QStandardItemModel::QStandardItemModel(int, int, class QObject *)
	??1QTextControl@@UAE@XZ @ 3328 NONAME ; QTextControl::~QTextControl(void)
	?setCompletionPrefix@QCompleter@@QAEXABVQString@@@Z @ 3329 NONAME ; void QCompleter::setCompletionPrefix(class QString const &)
	?inheritStyle@QWidgetPrivate@@QAEXXZ @ 3330 NONAME ; void QWidgetPrivate::inheritStyle(void)
	?showToday@QCalendarWidget@@QAEXXZ @ 3331 NONAME ; void QCalendarWidget::showToday(void)
	?renderHints@QPainter@@QBE?AV?$QFlags@W4RenderHint@QPainter@@@@XZ @ 3332 NONAME ; class QFlags<enum QPainter::RenderHint> QPainter::renderHints(void) const
	?colorValues@Declaration@QCss@@QBEXPAVQColor@@ABVQPalette@@@Z @ 3333 NONAME ; void QCss::Declaration::colorValues(class QColor *, class QPalette const &) const
	?showMenu@QPushButton@@QAEXXZ @ 3334 NONAME ; void QPushButton::showMenu(void)
	?setPointSizeF@QFont@@QAEXM@Z @ 3335 NONAME ; void QFont::setPointSizeF(float)
	?staticMetaObject@QGraphicsRotation@@2UQMetaObject@@B @ 3336 NONAME ; struct QMetaObject const QGraphicsRotation::staticMetaObject
	?getStaticMetaObject@QIconEnginePlugin@@SAABUQMetaObject@@XZ @ 3337 NONAME ; struct QMetaObject const & QIconEnginePlugin::getStaticMetaObject(void)
	?setNavigationMode@QApplicationPrivate@@SAXW4NavigationMode@Qt@@@Z @ 3338 NONAME ; void QApplicationPrivate::setNavigationMode(enum Qt::NavigationMode)
	?hasThemeIcon@QIcon@@SA_NABVQString@@@Z @ 3339 NONAME ; bool QIcon::hasThemeIcon(class QString const &)
	?tryModalHelper@QApplicationPrivate@@SA_NPAVQWidget@@PAPAV2@@Z @ 3340 NONAME ; bool QApplicationPrivate::tryModalHelper(class QWidget *, class QWidget * *)
	?invalidate@QLayoutItem@@UAEXXZ @ 3341 NONAME ; void QLayoutItem::invalidate(void)
	?firstPosition@QTextFrame@@QBEHXZ @ 3342 NONAME ; int QTextFrame::firstPosition(void) const
	?d_func@QItemDelegate@@ABEPBVQItemDelegatePrivate@@XZ @ 3343 NONAME ; class QItemDelegatePrivate const * QItemDelegate::d_func(void) const
	??0QLineControl@@QAE@ABVQString@@@Z @ 3344 NONAME ; QLineControl::QLineControl(class QString const &)
	?trUtf8@QAbstractScrollArea@@SA?AVQString@@PBD0@Z @ 3345 NONAME ; class QString QAbstractScrollArea::trUtf8(char const *, char const *)
	?format@QTextFormatCollection@@QBE?AVQTextFormat@@H@Z @ 3346 NONAME ; class QTextFormat QTextFormatCollection::format(int) const
	?d_func@QStackedLayout@@AAEPAVQStackedLayoutPrivate@@XZ @ 3347 NONAME ; class QStackedLayoutPrivate * QStackedLayout::d_func(void)
	?trUtf8@QIntValidator@@SA?AVQString@@PBD0@Z @ 3348 NONAME ; class QString QIntValidator::trUtf8(char const *, char const *)
	?helpEvent@QAbstractItemDelegate@@QAE_NPAVQHelpEvent@@PAVQAbstractItemView@@ABVQStyleOptionViewItem@@ABVQModelIndex@@@Z @ 3349 NONAME ; bool QAbstractItemDelegate::helpEvent(class QHelpEvent *, class QAbstractItemView *, class QStyleOptionViewItem const &, class QModelIndex const &)
	?getContentsMargins@QGraphicsLayoutItem@@UBEXPAM000@Z @ 3350 NONAME ; void QGraphicsLayoutItem::getContentsMargins(float *, float *, float *, float *) const
	?buffer@QRasterPixmapData@@UAEPAVQImage@@XZ @ 3351 NONAME ; class QImage * QRasterPixmapData::buffer(void)
	?processEvent@QTextControl@@QAEXPAVQEvent@@ABVQPointF@@PAVQWidget@@@Z @ 3352 NONAME ; void QTextControl::processEvent(class QEvent *, class QPointF const &, class QWidget *)
	?resizeSections@QHeaderView@@IAEXXZ @ 3353 NONAME ; void QHeaderView::resizeSections(void)
	?setVerticalHeader@QTableView@@QAEXPAVQHeaderView@@@Z @ 3354 NONAME ; void QTableView::setVerticalHeader(class QHeaderView *)
	?staticMetaObject@QAbstractScrollArea@@2UQMetaObject@@B @ 3355 NONAME ; struct QMetaObject const QAbstractScrollArea::staticMetaObject
	?matchRule@StyleSelector@QCss@@AAEXTNodePtr@12@ABUStyleRule@2@W4StyleSheetOrigin@2@HPAV?$QMap@IUStyleRule@QCss@@@@@Z @ 3356 NONAME ; void QCss::StyleSelector::matchRule(union QCss::StyleSelector::NodePtr, struct QCss::StyleRule const &, enum QCss::StyleSheetOrigin, int, class QMap<unsigned int, struct QCss::StyleRule> *)
	?scrollToItem@QListWidget@@QAEXPBVQListWidgetItem@@W4ScrollHint@QAbstractItemView@@@Z @ 3357 NONAME ; void QListWidget::scrollToItem(class QListWidgetItem const *, enum QAbstractItemView::ScrollHint)
	?lookupElementName@Parser@QCss@@QBE_NXZ @ 3358 NONAME ; bool QCss::Parser::lookupElementName(void) const
	?d_func@QPaintEngine@@AAEPAVQPaintEnginePrivate@@XZ @ 3359 NONAME ; class QPaintEnginePrivate * QPaintEngine::d_func(void)
	?undoAvailable@QTextControl@@IAEX_N@Z @ 3360 NONAME ; void QTextControl::undoAvailable(bool)
	?isHidden@QListWidgetItem@@QBE_NXZ @ 3361 NONAME ; bool QListWidgetItem::isHidden(void) const
	?resizeEvent@QMenuBar@@MAEXPAVQResizeEvent@@@Z @ 3362 NONAME ; void QMenuBar::resizeEvent(class QResizeEvent *)
	?matches@QKeyEvent@@QBE_NW4StandardKey@QKeySequence@@@Z @ 3363 NONAME ; bool QKeyEvent::matches(enum QKeySequence::StandardKey) const
	?rowCount@QStringListModel@@UBEHABVQModelIndex@@@Z @ 3364 NONAME ; int QStringListModel::rowCount(class QModelIndex const &) const
	?trUtf8@QDataWidgetMapper@@SA?AVQString@@PBD0H@Z @ 3365 NONAME ; class QString QDataWidgetMapper::trUtf8(char const *, char const *, int)
	?setColumnMinimumWidth@QGraphicsGridLayout@@QAEXHM@Z @ 3366 NONAME ; void QGraphicsGridLayout::setColumnMinimumWidth(int, float)
	?find@QPlainTextEdit@@QAE_NABVQString@@V?$QFlags@W4FindFlag@QTextDocument@@@@@Z @ 3367 NONAME ; bool QPlainTextEdit::find(class QString const &, class QFlags<enum QTextDocument::FindFlag>)
	?isExpanded@QTreeView@@QBE_NABVQModelIndex@@@Z @ 3368 NONAME ; bool QTreeView::isExpanded(class QModelIndex const &) const
	?d_func@QStandardItem@@ABEPBVQStandardItemPrivate@@XZ @ 3369 NONAME ; class QStandardItemPrivate const * QStandardItem::d_func(void) const
	?clicked@QAbstractItemView@@IAEXABVQModelIndex@@@Z @ 3370 NONAME ; void QAbstractItemView::clicked(class QModelIndex const &)
	?m21@QMatrix@@QBEMXZ @ 3371 NONAME ; float QMatrix::m21(void) const
	?indexOf@QStackedWidget@@QBEHPAVQWidget@@@Z @ 3372 NONAME ; int QStackedWidget::indexOf(class QWidget *) const
	?staticMetaObject@QSwipeGesture@@2UQMetaObject@@B @ 3373 NONAME ; struct QMetaObject const QSwipeGesture::staticMetaObject
	?setHorizontalScrollMode@QAbstractItemView@@QAEXW4ScrollMode@1@@Z @ 3374 NONAME ; void QAbstractItemView::setHorizontalScrollMode(enum QAbstractItemView::ScrollMode)
	?drawConvexPolygon@QPainter@@QAEXPBVQPointF@@H@Z @ 3375 NONAME ; void QPainter::drawConvexPolygon(class QPointF const *, int)
	??4QStyleOptionViewItemV2@@QAEAAV0@ABVQStyleOptionViewItem@@@Z @ 3376 NONAME ; class QStyleOptionViewItemV2 & QStyleOptionViewItemV2::operator=(class QStyleOptionViewItem const &)
	?staticMetaObject@QGroupBox@@2UQMetaObject@@B @ 3377 NONAME ; struct QMetaObject const QGroupBox::staticMetaObject
	?opaqueArea@QGraphicsPathItem@@UBE?AVQPainterPath@@XZ @ 3378 NONAME ; class QPainterPath QGraphicsPathItem::opaqueArea(void) const
	?hotSpot@QCursor@@QBE?AVQPoint@@XZ @ 3379 NONAME ; class QPoint QCursor::hotSpot(void) const
	??1QTextEngine@@QAE@XZ @ 3380 NONAME ; QTextEngine::~QTextEngine(void)
	?setVisible@QFileDialog@@UAEX_N@Z @ 3381 NONAME ; void QFileDialog::setVisible(bool)
	?load@QFontDatabase@@CAXPBVQFontPrivate@@H@Z @ 3382 NONAME ; void QFontDatabase::load(class QFontPrivate const *, int)
	?setSerialNumber@QPixmapData@@IAEXH@Z @ 3383 NONAME ; void QPixmapData::setSerialNumber(int)
	?qt_metacast@QSwipeGesture@@UAEPAXPBD@Z @ 3384 NONAME ; void * QSwipeGesture::qt_metacast(char const *)
	??0QTextBlock@@QAE@PAVQTextDocumentPrivate@@H@Z @ 3385 NONAME ; QTextBlock::QTextBlock(class QTextDocumentPrivate *, int)
	??0QPushButton@@QAE@ABVQIcon@@ABVQString@@PAVQWidget@@@Z @ 3386 NONAME ; QPushButton::QPushButton(class QIcon const &, class QString const &, class QWidget *)
	??9iterator@QTextFrame@@QBE_NABV01@@Z @ 3387 NONAME ; bool QTextFrame::iterator::operator!=(class QTextFrame::iterator const &) const
	??1QTableWidgetItem@@UAE@XZ @ 3388 NONAME ; QTableWidgetItem::~QTableWidgetItem(void)
	?columns@QPixmapConvolutionFilter@@ABEHXZ @ 3389 NONAME ; int QPixmapConvolutionFilter::columns(void) const
	?tr@QGraphicsView@@SA?AVQString@@PBD0@Z @ 3390 NONAME ; class QString QGraphicsView::tr(char const *, char const *)
	?tr@QColumnViewGrip@@SA?AVQString@@PBD0H@Z @ 3391 NONAME ; class QString QColumnViewGrip::tr(char const *, char const *, int)
	?isSizeGripEnabled@QDialog@@QBE_NXZ @ 3392 NONAME ; bool QDialog::isSizeGripEnabled(void) const
	?isScalable@QFontDatabase@@QBE_NABVQString@@0@Z @ 3393 NONAME ; bool QFontDatabase::isScalable(class QString const &, class QString const &) const
	?weight@QFontDatabase@@QBEHABVQString@@0@Z @ 3394 NONAME ; int QFontDatabase::weight(class QString const &, class QString const &) const
	?items@QGraphicsScene@@QBE?AV?$QList@PAVQGraphicsItem@@@@ABVQPainterPath@@W4ItemSelectionMode@Qt@@W4SortOrder@5@ABVQTransform@@@Z @ 3395 NONAME ; class QList<class QGraphicsItem *> QGraphicsScene::items(class QPainterPath const &, enum Qt::ItemSelectionMode, enum Qt::SortOrder, class QTransform const &) const
	??_EQGraphicsSceneEvent@@UAE@I@Z @ 3396 NONAME ; QGraphicsSceneEvent::~QGraphicsSceneEvent(unsigned int)
	??BQMatrix4x4@@QBE?AVQVariant@@XZ @ 3397 NONAME ; QMatrix4x4::operator class QVariant(void) const
	?nextCheckState@QToolButton@@MAEXXZ @ 3398 NONAME ; void QToolButton::nextCheckState(void)
	?polish@QCommonStyle@@UAEXPAVQApplication@@@Z @ 3399 NONAME ; void QCommonStyle::polish(class QApplication *)
	?lengthVectorProperty@QTextFormat@@QBE?AV?$QVector@VQTextLength@@@@H@Z @ 3400 NONAME ; class QVector<class QTextLength> QTextFormat::lengthVectorProperty(int) const
	?getStaticMetaObject@QGraphicsBloomEffect@@SAABUQMetaObject@@XZ @ 3401 NONAME ; struct QMetaObject const & QGraphicsBloomEffect::getStaticMetaObject(void)
	?setMinimumDateTime@QDateTimeEdit@@QAEXABVQDateTime@@@Z @ 3402 NONAME ; void QDateTimeEdit::setMinimumDateTime(class QDateTime const &)
	??1QResizeEvent@@UAE@XZ @ 3403 NONAME ; QResizeEvent::~QResizeEvent(void)
	?boundingRectFor@QPixmapConvolutionFilter@@UBE?AVQRectF@@ABV2@@Z @ 3404 NONAME ; class QRectF QPixmapConvolutionFilter::boundingRectFor(class QRectF const &) const
	?setRange@QDoubleSpinBox@@QAEXNN@Z @ 3405 NONAME ; void QDoubleSpinBox::setRange(double, double)
	?hasChildren@QStandardItemModel@@UBE_NABVQModelIndex@@@Z @ 3406 NONAME ; bool QStandardItemModel::hasChildren(class QModelIndex const &) const
	?staticMetaObject@QGraphicsEffectSource@@2UQMetaObject@@B @ 3407 NONAME ; struct QMetaObject const QGraphicsEffectSource::staticMetaObject
	?background@QTableWidgetItem@@QBE?AVQBrush@@XZ @ 3408 NONAME ; class QBrush QTableWidgetItem::background(void) const
	?keyPressEvent@QTabWidget@@MAEXPAVQKeyEvent@@@Z @ 3409 NONAME ; void QTabWidget::keyPressEvent(class QKeyEvent *)
	?dotProduct@QVector4D@@SAMABV1@0@Z @ 3410 NONAME ; float QVector4D::dotProduct(class QVector4D const &, class QVector4D const &)
	?titleBarLayout@QStyleSheetStyle@@ABE?AV?$QHash@W4SubControl@QStyle@@VQRect@@@@PBVQWidget@@PBVQStyleOptionTitleBar@@@Z @ 3411 NONAME ; class QHash<enum QStyle::SubControl, class QRect> QStyleSheetStyle::titleBarLayout(class QWidget const *, class QStyleOptionTitleBar const *) const
	?removeVisibleFile@QFileSystemModelPrivate@@QAEXPAVQFileSystemNode@1@H@Z @ 3412 NONAME ; void QFileSystemModelPrivate::removeVisibleFile(class QFileSystemModelPrivate::QFileSystemNode *, int)
	?mouseMoveEvent@QGraphicsView@@MAEXPAVQMouseEvent@@@Z @ 3413 NONAME ; void QGraphicsView::mouseMoveEvent(class QMouseEvent *)
	?metaObject@QWidgetResizeHandler@@UBEPBUQMetaObject@@XZ @ 3414 NONAME ; struct QMetaObject const * QWidgetResizeHandler::metaObject(void) const
	?minimumSize@QWidget@@QBE?AVQSize@@XZ @ 3415 NONAME ; class QSize QWidget::minimumSize(void) const
	?activateSymbianWindow@QWidgetPrivate@@QAEXPAVCCoeControl@@@Z @ 3416 NONAME ; void QWidgetPrivate::activateSymbianWindow(class CCoeControl *)
	?loadFromData@QImage@@QAE_NPBEHPBD@Z @ 3417 NONAME ; bool QImage::loadFromData(unsigned char const *, int, char const *)
	?addItem@QGridLayout@@QAEXPAVQLayoutItem@@HHHHV?$QFlags@W4AlignmentFlag@Qt@@@@@Z @ 3418 NONAME ; void QGridLayout::addItem(class QLayoutItem *, int, int, int, int, class QFlags<enum Qt::AlignmentFlag>)
	?d_func@QGraphicsPixelizeEffect@@ABEPBVQGraphicsPixelizeEffectPrivate@@XZ @ 3419 NONAME ; class QGraphicsPixelizeEffectPrivate const * QGraphicsPixelizeEffect::d_func(void) const
	??D@YA?AVQLine@@ABV0@ABVQTransform@@@Z @ 3420 NONAME ; class QLine operator*(class QLine const &, class QTransform const &)
	?boundingRectFor@QPixmapDropShadowFilter@@UBE?AVQRectF@@ABV2@@Z @ 3421 NONAME ; class QRectF QPixmapDropShadowFilter::boundingRectFor(class QRectF const &) const
	?caseInsensitiveLessThan@QFileSystemModelPrivate@@SA_NABVQString@@0@Z @ 3422 NONAME ; bool QFileSystemModelPrivate::caseInsensitiveLessThan(class QString const &, class QString const &)
	?del@QLineEdit@@QAEXXZ @ 3423 NONAME ; void QLineEdit::del(void)
	?topData@QWidgetPrivate@@QBEPAUQTLWExtra@@XZ @ 3424 NONAME ; struct QTLWExtra * QWidgetPrivate::topData(void) const
	?hitButton@QAbstractButton@@MBE_NABVQPoint@@@Z @ 3425 NONAME ; bool QAbstractButton::hitButton(class QPoint const &) const
	?setMinimumTime@QDateTimeEdit@@QAEXABVQTime@@@Z @ 3426 NONAME ; void QDateTimeEdit::setMinimumTime(class QTime const &)
	??1QWindowsStyle@@UAE@XZ @ 3427 NONAME ; QWindowsStyle::~QWindowsStyle(void)
	??1QKeyEvent@@UAE@XZ @ 3428 NONAME ; QKeyEvent::~QKeyEvent(void)
	??6@YA?AVQDebug@@V0@ABVQPolygon@@@Z @ 3429 NONAME ; class QDebug operator<<(class QDebug, class QPolygon const &)
	?createMaskFromColor@QPixmap@@QBE?AVQBitmap@@ABVQColor@@W4MaskMode@Qt@@@Z @ 3430 NONAME ; class QBitmap QPixmap::createMaskFromColor(class QColor const &, enum Qt::MaskMode) const
	?d_func@QGraphicsScale@@ABEPBVQGraphicsScalePrivate@@XZ @ 3431 NONAME ; class QGraphicsScalePrivate const * QGraphicsScale::d_func(void) const
	?rowSpan@QTableView@@QBEHHH@Z @ 3432 NONAME ; int QTableView::rowSpan(int, int) const
	?setBrush@QPalette@@QAEXW4ColorRole@1@ABVQBrush@@@Z @ 3433 NONAME ; void QPalette::setBrush(enum QPalette::ColorRole, class QBrush const &)
	?staticMetaObject@QGraphicsScale@@2UQMetaObject@@B @ 3434 NONAME ; struct QMetaObject const QGraphicsScale::staticMetaObject
	?addText@QPainterPath@@QAEXMMABVQFont@@ABVQString@@@Z @ 3435 NONAME ; void QPainterPath::addText(float, float, class QFont const &, class QString const &)
	?dragLeaveEvent@QTextEdit@@MAEXPAVQDragLeaveEvent@@@Z @ 3436 NONAME ; void QTextEdit::dragLeaveEvent(class QDragLeaveEvent *)
	?setDocumentLayout@QTextDocument@@QAEXPAVQAbstractTextDocumentLayout@@@Z @ 3437 NONAME ; void QTextDocument::setDocumentLayout(class QAbstractTextDocumentLayout *)
	?releaseBuffer@QWidgetBackingStore@@AAEXXZ @ 3438 NONAME ; void QWidgetBackingStore::releaseBuffer(void)
	?event@QFileSystemModel@@MAE_NPAVQEvent@@@Z @ 3439 NONAME ; bool QFileSystemModel::event(class QEvent *)
	??0QQuaternion@@QAE@ABV0@@Z @ 3440 NONAME ; QQuaternion::QQuaternion(class QQuaternion const &)
	?setOrientation@QDialogButtonBox@@QAEXW4Orientation@Qt@@@Z @ 3441 NONAME ; void QDialogButtonBox::setOrientation(enum Qt::Orientation)
	?modifiers@QGraphicsSceneMouseEvent@@QBE?AV?$QFlags@W4KeyboardModifier@Qt@@@@XZ @ 3442 NONAME ; class QFlags<enum Qt::KeyboardModifier> QGraphicsSceneMouseEvent::modifiers(void) const
	?buttonText@QPalette@@QBEABVQBrush@@XZ @ 3443 NONAME ; class QBrush const & QPalette::buttonText(void) const
	?tr@QColorDialog@@SA?AVQString@@PBD0@Z @ 3444 NONAME ; class QString QColorDialog::tr(char const *, char const *)
	?preferredHeight@QGraphicsLayoutItem@@QBEMXZ @ 3445 NONAME ; float QGraphicsLayoutItem::preferredHeight(void) const
	?parentItem@QGraphicsLayoutItemPrivate@@QBEPAVQGraphicsItem@@XZ @ 3446 NONAME ; class QGraphicsItem * QGraphicsLayoutItemPrivate::parentItem(void) const
	?hasStaticContentsSupport@QWindowSurface@@QBE_NXZ @ 3447 NONAME ; bool QWindowSurface::hasStaticContentsSupport(void) const
	?tr@QProxyStyle@@SA?AVQString@@PBD0@Z @ 3448 NONAME ; class QString QProxyStyle::tr(char const *, char const *)
	?drawText@QPainter@@QAEXABVQPointF@@ABVQString@@@Z @ 3449 NONAME ; void QPainter::drawText(class QPointF const &, class QString const &)
	?showPreviousMonth@QCalendarWidget@@QAEXXZ @ 3450 NONAME ; void QCalendarWidget::showPreviousMonth(void)
	?update@QWidget@@QAEXXZ @ 3451 NONAME ; void QWidget::update(void)
	?isRowHidden@QListView@@QBE_NH@Z @ 3452 NONAME ; bool QListView::isRowHidden(int) const
	?device@QImageIOHandler@@QBEPAVQIODevice@@XZ @ 3453 NONAME ; class QIODevice * QImageIOHandler::device(void) const
	?setCurrentIndex@QStackedLayout@@QAEXH@Z @ 3454 NONAME ; void QStackedLayout::setCurrentIndex(int)
	?d_func@QWindowsStyle@@AAEPAVQWindowsStylePrivate@@XZ @ 3455 NONAME ; class QWindowsStylePrivate * QWindowsStyle::d_func(void)
	?tr@QGraphicsGrayscaleEffect@@SA?AVQString@@PBD0H@Z @ 3456 NONAME ; class QString QGraphicsGrayscaleEffect::tr(char const *, char const *, int)
	?sidebarUrls@QFileDialog@@QBE?AV?$QList@VQUrl@@@@XZ @ 3457 NONAME ; class QList<class QUrl> QFileDialog::sidebarUrls(void) const
	??1QPictureFormatInterface@@UAE@XZ @ 3458 NONAME ; QPictureFormatInterface::~QPictureFormatInterface(void)
	?setLineCount@QTextBlock@@QAEXH@Z @ 3459 NONAME ; void QTextBlock::setLineCount(int)
	?verticalOffset@QTreeView@@MBEHXZ @ 3460 NONAME ; int QTreeView::verticalOffset(void) const
	?resizeEvent@QComboBoxPrivateContainer@@MAEXPAVQResizeEvent@@@Z @ 3461 NONAME ; void QComboBoxPrivateContainer::resizeEvent(class QResizeEvent *)
	?invalidateBuffer@QWidgetPrivate@@QAEXABVQRegion@@@Z @ 3462 NONAME ; void QWidgetPrivate::invalidateBuffer(class QRegion const &)
	?setGeometry@QWidget@@QAEXHHHH@Z @ 3463 NONAME ; void QWidget::setGeometry(int, int, int, int)
	?rowViewportPosition@QTableView@@QBEHH@Z @ 3464 NONAME ; int QTableView::rowViewportPosition(int) const
	?headerData@QSortFilterProxyModel@@UBE?AVQVariant@@HW4Orientation@Qt@@H@Z @ 3465 NONAME ; class QVariant QSortFilterProxyModel::headerData(int, enum Qt::Orientation, int) const
	?drawImage@QPainter@@QAEXABVQPointF@@ABVQImage@@ABVQRectF@@V?$QFlags@W4ImageConversionFlag@Qt@@@@@Z @ 3466 NONAME ; void QPainter::drawImage(class QPointF const &, class QImage const &, class QRectF const &, class QFlags<enum Qt::ImageConversionFlag>)
	?qt_metacast@QAbstractSlider@@UAEPAXPBD@Z @ 3467 NONAME ; void * QAbstractSlider::qt_metacast(char const *)
	?staticMetaObject@QUrlModel@@2UQMetaObject@@B @ 3468 NONAME ; struct QMetaObject const QUrlModel::staticMetaObject
	?selection@QItemSelectionModel@@QBE?BVQItemSelection@@XZ @ 3469 NONAME ; class QItemSelection const QItemSelectionModel::selection(void) const
	?getStaticMetaObject@QTextEdit@@SAABUQMetaObject@@XZ @ 3470 NONAME ; struct QMetaObject const & QTextEdit::getStaticMetaObject(void)
	?width@QImage@@QBEHXZ @ 3471 NONAME ; int QImage::width(void) const
	?setExtension@QGraphicsLineItem@@MAEXW4Extension@QGraphicsItem@@ABVQVariant@@@Z @ 3472 NONAME ; void QGraphicsLineItem::setExtension(enum QGraphicsItem::Extension, class QVariant const &)
	?estimateTopLevelItems@QGraphicsSceneIndex@@UBE?AV?$QList@PAVQGraphicsItem@@@@ABVQRectF@@W4SortOrder@Qt@@@Z @ 3473 NONAME ; class QList<class QGraphicsItem *> QGraphicsSceneIndex::estimateTopLevelItems(class QRectF const &, enum Qt::SortOrder) const
	?drawLines@QPainter@@QAEXABV?$QVector@VQLine@@@@@Z @ 3474 NONAME ; void QPainter::drawLines(class QVector<class QLine> const &)
	??_EQGraphicsItemGroup@@UAE@I@Z @ 3475 NONAME ; QGraphicsItemGroup::~QGraphicsItemGroup(unsigned int)
	?setData@QPicture@@UAEXPBDI@Z @ 3476 NONAME ; void QPicture::setData(char const *, unsigned int)
	??1QDateTimeEdit@@UAE@XZ @ 3477 NONAME ; QDateTimeEdit::~QDateTimeEdit(void)
	?addBitmapFontToPath@QFontEngine@@QAEXMMABUQGlyphLayout@@PAVQPainterPath@@V?$QFlags@W4RenderFlag@QTextItem@@@@@Z @ 3478 NONAME ; void QFontEngine::addBitmapFontToPath(float, float, struct QGlyphLayout const &, class QPainterPath *, class QFlags<enum QTextItem::RenderFlag>)
	?deviceTransform@QGraphicsItem@@QBE?AVQTransform@@ABV2@@Z @ 3479 NONAME ; class QTransform QGraphicsItem::deviceTransform(class QTransform const &) const
	?tr@QFontDialog@@SA?AVQString@@PBD0@Z @ 3480 NONAME ; class QString QFontDialog::tr(char const *, char const *)
	??0QStyleOptionQ3ListViewItem@@QAE@XZ @ 3481 NONAME ; QStyleOptionQ3ListViewItem::QStyleOptionQ3ListViewItem(void)
	?qt_metacall@QPixmapColorizeFilter@@UAEHW4Call@QMetaObject@@HPAPAX@Z @ 3482 NONAME ; int QPixmapColorizeFilter::qt_metacall(enum QMetaObject::Call, int, void * *)
	?scrollContentsBy@QPlainTextEdit@@MAEXHH@Z @ 3483 NONAME ; void QPlainTextEdit::scrollContentsBy(int, int)
	?updateRegion@QGraphicsViewPrivate@@QAE_NABVQRegion@@@Z @ 3484 NONAME ; bool QGraphicsViewPrivate::updateRegion(class QRegion const &)
	?unpolish@QProxyStyle@@UAEXPAVQWidget@@@Z @ 3485 NONAME ; void QProxyStyle::unpolish(class QWidget *)
	?setStatusBar@QMainWindowLayout@@QAEXPAVQStatusBar@@@Z @ 3486 NONAME ; void QMainWindowLayout::setStatusBar(class QStatusBar *)
	?ResourceFileName@QS60MainApplication@@UBE?AV?$TBuf@$0BAA@@@XZ @ 3487 NONAME ; class TBuf<256> QS60MainApplication::ResourceFileName(void) const
	?corner@QMainWindowLayout@@QBE?AW4DockWidgetArea@Qt@@W4Corner@3@@Z @ 3488 NONAME ; enum Qt::DockWidgetArea QMainWindowLayout::corner(enum Qt::Corner) const
	?renderRule@QStyleSheetStyle@@ABE?AVQRenderRule@@PBVQWidget@@H_K@Z @ 3489 NONAME ; class QRenderRule QStyleSheetStyle::renderRule(class QWidget const *, int, unsigned long long) const
	?qt_metacast@QProgressBar@@UAEPAXPBD@Z @ 3490 NONAME ; void * QProgressBar::qt_metacast(char const *)
	?refresh@QDirModel@@QAEXABVQModelIndex@@@Z @ 3491 NONAME ; void QDirModel::refresh(class QModelIndex const &)
	?selectAll@QAbstractItemViewPrivate@@UAEXV?$QFlags@W4SelectionFlag@QItemSelectionModel@@@@@Z @ 3492 NONAME ; void QAbstractItemViewPrivate::selectAll(class QFlags<enum QItemSelectionModel::SelectionFlag>)
	?rowCount@QSortFilterProxyModel@@UBEHABVQModelIndex@@@Z @ 3493 NONAME ; int QSortFilterProxyModel::rowCount(class QModelIndex const &) const
	??_EQGraphicsWidget@@UAE@I@Z @ 3494 NONAME ; QGraphicsWidget::~QGraphicsWidget(unsigned int)
	?sizeAdjustPolicy@QComboBox@@QBE?AW4SizeAdjustPolicy@1@XZ @ 3495 NONAME ; enum QComboBox::SizeAdjustPolicy QComboBox::sizeAdjustPolicy(void) const
	?createObjectIndex@QTextFormatCollection@@QAEHABVQTextFormat@@@Z @ 3496 NONAME ; int QTextFormatCollection::createObjectIndex(class QTextFormat const &)
	?distanceToPlane@QVector3D@@QBEMABV1@00@Z @ 3497 NONAME ; float QVector3D::distanceToPlane(class QVector3D const &, class QVector3D const &, class QVector3D const &) const
	?animate_toolbox@QApplicationPrivate@@2_NA @ 3498 NONAME ; bool QApplicationPrivate::animate_toolbox
	?currentFontChanged@QFontComboBox@@IAEXABVQFont@@@Z @ 3499 NONAME ; void QFontComboBox::currentFontChanged(class QFont const &)
	?_q_layoutChanged@QAbstractItemViewPrivate@@UAEXXZ @ 3500 NONAME ; void QAbstractItemViewPrivate::_q_layoutChanged(void)
	?setSelection@QLineControl@@QAEXHH@Z @ 3501 NONAME ; void QLineControl::setSelection(int, int)
	?visualDirection@QGraphicsLayoutPrivate@@QBE?AW4LayoutDirection@Qt@@XZ @ 3502 NONAME ; enum Qt::LayoutDirection QGraphicsLayoutPrivate::visualDirection(void) const
	?metaObject@QStatusBar@@UBEPBUQMetaObject@@XZ @ 3503 NONAME ; struct QMetaObject const * QStatusBar::metaObject(void) const
	?standardIconImplementation@QWindowsStyle@@IBE?AVQIcon@@W4StandardPixmap@QStyle@@PBVQStyleOption@@PBVQWidget@@@Z @ 3504 NONAME ; class QIcon QWindowsStyle::standardIconImplementation(enum QStyle::StandardPixmap, class QStyleOption const *, class QWidget const *) const
	??_EQSwipeGesture@@UAE@I@Z @ 3505 NONAME ; QSwipeGesture::~QSwipeGesture(unsigned int)
	??0QZipWriter@@QAE@PAVQIODevice@@@Z @ 3506 NONAME ; QZipWriter::QZipWriter(class QIODevice *)
	??0QDragMoveEvent@@QAE@ABV0@@Z @ 3507 NONAME ; QDragMoveEvent::QDragMoveEvent(class QDragMoveEvent const &)
	?qDrawShadeLine@@YAXPAVQPainter@@HHHHABVQPalette@@_NHH@Z @ 3508 NONAME ; void qDrawShadeLine(class QPainter *, int, int, int, int, class QPalette const &, bool, int, int)
	?metric@QImage@@MBEHW4PaintDeviceMetric@QPaintDevice@@@Z @ 3509 NONAME ; int QImage::metric(enum QPaintDevice::PaintDeviceMetric) const
	?d_func@QGraphicsEllipseItem@@AAEPAVQGraphicsEllipseItemPrivate@@XZ @ 3510 NONAME ; class QGraphicsEllipseItemPrivate * QGraphicsEllipseItem::d_func(void)
	?combineTransformToParent@QGraphicsItemPrivate@@QBEXPAVQTransform@@PBV2@@Z @ 3511 NONAME ; void QGraphicsItemPrivate::combineTransformToParent(class QTransform *, class QTransform const *) const
	?pos@QDropEvent@@QBEABVQPoint@@XZ @ 3512 NONAME ; class QPoint const & QDropEvent::pos(void) const
	?textCursor@QGraphicsTextItem@@QBE?AVQTextCursor@@XZ @ 3513 NONAME ; class QTextCursor QGraphicsTextItem::textCursor(void) const
	?setupViewport@QGraphicsView@@IAEXPAVQWidget@@@Z @ 3514 NONAME ; void QGraphicsView::setupViewport(class QWidget *)
	??0QKeySequence@@QAE@XZ @ 3515 NONAME ; QKeySequence::QKeySequence(void)
	?qt_metacall@QCalendarWidget@@UAEHW4Call@QMetaObject@@HPAPAX@Z @ 3516 NONAME ; int QCalendarWidget::qt_metacall(enum QMetaObject::Call, int, void * *)
	?keyPressEvent@QAbstractSpinBox@@MAEXPAVQKeyEvent@@@Z @ 3517 NONAME ; void QAbstractSpinBox::keyPressEvent(class QKeyEvent *)
	??_EQActionPrivate@@UAE@I@Z @ 3518 NONAME ; QActionPrivate::~QActionPrivate(unsigned int)
	?windowTitle@QGraphicsWidget@@QBE?AVQString@@XZ @ 3519 NONAME ; class QString QGraphicsWidget::windowTitle(void) const
	?setAllowedAreas@QToolBar@@QAEXV?$QFlags@W4ToolBarArea@Qt@@@@@Z @ 3520 NONAME ; void QToolBar::setAllowedAreas(class QFlags<enum Qt::ToolBarArea>)
	?count@QTextList@@QBEHXZ @ 3521 NONAME ; int QTextList::count(void) const
	?insertSubstitution@QFont@@SAXABVQString@@0@Z @ 3522 NONAME ; void QFont::insertSubstitution(class QString const &, class QString const &)
	?setLastScreenPos@TouchPoint@QTouchEvent@@QAEXABVQPointF@@@Z @ 3523 NONAME ; void QTouchEvent::TouchPoint::setLastScreenPos(class QPointF const &)
	??0QPaintEvent@@QAE@ABVQRect@@@Z @ 3524 NONAME ; QPaintEvent::QPaintEvent(class QRect const &)
	?map@QTransform@@QBE?AVQPoint@@ABV2@@Z @ 3525 NONAME ; class QPoint QTransform::map(class QPoint const &) const
	?systemClip@QPaintEngine@@QBE?AVQRegion@@XZ @ 3526 NONAME ; class QRegion QPaintEngine::systemClip(void) const
	?qt_metacast@QDialog@@UAEPAXPBD@Z @ 3527 NONAME ; void * QDialog::qt_metacast(char const *)
	?style@QGraphicsScene@@QBEPAVQStyle@@XZ @ 3528 NONAME ; class QStyle * QGraphicsScene::style(void) const
	?time@QFileSystemModelPrivate@@QBE?AVQString@@ABVQModelIndex@@@Z @ 3529 NONAME ; class QString QFileSystemModelPrivate::time(class QModelIndex const &) const
	?metaObject@QFormLayout@@UBEPBUQMetaObject@@XZ @ 3530 NONAME ; struct QMetaObject const * QFormLayout::metaObject(void) const
	?info@QDockAreaLayoutInfo@@QAEPAV1@ABV?$QList@H@@@Z @ 3531 NONAME ; class QDockAreaLayoutInfo * QDockAreaLayoutInfo::info(class QList<int> const &)
	?brush@QPen@@QBE?AVQBrush@@XZ @ 3532 NONAME ; class QBrush QPen::brush(void) const
	?createWinId@QWidgetPrivate@@QAEXPAVCCoeControl@@@Z @ 3533 NONAME ; void QWidgetPrivate::createWinId(class CCoeControl *)
	?hasChildren@QStandardItem@@QBE_NXZ @ 3534 NONAME ; bool QStandardItem::hasChildren(void) const
	?addEllipse@QGraphicsScene@@QAEPAVQGraphicsEllipseItem@@MMMMABVQPen@@ABVQBrush@@@Z @ 3535 NONAME ; class QGraphicsEllipseItem * QGraphicsScene::addEllipse(float, float, float, float, class QPen const &, class QBrush const &)
	?setBorderStyle@QTextFrameFormat@@QAEXW4BorderStyle@1@@Z @ 3536 NONAME ; void QTextFrameFormat::setBorderStyle(enum QTextFrameFormat::BorderStyle)
	?hasHeightForWidth@QBoxLayout@@UBE_NXZ @ 3537 NONAME ; bool QBoxLayout::hasHeightForWidth(void) const
	?screenCount@QDesktopWidget@@QBEHXZ @ 3538 NONAME ; int QDesktopWidget::screenCount(void) const
	?bottomMargin@QTextFrameFormat@@QBEMXZ @ 3539 NONAME ; float QTextFrameFormat::bottomMargin(void) const
	?setShortcutAutoRepeat@QGraphicsWidget@@QAEXH_N@Z @ 3540 NONAME ; void QGraphicsWidget::setShortcutAutoRepeat(int, bool)
	?setRowHidden@QTableView@@QAEXH_N@Z @ 3541 NONAME ; void QTableView::setRowHidden(int, bool)
	?find@QTextDocumentPrivate@@QBE?AVConstIterator@?$QFragmentMap@VQTextFragmentData@@@@H@Z @ 3542 NONAME ; class QFragmentMap<class QTextFragmentData>::ConstIterator QTextDocumentPrivate::find(int) const
	?emitCursorPositionChanged@QLineControl@@AAEXXZ @ 3543 NONAME ; void QLineControl::emitCursorPositionChanged(void)
	?splitterMoved@QSplitter@@IAEXHH@Z @ 3544 NONAME ; void QSplitter::splitterMoved(int, int)
	?qt_metacall@QWorkspace@@UAEHW4Call@QMetaObject@@HPAPAX@Z @ 3545 NONAME ; int QWorkspace::qt_metacall(enum QMetaObject::Call, int, void * *)
	?alphaF@QColor@@QBEMXZ @ 3546 NONAME ; float QColor::alphaF(void) const
	?trUtf8@QDesktopWidget@@SA?AVQString@@PBD0@Z @ 3547 NONAME ; class QString QDesktopWidget::trUtf8(char const *, char const *)
	?tr@QWizard@@SA?AVQString@@PBD0@Z @ 3548 NONAME ; class QString QWizard::tr(char const *, char const *)
	??D@YA?AVQLineF@@ABV0@ABVQTransform@@@Z @ 3549 NONAME ; class QLineF operator*(class QLineF const &, class QTransform const &)
	?findFont@QFontDatabase@@CAPAVQFontEngine@@HPBVQFontPrivate@@ABUQFontDef@@@Z @ 3550 NONAME ; class QFontEngine * QFontDatabase::findFont(int, class QFontPrivate const *, struct QFontDef const &)
	?selectionEnd@QLineControl@@QBEHXZ @ 3551 NONAME ; int QLineControl::selectionEnd(void) const
	?repolish@QStyleSheetStyle@@QAEXPAVQWidget@@@Z @ 3552 NONAME ; void QStyleSheetStyle::repolish(class QWidget *)
	?topLevelWidgets@QApplication@@SA?AV?$QList@PAVQWidget@@@@XZ @ 3553 NONAME ; class QList<class QWidget *> QApplication::topLevelWidgets(void)
	?setItalic@QFont@@QAEX_N@Z @ 3554 NONAME ; void QFont::setItalic(bool)
	?map@QTransform@@QBE?AVQRegion@@ABV2@@Z @ 3555 NONAME ; class QRegion QTransform::map(class QRegion const &) const
	?lastScreenPos@QGraphicsSceneMouseEvent@@QBE?AVQPoint@@XZ @ 3556 NONAME ; class QPoint QGraphicsSceneMouseEvent::lastScreenPos(void) const
	?depth@QPixmap@@QBEHXZ @ 3557 NONAME ; int QPixmap::depth(void) const
	?trUtf8@QMenuBar@@SA?AVQString@@PBD0@Z @ 3558 NONAME ; class QString QMenuBar::trUtf8(char const *, char const *)
	?fillRect@QPainter@@QAEXABVQRectF@@ABVQColor@@@Z @ 3559 NONAME ; void QPainter::fillRect(class QRectF const &, class QColor const &)
	?setRowCount@QStandardItem@@QAEXH@Z @ 3560 NONAME ; void QStandardItem::setRowCount(int)
	?lineAt@QTextLayout@@QBE?AVQTextLine@@H@Z @ 3561 NONAME ; class QTextLine QTextLayout::lineAt(int) const
	?scenePos@QGraphicsSceneContextMenuEvent@@QBE?AVQPointF@@XZ @ 3562 NONAME ; class QPointF QGraphicsSceneContextMenuEvent::scenePos(void) const
	?isValid@QTextCharFormat@@QBE_NXZ @ 3563 NONAME ; bool QTextCharFormat::isValid(void) const
	?write@QTextDocumentWriter@@QAE_NABVQTextDocumentFragment@@@Z @ 3564 NONAME ; bool QTextDocumentWriter::write(class QTextDocumentFragment const &)
	?cursorForward@QLineEdit@@QAEX_NH@Z @ 3565 NONAME ; void QLineEdit::cursorForward(bool, int)
	?d_func@QCheckBox@@ABEPBVQCheckBoxPrivate@@XZ @ 3566 NONAME ; class QCheckBoxPrivate const * QCheckBox::d_func(void) const
	??1QSplitterHandle@@UAE@XZ @ 3567 NONAME ; QSplitterHandle::~QSplitterHandle(void)
	?d_func@QValidator@@AAEPAVQValidatorPrivate@@XZ @ 3568 NONAME ; class QValidatorPrivate * QValidator::d_func(void)
	?writeCharacterFormat@QTextOdfWriter@@QBEXAAVQXmlStreamWriter@@VQTextCharFormat@@H@Z @ 3569 NONAME ; void QTextOdfWriter::writeCharacterFormat(class QXmlStreamWriter &, class QTextCharFormat, int) const
	?cancel@QProgressDialog@@QAEXXZ @ 3570 NONAME ; void QProgressDialog::cancel(void)
	?row@QTableWidget@@QBEHPBVQTableWidgetItem@@@Z @ 3571 NONAME ; int QTableWidget::row(class QTableWidgetItem const *) const
	?qt_metacall@QTextBlockGroup@@UAEHW4Call@QMetaObject@@HPAPAX@Z @ 3572 NONAME ; int QTextBlockGroup::qt_metacall(enum QMetaObject::Call, int, void * *)
	?pos@QMoveEvent@@QBEABVQPoint@@XZ @ 3573 NONAME ; class QPoint const & QMoveEvent::pos(void) const
	?setPalette@QApplication@@SAXABVQPalette@@PBD@Z @ 3574 NONAME ; void QApplication::setPalette(class QPalette const &, char const *)
	?trUtf8@QTimeEdit@@SA?AVQString@@PBD0H@Z @ 3575 NONAME ; class QString QTimeEdit::trUtf8(char const *, char const *, int)
	??4QTextCursor@@QAEAAV0@ABV0@@Z @ 3576 NONAME ; class QTextCursor & QTextCursor::operator=(class QTextCursor const &)
	?takeHorizontalHeaderItem@QTableWidget@@QAEPAVQTableWidgetItem@@H@Z @ 3577 NONAME ; class QTableWidgetItem * QTableWidget::takeHorizontalHeaderItem(int)
	?sizeHint@QProgressBar@@UBE?AVQSize@@XZ @ 3578 NONAME ; class QSize QProgressBar::sizeHint(void) const
	?d_func@QFontDialog@@ABEPBVQFontDialogPrivate@@XZ @ 3579 NONAME ; class QFontDialogPrivate const * QFontDialog::d_func(void) const
	??_EQMessageBox@@UAE@I@Z @ 3580 NONAME ; QMessageBox::~QMessageBox(unsigned int)
	?qt_metacast@QFileSystemModel@@UAEPAXPBD@Z @ 3581 NONAME ; void * QFileSystemModel::qt_metacast(char const *)
	??1QTreeView@@UAE@XZ @ 3582 NONAME ; QTreeView::~QTreeView(void)
	??HQPainterPath@@QBE?AV0@ABV0@@Z @ 3583 NONAME ; class QPainterPath QPainterPath::operator+(class QPainterPath const &) const
	?removeStaticWidget@QWidgetBackingStore@@AAEXPAVQWidget@@@Z @ 3584 NONAME ; void QWidgetBackingStore::removeStaticWidget(class QWidget *)
	?transform@QGraphicsItem@@QBE?AVQTransform@@XZ @ 3585 NONAME ; class QTransform QGraphicsItem::transform(void) const
	?trUtf8@QPixmapFilter@@SA?AVQString@@PBD0@Z @ 3586 NONAME ; class QString QPixmapFilter::trUtf8(char const *, char const *)
	?sizeHint@QGraphicsProxyWidget@@MBE?AVQSizeF@@W4SizeHint@Qt@@ABV2@@Z @ 3587 NONAME ; class QSizeF QGraphicsProxyWidget::sizeHint(enum Qt::SizeHint, class QSizeF const &) const
	?setItemPrototype@QStandardItemModel@@QAEXPBVQStandardItem@@@Z @ 3588 NONAME ; void QStandardItemModel::setItemPrototype(class QStandardItem const *)
	??0QTextDocumentFragment@@QAE@ABVQTextCursor@@@Z @ 3589 NONAME ; QTextDocumentFragment::QTextDocumentFragment(class QTextCursor const &)
	??0QFrame@@QAE@PAVQWidget@@V?$QFlags@W4WindowType@Qt@@@@@Z @ 3590 NONAME ; QFrame::QFrame(class QWidget *, class QFlags<enum Qt::WindowType>)
	?setPixmap@QWizardPage@@QAEXW4WizardPixmap@QWizard@@ABVQPixmap@@@Z @ 3591 NONAME ; void QWizardPage::setPixmap(enum QWizard::WizardPixmap, class QPixmap const &)
	?subWidgetRect@QGraphicsProxyWidget@@QBE?AVQRectF@@PBVQWidget@@@Z @ 3592 NONAME ; class QRectF QGraphicsProxyWidget::subWidgetRect(class QWidget const *) const
	?dashOffset@QPen@@QBEMXZ @ 3593 NONAME ; float QPen::dashOffset(void) const
	?tr@QGraphicsOpacityEffect@@SA?AVQString@@PBD0@Z @ 3594 NONAME ; class QString QGraphicsOpacityEffect::tr(char const *, char const *)
	??0QVector2D@@AAE@MMH@Z @ 3595 NONAME ; QVector2D::QVector2D(float, float, int)
	?setOrientation@QGraphicsSceneWheelEvent@@QAEXW4Orientation@Qt@@@Z @ 3596 NONAME ; void QGraphicsSceneWheelEvent::setOrientation(enum Qt::Orientation)
	?dragLeaveEvent@QAbstractItemView@@MAEXPAVQDragLeaveEvent@@@Z @ 3597 NONAME ; void QAbstractItemView::dragLeaveEvent(class QDragLeaveEvent *)
	?simplifyGraphIteration@QGraphicsAnchorLayoutPrivate@@QAE_NW4Orientation@1@@Z @ 3598 NONAME ; bool QGraphicsAnchorLayoutPrivate::simplifyGraphIteration(enum QGraphicsAnchorLayoutPrivate::Orientation)
	?setDocumentMargin@QTextDocument@@QAEXM@Z @ 3599 NONAME ; void QTextDocument::setDocumentMargin(float)
	?drawPoint@QPainter@@QAEXHH@Z @ 3600 NONAME ; void QPainter::drawPoint(int, int)
	?background@QTextFormat@@QBE?AVQBrush@@XZ @ 3601 NONAME ; class QBrush QTextFormat::background(void) const
	?setModel@QAbstractItemView@@UAEXPAVQAbstractItemModel@@@Z @ 3602 NONAME ; void QAbstractItemView::setModel(class QAbstractItemModel *)
	?drawBackground@QGraphicsScene@@MAEXPAVQPainter@@ABVQRectF@@@Z @ 3603 NONAME ; void QGraphicsScene::drawBackground(class QPainter *, class QRectF const &)
	?itemAt@QGraphicsScene@@QBEPAVQGraphicsItem@@ABVQPointF@@@Z @ 3604 NONAME ; class QGraphicsItem * QGraphicsScene::itemAt(class QPointF const &) const
	?copyAvailable@QPlainTextEdit@@IAEX_N@Z @ 3605 NONAME ; void QPlainTextEdit::copyAvailable(bool)
	?setCleanIcon@QUndoView@@QAEXABVQIcon@@@Z @ 3606 NONAME ; void QUndoView::setCleanIcon(class QIcon const &)
	?play@QSound@@SAXABVQString@@@Z @ 3607 NONAME ; void QSound::play(class QString const &)
	?staticMetaObject@QWorkspace@@2UQMetaObject@@B @ 3608 NONAME ; struct QMetaObject const QWorkspace::staticMetaObject
	?tr@QGraphicsSceneIndex@@SA?AVQString@@PBD0@Z @ 3609 NONAME ; class QString QGraphicsSceneIndex::tr(char const *, char const *)
	?notation@QDoubleValidator@@QBE?AW4Notation@1@XZ @ 3610 NONAME ; enum QDoubleValidator::Notation QDoubleValidator::notation(void) const
	?maximumTime@QDateTimeEdit@@QBE?AVQTime@@XZ @ 3611 NONAME ; class QTime QDateTimeEdit::maximumTime(void) const
	??_EQCoeFepInputContext@@UAE@I@Z @ 3612 NONAME ; QCoeFepInputContext::~QCoeFepInputContext(unsigned int)
	?setAttribute@QWidget@@QAEXW4WidgetAttribute@Qt@@_N@Z @ 3613 NONAME ; void QWidget::setAttribute(enum Qt::WidgetAttribute, bool)
	?selectionAllowed@QAbstractItemViewPrivate@@UBE_NABVQModelIndex@@@Z @ 3614 NONAME ; bool QAbstractItemViewPrivate::selectionAllowed(class QModelIndex const &) const
	??1QImageIOPlugin@@UAE@XZ @ 3615 NONAME ; QImageIOPlugin::~QImageIOPlugin(void)
	??1QTessellator@@UAE@XZ @ 3616 NONAME ; QTessellator::~QTessellator(void)
	??_EQDropEvent@@UAE@I@Z @ 3617 NONAME ; QDropEvent::~QDropEvent(unsigned int)
	?getStaticMetaObject@QButtonGroup@@SAABUQMetaObject@@XZ @ 3618 NONAME ; struct QMetaObject const & QButtonGroup::getStaticMetaObject(void)
	?contains@QGraphicsLineItem@@UBE_NABVQPointF@@@Z @ 3619 NONAME ; bool QGraphicsLineItem::contains(class QPointF const &) const
	?setItemsExpandable@QTreeView@@QAEX_N@Z @ 3620 NONAME ; void QTreeView::setItemsExpandable(bool)
	??0QDialog@@QAE@PAVQWidget@@V?$QFlags@W4WindowType@Qt@@@@@Z @ 3621 NONAME ; QDialog::QDialog(class QWidget *, class QFlags<enum Qt::WindowType>)
	??BQRegion@@QBE?AVQVariant@@XZ @ 3622 NONAME ; QRegion::operator class QVariant(void) const
	?d_func@QRasterWindowSurface@@AAEPAVQRasterWindowSurfacePrivate@@XZ @ 3623 NONAME ; class QRasterWindowSurfacePrivate * QRasterWindowSurface::d_func(void)
	??0QStyleOptionTab@@IAE@H@Z @ 3624 NONAME ; QStyleOptionTab::QStyleOptionTab(int)
	?trUtf8@QTreeView@@SA?AVQString@@PBD0H@Z @ 3625 NONAME ; class QString QTreeView::trUtf8(char const *, char const *, int)
	??0QGraphicsItemPrivate@@QAE@XZ @ 3626 NONAME ; QGraphicsItemPrivate::QGraphicsItemPrivate(void)
	?tr@QWidget@@SA?AVQString@@PBD0H@Z @ 3627 NONAME ; class QString QWidget::tr(char const *, char const *, int)
	?tr@QApplication@@SA?AVQString@@PBD0@Z @ 3628 NONAME ; class QString QApplication::tr(char const *, char const *)
	?mapToPolygon@QMatrix@@QBE?AVQPolygon@@ABVQRect@@@Z @ 3629 NONAME ; class QPolygon QMatrix::mapToPolygon(class QRect const &) const
	?copy@QPixmap@@QBE?AV1@ABVQRect@@@Z @ 3630 NONAME ; class QPixmap QPixmap::copy(class QRect const &) const
	?d_func@QDrag@@ABEPBVQDragPrivate@@XZ @ 3631 NONAME ; class QDragPrivate const * QDrag::d_func(void) const
	?staticMetaObject@QMouseEventTransition@@2UQMetaObject@@B @ 3632 NONAME ; struct QMetaObject const QMouseEventTransition::staticMetaObject
	?setCurrentRow@QCompleter@@QAE_NH@Z @ 3633 NONAME ; bool QCompleter::setCurrentRow(int)
	?accessibleText@QStandardItem@@QBE?AVQString@@XZ @ 3634 NONAME ; class QString QStandardItem::accessibleText(void) const
	?event@QLCDNumber@@MAE_NPAVQEvent@@@Z @ 3635 NONAME ; bool QLCDNumber::event(class QEvent *)
	?qt_metacall@QGraphicsItemAnimation@@UAEHW4Call@QMetaObject@@HPAPAX@Z @ 3636 NONAME ; int QGraphicsItemAnimation::qt_metacall(enum QMetaObject::Call, int, void * *)
	?boundingRect@QPaintBuffer@@QBE?AVQRectF@@XZ @ 3637 NONAME ; class QRectF QPaintBuffer::boundingRect(void) const
	?setFormat@QProgressBar@@QAEXABVQString@@@Z @ 3638 NONAME ; void QProgressBar::setFormat(class QString const &)
	?setAlignment@QLayoutItem@@QAEXV?$QFlags@W4AlignmentFlag@Qt@@@@@Z @ 3639 NONAME ; void QLayoutItem::setAlignment(class QFlags<enum Qt::AlignmentFlag>)
	??4QTextDocumentFragment@@QAEAAV0@ABV0@@Z @ 3640 NONAME ; class QTextDocumentFragment & QTextDocumentFragment::operator=(class QTextDocumentFragment const &)
	?tr@QGraphicsRotation@@SA?AVQString@@PBD0@Z @ 3641 NONAME ; class QString QGraphicsRotation::tr(char const *, char const *)
	?column@QTableWidgetItem@@QBEHXZ @ 3642 NONAME ; int QTableWidgetItem::column(void) const
	?end@QStrokerOps@@UAEXXZ @ 3643 NONAME ; void QStrokerOps::end(void)
	?edge@QWingedEdge@@QBEPBVQPathEdge@@H@Z @ 3644 NONAME ; class QPathEdge const * QWingedEdge::edge(int) const
	??0QTransform@@QAE@ABV0@@Z @ 3645 NONAME ; QTransform::QTransform(class QTransform const &)
	?buddy@QSortFilterProxyModel@@UBE?AVQModelIndex@@ABV2@@Z @ 3646 NONAME ; class QModelIndex QSortFilterProxyModel::buddy(class QModelIndex const &) const
	?layoutMode@QListView@@QBE?AW4LayoutMode@1@XZ @ 3647 NONAME ; enum QListView::LayoutMode QListView::layoutMode(void) const
	?globalY@QContextMenuEvent@@QBEHXZ @ 3648 NONAME ; int QContextMenuEvent::globalY(void) const
	?fontCapitalization@QTextCharFormat@@QBE?AW4Capitalization@QFont@@XZ @ 3649 NONAME ; enum QFont::Capitalization QTextCharFormat::fontCapitalization(void) const
	?setWindowIcon@QWidget@@QAEXABVQIcon@@@Z @ 3650 NONAME ; void QWidget::setWindowIcon(class QIcon const &)
	?insertText@QTextCursor@@QAEXABVQString@@@Z @ 3651 NONAME ; void QTextCursor::insertText(class QString const &)
	?d_func@QGraphicsSceneHelpEvent@@ABEPBVQGraphicsSceneHelpEventPrivate@@XZ @ 3652 NONAME ; class QGraphicsSceneHelpEventPrivate const * QGraphicsSceneHelpEvent::d_func(void) const
	?sendEvent@QGraphicsScene@@QAE_NPAVQGraphicsItem@@PAVQEvent@@@Z @ 3653 NONAME ; bool QGraphicsScene::sendEvent(class QGraphicsItem *, class QEvent *)
	?setIODevice@QPictureIO@@QAEXPAVQIODevice@@@Z @ 3654 NONAME ; void QPictureIO::setIODevice(class QIODevice *)
	?decodeString@QKeySequence@@CAHABVQString@@@Z @ 3655 NONAME ; int QKeySequence::decodeString(class QString const &)
	?directoryEntered@QFileDialog@@IAEXABVQString@@@Z @ 3656 NONAME ; void QFileDialog::directoryEntered(class QString const &)
	?minimumContentsLength@QComboBox@@QBEHXZ @ 3657 NONAME ; int QComboBox::minimumContentsLength(void) const
	??0QStyleOptionFrameV2@@QAE@ABV0@@Z @ 3658 NONAME ; QStyleOptionFrameV2::QStyleOptionFrameV2(class QStyleOptionFrameV2 const &)
	?qt_filedialog_existing_directory_hook@@3P6A?AVQString@@PAVQWidget@@ABV1@1V?$QFlags@W4Option@QFileDialog@@@@@ZA @ 3659 NONAME ; class QString (*qt_filedialog_existing_directory_hook)(class QWidget *, class QString const &, class QString const &, class QFlags<enum QFileDialog::Option>)
	??_EQGraphicsView@@UAE@I@Z @ 3660 NONAME ; QGraphicsView::~QGraphicsView(unsigned int)
	??0QStyleOptionViewItemV4@@QAE@XZ @ 3661 NONAME ; QStyleOptionViewItemV4::QStyleOptionViewItemV4(void)
	??0QAbstractButton@@IAE@AAVQAbstractButtonPrivate@@PAVQWidget@@@Z @ 3662 NONAME ; QAbstractButton::QAbstractButton(class QAbstractButtonPrivate &, class QWidget *)
	?addButton@QDialogButtonBox@@QAEPAVQPushButton@@ABVQString@@W4ButtonRole@1@@Z @ 3663 NONAME ; class QPushButton * QDialogButtonBox::addButton(class QString const &, enum QDialogButtonBox::ButtonRole)
	??_EQPixmap@@UAE@I@Z @ 3664 NONAME ; QPixmap::~QPixmap(unsigned int)
	?insertMenu@QMenu@@QAEPAVQAction@@PAV2@PAV1@@Z @ 3665 NONAME ; class QAction * QMenu::insertMenu(class QAction *, class QMenu *)
	?visualIndex@QTableView@@ABEHABVQModelIndex@@@Z @ 3666 NONAME ; int QTableView::visualIndex(class QModelIndex const &) const
	?isSortingEnabled@QTreeView@@QBE_NXZ @ 3667 NONAME ; bool QTreeView::isSortingEnabled(void) const
	?data@QDirModel@@UBE?AVQVariant@@ABVQModelIndex@@H@Z @ 3668 NONAME ; class QVariant QDirModel::data(class QModelIndex const &, int) const
	?tr@QGraphicsObject@@SA?AVQString@@PBD0H@Z @ 3669 NONAME ; class QString QGraphicsObject::tr(char const *, char const *, int)
	?drawConvexPolygon@QPainter@@QAEXABVQPolygon@@@Z @ 3670 NONAME ; void QPainter::drawConvexPolygon(class QPolygon const &)
	?quadTo@QPainterPath@@QAEXABVQPointF@@0@Z @ 3671 NONAME ; void QPainterPath::quadTo(class QPointF const &, class QPointF const &)
	??0QPicture@@QAE@H@Z @ 3672 NONAME ; QPicture::QPicture(int)
	??1QHoverEvent@@UAE@XZ @ 3673 NONAME ; QHoverEvent::~QHoverEvent(void)
	?setScenePos@QGraphicsSceneContextMenuEvent@@QAEXABVQPointF@@@Z @ 3674 NONAME ; void QGraphicsSceneContextMenuEvent::setScenePos(class QPointF const &)
	??0QTextLine@@QAE@XZ @ 3675 NONAME ; QTextLine::QTextLine(void)
	?hasConflicts@QGraphicsAnchorLayoutPrivate@@QBE_NXZ @ 3676 NONAME ; bool QGraphicsAnchorLayoutPrivate::hasConflicts(void) const
	??1QEglProperties@@QAE@XZ @ 3677 NONAME ; QEglProperties::~QEglProperties(void)
	?event@QGraphicsProxyWidget@@MAE_NPAVQEvent@@@Z @ 3678 NONAME ; bool QGraphicsProxyWidget::event(class QEvent *)
	?elideMode@QTabBar@@QBE?AW4TextElideMode@Qt@@XZ @ 3679 NONAME ; enum Qt::TextElideMode QTabBar::elideMode(void) const
	?d_func@QTabWidget@@AAEPAVQTabWidgetPrivate@@XZ @ 3680 NONAME ; class QTabWidgetPrivate * QTabWidget::d_func(void)
	?trUtf8@QStyle@@SA?AVQString@@PBD0@Z @ 3681 NONAME ; class QString QStyle::trUtf8(char const *, char const *)
	?verticalShearAt@QGraphicsItemAnimation@@QBEMM@Z @ 3682 NONAME ; float QGraphicsItemAnimation::verticalShearAt(float) const
	?insertFromMimeData@QTextEdit@@MAEXPBVQMimeData@@@Z @ 3683 NONAME ; void QTextEdit::insertFromMimeData(class QMimeData const *)
	?tr@QIconEnginePlugin@@SA?AVQString@@PBD0@Z @ 3684 NONAME ; class QString QIconEnginePlugin::tr(char const *, char const *)
	?setVerticalSpacing@QGridLayout@@QAEXH@Z @ 3685 NONAME ; void QGridLayout::setVerticalSpacing(int)
	??1QToolBar@@UAE@XZ @ 3686 NONAME ; QToolBar::~QToolBar(void)
	?d_func@QGraphicsSceneEvent@@IBEPBVQGraphicsSceneEventPrivate@@XZ @ 3687 NONAME ; class QGraphicsSceneEventPrivate const * QGraphicsSceneEvent::d_func(void) const
	?descent@QFontMetrics@@QBEHXZ @ 3688 NONAME ; int QFontMetrics::descent(void) const
	?numFrames@QPaintBuffer@@QBEHXZ @ 3689 NONAME ; int QPaintBuffer::numFrames(void) const
	?setObjectFormat@QTextFormatCollection@@QAEXHABVQTextFormat@@@Z @ 3690 NONAME ; void QTextFormatCollection::setObjectFormat(int, class QTextFormat const &)
	?setExtension@QGraphicsSimpleTextItem@@MAEXW4Extension@QGraphicsItem@@ABVQVariant@@@Z @ 3691 NONAME ; void QGraphicsSimpleTextItem::setExtension(enum QGraphicsItem::Extension, class QVariant const &)
	?palette@QGraphicsWidget@@QBE?AVQPalette@@XZ @ 3692 NONAME ; class QPalette QGraphicsWidget::palette(void) const
	?pixmap@QGraphicsEffectSource@@QBE?AVQPixmap@@W4CoordinateSystem@Qt@@PAVQPoint@@@Z @ 3693 NONAME ; class QPixmap QGraphicsEffectSource::pixmap(enum Qt::CoordinateSystem, class QPoint *) const
	?setColor@QPen@@QAEXABVQColor@@@Z @ 3694 NONAME ; void QPen::setColor(class QColor const &)
	?pen@QPaintEngineState@@QBE?AVQPen@@XZ @ 3695 NONAME ; class QPen QPaintEngineState::pen(void) const
	?fileName@QSound@@QBE?AVQString@@XZ @ 3696 NONAME ; class QString QSound::fileName(void) const
	?appendHtml@QTextControl@@QAEXABVQString@@@Z @ 3697 NONAME ; void QTextControl::appendHtml(class QString const &)
	?rect@QImage@@QBE?AVQRect@@XZ @ 3698 NONAME ; class QRect QImage::rect(void) const
	?value@QProgressDialog@@QBEHXZ @ 3699 NONAME ; int QProgressDialog::value(void) const
	?getStaticMetaObject@QBasicMouseEventTransition@@SAABUQMetaObject@@XZ @ 3700 NONAME ; struct QMetaObject const & QBasicMouseEventTransition::getStaticMetaObject(void)
	?boundingRect@QGraphicsSimpleTextItem@@UBE?AVQRectF@@XZ @ 3701 NONAME ; class QRectF QGraphicsSimpleTextItem::boundingRect(void) const
	??1QRasterPixmapData@@UAE@XZ @ 3702 NONAME ; QRasterPixmapData::~QRasterPixmapData(void)
	?trUtf8@QPixmapFilter@@SA?AVQString@@PBD0H@Z @ 3703 NONAME ; class QString QPixmapFilter::trUtf8(char const *, char const *, int)
	?metaObject@QColumnView@@UBEPBUQMetaObject@@XZ @ 3704 NONAME ; struct QMetaObject const * QColumnView::metaObject(void) const
	?mousePressEvent@QMdiSubWindow@@MAEXPAVQMouseEvent@@@Z @ 3705 NONAME ; void QMdiSubWindow::mousePressEvent(class QMouseEvent *)
	?fillRect@QPainter@@QAEXABVQRectF@@W4GlobalColor@Qt@@@Z @ 3706 NONAME ; void QPainter::fillRect(class QRectF const &, enum Qt::GlobalColor)
	?usedSeparatorWidgets@QDockAreaLayoutInfo@@QBE?AV?$QSet@PAVQWidget@@@@XZ @ 3707 NONAME ; class QSet<class QWidget *> QDockAreaLayoutInfo::usedSeparatorWidgets(void) const
	?setToolTip@QTextCharFormat@@QAEXABVQString@@@Z @ 3708 NONAME ; void QTextCharFormat::setToolTip(class QString const &)
	??0QVBoxLayout@@QAE@XZ @ 3709 NONAME ; QVBoxLayout::QVBoxLayout(void)
	?staticMetaObject@QRegExpValidator@@2UQMetaObject@@B @ 3710 NONAME ; struct QMetaObject const QRegExpValidator::staticMetaObject
	?shear@QGraphicsView@@QAEXMM@Z @ 3711 NONAME ; void QGraphicsView::shear(float, float)
	?rectValue@Declaration@QCss@@QBE?AVQRect@@XZ @ 3712 NONAME ; class QRect QCss::Declaration::rectValue(void) const
	?qt_metacall@QStyle@@UAEHW4Call@QMetaObject@@HPAPAX@Z @ 3713 NONAME ; int QStyle::qt_metacall(enum QMetaObject::Call, int, void * *)
	??1QApplication@@UAE@XZ @ 3714 NONAME ; QApplication::~QApplication(void)
	?setBaseSize@QWidget@@QAEXABVQSize@@@Z @ 3715 NONAME ; void QWidget::setBaseSize(class QSize const &)
	?trUtf8@QGraphicsBloomEffect@@SA?AVQString@@PBD0@Z @ 3716 NONAME ; class QString QGraphicsBloomEffect::trUtf8(char const *, char const *)
	?setWindowFilePath_helper@QWidgetPrivate@@QAEXABVQString@@@Z @ 3717 NONAME ; void QWidgetPrivate::setWindowFilePath_helper(class QString const &)
	?setSourceModel@QSortFilterProxyModel@@UAEXPAVQAbstractItemModel@@@Z @ 3718 NONAME ; void QSortFilterProxyModel::setSourceModel(class QAbstractItemModel *)
	?removeStack@QUndoGroup@@QAEXPAVQUndoStack@@@Z @ 3719 NONAME ; void QUndoGroup::removeStack(class QUndoStack *)
	?type@QFileSystemModelPrivate@@QBE?AVQString@@ABVQModelIndex@@@Z @ 3720 NONAME ; class QString QFileSystemModelPrivate::type(class QModelIndex const &) const
	?internalSetText@QLineControl@@AAEXABVQString@@H_N@Z @ 3721 NONAME ; void QLineControl::internalSetText(class QString const &, int, bool)
	?trUtf8@QGraphicsSceneIndex@@SA?AVQString@@PBD0H@Z @ 3722 NONAME ; class QString QGraphicsSceneIndex::trUtf8(char const *, char const *, int)
	?nativeWindowDeco@QDockWidgetLayout@@QBE_N_N@Z @ 3723 NONAME ; bool QDockWidgetLayout::nativeWindowDeco(bool) const
	?qt_metacall@QGraphicsDropShadowEffect@@UAEHW4Call@QMetaObject@@HPAPAX@Z @ 3724 NONAME ; int QGraphicsDropShadowEffect::qt_metacall(enum QMetaObject::Call, int, void * *)
	?setCurrentItem@QListWidget@@QAEXPAVQListWidgetItem@@V?$QFlags@W4SelectionFlag@QItemSelectionModel@@@@@Z @ 3725 NONAME ; void QListWidget::setCurrentItem(class QListWidgetItem *, class QFlags<enum QItemSelectionModel::SelectionFlag>)
	??0QDial@@QAE@PAVQWidget@@@Z @ 3726 NONAME ; QDial::QDial(class QWidget *)
	?alert@QApplication@@SAXPAVQWidget@@H@Z @ 3727 NONAME ; void QApplication::alert(class QWidget *, int)
	?setLocale@QWidget@@QAEXABVQLocale@@@Z @ 3728 NONAME ; void QWidget::setLocale(class QLocale const &)
	?data_ptr@QKeySequence@@QAEAAPAVQKeySequencePrivate@@XZ @ 3729 NONAME ; class QKeySequencePrivate * & QKeySequence::data_ptr(void)
	?resolvePalette@QWidgetPrivate@@QAEXXZ @ 3730 NONAME ; void QWidgetPrivate::resolvePalette(void)
	?canUndo@QUndoGroup@@QBE_NXZ @ 3731 NONAME ; bool QUndoGroup::canUndo(void) const
	??0QMessageBox@@QAE@PAVQWidget@@@Z @ 3732 NONAME ; QMessageBox::QMessageBox(class QWidget *)
	?minimumSizeHint@QLabel@@UBE?AVQSize@@XZ @ 3733 NONAME ; class QSize QLabel::minimumSizeHint(void) const
	??0QGraphicsTextItem@@QAE@PAVQGraphicsItem@@PAVQGraphicsScene@@@Z @ 3734 NONAME ; QGraphicsTextItem::QGraphicsTextItem(class QGraphicsItem *, class QGraphicsScene *)
	?qt_metacall@QLineControl@@UAEHW4Call@QMetaObject@@HPAPAX@Z @ 3735 NONAME ; int QLineControl::qt_metacall(enum QMetaObject::Call, int, void * *)
	?event@QSoftKeyManager@@MAE_NPAVQEvent@@@Z @ 3736 NONAME ; bool QSoftKeyManager::event(class QEvent *)
	?changeEvent@QLabel@@MAEXPAVQEvent@@@Z @ 3737 NONAME ; void QLabel::changeEvent(class QEvent *)
	?insertAction@QWidget@@QAEXPAVQAction@@0@Z @ 3738 NONAME ; void QWidget::insertAction(class QAction *, class QAction *)
	?qt_metacast@QLineEdit@@UAEPAXPBD@Z @ 3739 NONAME ; void * QLineEdit::qt_metacast(char const *)
	??_0QTransform@@QAEAAV0@M@Z @ 3740 NONAME ; class QTransform & QTransform::operator/=(float)
	?staticMetaObject@QLineControl@@2UQMetaObject@@B @ 3741 NONAME ; struct QMetaObject const QLineControl::staticMetaObject
	?viewportEvent@QGraphicsView@@MAE_NPAVQEvent@@@Z @ 3742 NONAME ; bool QGraphicsView::viewportEvent(class QEvent *)
	?setStackingMode@QStackedLayout@@QAEXW4StackingMode@1@@Z @ 3743 NONAME ; void QStackedLayout::setStackingMode(enum QStackedLayout::StackingMode)
	?event@QScrollBar@@UAE_NPAVQEvent@@@Z @ 3744 NONAME ; bool QScrollBar::event(class QEvent *)
	?metaObject@QPushButton@@UBEPBUQMetaObject@@XZ @ 3745 NONAME ; struct QMetaObject const * QPushButton::metaObject(void) const
	?sizeHint@QLCDNumber@@UBE?AVQSize@@XZ @ 3746 NONAME ; class QSize QLCDNumber::sizeHint(void) const
	??0QStyleOptionRubberBand@@QAE@ABV0@@Z @ 3747 NONAME ; QStyleOptionRubberBand::QStyleOptionRubberBand(class QStyleOptionRubberBand const &)
	??IQRegion@@QBE?BV0@ABV0@@Z @ 3748 NONAME ; class QRegion const QRegion::operator&(class QRegion const &) const
	?getStaticMetaObject@QDockWidgetLayout@@SAABUQMetaObject@@XZ @ 3749 NONAME ; struct QMetaObject const & QDockWidgetLayout::getStaticMetaObject(void)
	?setGeometry@QStyleSheetStyle@@AAEXPAVQWidget@@@Z @ 3750 NONAME ; void QStyleSheetStyle::setGeometry(class QWidget *)
	?trUtf8@QLineEdit@@SA?AVQString@@PBD0@Z @ 3751 NONAME ; class QString QLineEdit::trUtf8(char const *, char const *)
	?setCurrentItem@QTreeWidget@@QAEXPAVQTreeWidgetItem@@@Z @ 3752 NONAME ; void QTreeWidget::setCurrentItem(class QTreeWidgetItem *)
	?addMenu@QMenuBar@@QAEPAVQAction@@PAVQMenu@@@Z @ 3753 NONAME ; class QAction * QMenuBar::addMenu(class QMenu *)
	?createContext@QEglContext@@QAE_NPAV1@PBVQEglProperties@@@Z @ 3754 NONAME ; bool QEglContext::createContext(class QEglContext *, class QEglProperties const *)
	??1QPixmapBlurFilter@@UAE@XZ @ 3755 NONAME ; QPixmapBlurFilter::~QPixmapBlurFilter(void)
	?setSizeIncrement@QWidget@@QAEXHH@Z @ 3756 NONAME ; void QWidget::setSizeIncrement(int, int)
	?contains@QGraphicsSimpleTextItem@@UBE_NABVQPointF@@@Z @ 3757 NONAME ; bool QGraphicsSimpleTextItem::contains(class QPointF const &) const
	??_EQWidgetItem@@UAE@I@Z @ 3758 NONAME ; QWidgetItem::~QWidgetItem(unsigned int)
	?dotsPerMeterY@QImage@@QBEHXZ @ 3759 NONAME ; int QImage::dotsPerMeterY(void) const
	?contains@QPainterPath@@QBE_NABVQRectF@@@Z @ 3760 NONAME ; bool QPainterPath::contains(class QRectF const &) const
	?setFrameShape@QFrame@@QAEXW4Shape@1@@Z @ 3761 NONAME ; void QFrame::setFrameShape(enum QFrame::Shape)
	??0QListWidgetItem@@QAE@ABV0@@Z @ 3762 NONAME ; QListWidgetItem::QListWidgetItem(class QListWidgetItem const &)
	?map@QMatrix4x4@@QBE?AVQPointF@@ABV2@@Z @ 3763 NONAME ; class QPointF QMatrix4x4::map(class QPointF const &) const
	??0QFontMetricsF@@QAE@ABVQFont@@PAVQPaintDevice@@@Z @ 3764 NONAME ; QFontMetricsF::QFontMetricsF(class QFont const &, class QPaintDevice *)
	?setVisible@QWidget@@UAEX_N@Z @ 3765 NONAME ; void QWidget::setVisible(bool)
	?quitOnLastWindowClosed@QApplicationPrivate@@2_NA @ 3766 NONAME ; bool QApplicationPrivate::quitOnLastWindowClosed
	?rowsInserted@QColumnView@@MAEXABVQModelIndex@@HH@Z @ 3767 NONAME ; void QColumnView::rowsInserted(class QModelIndex const &, int, int)
	?qt_metacast@QCoeFepInputContext@@UAEPAXPBD@Z @ 3768 NONAME ; void * QCoeFepInputContext::qt_metacast(char const *)
	?map@QMatrix@@QBE?AVQPoint@@ABV2@@Z @ 3769 NONAME ; class QPoint QMatrix::map(class QPoint const &) const
	?MopSupplyObject@QCoeFepInputContext@@UAE?AVPtr@TTypeUid@@V3@@Z @ 3770 NONAME ; class TTypeUid::Ptr QCoeFepInputContext::MopSupplyObject(class TTypeUid)
	?styleName@QGuiPlatformPlugin@@UAE?AVQString@@XZ @ 3771 NONAME ; class QString QGuiPlatformPlugin::styleName(void)
	?rowsInserted@QAbstractItemView@@MAEXABVQModelIndex@@HH@Z @ 3772 NONAME ; void QAbstractItemView::rowsInserted(class QModelIndex const &, int, int)
	?setBlurHint@QGraphicsBloomEffect@@QAEXW4RenderHint@Qt@@@Z @ 3773 NONAME ; void QGraphicsBloomEffect::setBlurHint(enum Qt::RenderHint)
	?gradient@QBrush@@QBEPBVQGradient@@XZ @ 3774 NONAME ; class QGradient const * QBrush::gradient(void) const
	?hasFocus@QWidget@@QBE_NXZ @ 3775 NONAME ; bool QWidget::hasFocus(void) const
	??0Symbol@QCss@@QAE@XZ @ 3776 NONAME ; QCss::Symbol::Symbol(void)
	?fontWeight@QTextEdit@@QBEHXZ @ 3777 NONAME ; int QTextEdit::fontWeight(void) const
	?tr@QGraphicsScene@@SA?AVQString@@PBD0@Z @ 3778 NONAME ; class QString QGraphicsScene::tr(char const *, char const *)
	?sizeHint@QHeaderView@@UBE?AVQSize@@XZ @ 3779 NONAME ; class QSize QHeaderView::sizeHint(void) const
	?addAction@QMenu@@QAEPAVQAction@@ABVQIcon@@ABVQString@@PBVQObject@@PBDABVQKeySequence@@@Z @ 3780 NONAME ; class QAction * QMenu::addAction(class QIcon const &, class QString const &, class QObject const *, char const *, class QKeySequence const &)
	?setHorizontalHeaderLabels@QStandardItemModel@@QAEXABVQStringList@@@Z @ 3781 NONAME ; void QStandardItemModel::setHorizontalHeaderLabels(class QStringList const &)
	?palette@QToolTip@@SA?AVQPalette@@XZ @ 3782 NONAME ; class QPalette QToolTip::palette(void)
	?mimeTypes@QSortFilterProxyModel@@UBE?AVQStringList@@XZ @ 3783 NONAME ; class QStringList QSortFilterProxyModel::mimeTypes(void) const
	?setRgb@QColor@@QAEXHHHH@Z @ 3784 NONAME ; void QColor::setRgb(int, int, int, int)
	?sendDelegateEvent@QAbstractItemViewPrivate@@QBE_NABVQModelIndex@@PAVQEvent@@@Z @ 3785 NONAME ; bool QAbstractItemViewPrivate::sendDelegateEvent(class QModelIndex const &, class QEvent *) const
	??ZQMatrix4x4@@QAEAAV0@ABV0@@Z @ 3786 NONAME ; class QMatrix4x4 & QMatrix4x4::operator-=(class QMatrix4x4 const &)
	?wheelEvent@QDateTimeEdit@@MAEXPAVQWheelEvent@@@Z @ 3787 NONAME ; void QDateTimeEdit::wheelEvent(class QWheelEvent *)
	?staticMetaObject@QMenuBar@@2UQMetaObject@@B @ 3788 NONAME ; struct QMetaObject const QMenuBar::staticMetaObject
	?stepEnabled@QDateTimeEdit@@MBE?AV?$QFlags@W4StepEnabledFlag@QAbstractSpinBox@@@@XZ @ 3789 NONAME ; class QFlags<enum QAbstractSpinBox::StepEnabledFlag> QDateTimeEdit::stepEnabled(void) const
	?isCollapsible@QSplitter@@QBE_NH@Z @ 3790 NONAME ; bool QSplitter::isCollapsible(int) const
	??1QUndoView@@UAE@XZ @ 3791 NONAME ; QUndoView::~QUndoView(void)
	?map@QTransform@@QBE?AVQPointF@@ABV2@@Z @ 3792 NONAME ; class QPointF QTransform::map(class QPointF const &) const
	?addActions@QGraphicsWidget@@QAEXV?$QList@PAVQAction@@@@@Z @ 3793 NONAME ; void QGraphicsWidget::addActions(class QList<class QAction *>)
	?parseNextFunction@Parser@QCss@@QAE_NPAVQString@@0@Z @ 3794 NONAME ; bool QCss::Parser::parseNextFunction(class QString *, class QString *)
	?reset@QItemSelectionModel@@UAEXXZ @ 3795 NONAME ; void QItemSelectionModel::reset(void)
	?header@QTreeView@@QBEPAVQHeaderView@@XZ @ 3796 NONAME ; class QHeaderView * QTreeView::header(void) const
	?scrollToAnchor@QTextEdit@@QAEXABVQString@@@Z @ 3797 NONAME ; void QTextEdit::scrollToAnchor(class QString const &)
	??_EQGraphicsSystem@@UAE@I@Z @ 3798 NONAME ; QGraphicsSystem::~QGraphicsSystem(unsigned int)
	?metaObject@QGraphicsPixelizeEffect@@UBEPBUQMetaObject@@XZ @ 3799 NONAME ; struct QMetaObject const * QGraphicsPixelizeEffect::metaObject(void) const
	??0QBasicKeyEventTransition@@QAE@PAVQState@@@Z @ 3800 NONAME ; QBasicKeyEventTransition::QBasicKeyEventTransition(class QState *)
	?setWrapping@QDial@@QAEX_N@Z @ 3801 NONAME ; void QDial::setWrapping(bool)
	?setActive@QGraphicsItem@@QAEX_N@Z @ 3802 NONAME ; void QGraphicsItem::setActive(bool)
	?wordWrap@QLabel@@QBE_NXZ @ 3803 NONAME ; bool QLabel::wordWrap(void) const
	?parent@QProxyModel@@UBE?AVQModelIndex@@ABV2@@Z @ 3804 NONAME ; class QModelIndex QProxyModel::parent(class QModelIndex const &) const
	?length@QVector3D@@QBEMXZ @ 3805 NONAME ; float QVector3D::length(void) const
	?invalidateGraphicsEffectsRecursively@QWidgetPrivate@@QAEXXZ @ 3806 NONAME ; void QWidgetPrivate::invalidateGraphicsEffectsRecursively(void)
	?minimumSizeHint@QTabBar@@UBE?AVQSize@@XZ @ 3807 NONAME ; class QSize QTabBar::minimumSizeHint(void) const
	??1QGraphicsViewPrivate@@UAE@XZ @ 3808 NONAME ; QGraphicsViewPrivate::~QGraphicsViewPrivate(void)
	??4QStyleOptionTabBarBaseV2@@QAEAAV0@ABVQStyleOptionTabBarBase@@@Z @ 3809 NONAME ; class QStyleOptionTabBarBaseV2 & QStyleOptionTabBarBaseV2::operator=(class QStyleOptionTabBarBase const &)
	?trUtf8@QBoxLayout@@SA?AVQString@@PBD0H@Z @ 3810 NONAME ; class QString QBoxLayout::trUtf8(char const *, char const *, int)
	?setHorizontalHeaderLabels@QTableWidget@@QAEXABVQStringList@@@Z @ 3811 NONAME ; void QTableWidget::setHorizontalHeaderLabels(class QStringList const &)
	?hasHeightForWidth@QGridLayout@@UBE_NXZ @ 3812 NONAME ; bool QGridLayout::hasHeightForWidth(void) const
	?setLazyChildCount@QDirModel@@QAEX_N@Z @ 3813 NONAME ; void QDirModel::setLazyChildCount(bool)
	?onTransition@QMouseEventTransition@@MAEXPAVQEvent@@@Z @ 3814 NONAME ; void QMouseEventTransition::onTransition(class QEvent *)
	?qt_metacast@QCommandLinkButton@@UAEPAXPBD@Z @ 3815 NONAME ; void * QCommandLinkButton::qt_metacast(char const *)
	?setFocus@QGraphicsItem@@QAEXW4FocusReason@Qt@@@Z @ 3816 NONAME ; void QGraphicsItem::setFocus(enum Qt::FocusReason)
	?setVector@QQuaternion@@QAEXABVQVector3D@@@Z @ 3817 NONAME ; void QQuaternion::setVector(class QVector3D const &)
	?blockNumber@QTextCursor@@QBEHXZ @ 3818 NONAME ; int QTextCursor::blockNumber(void) const
	?setAnchorNames@QTextCharFormat@@QAEXABVQStringList@@@Z @ 3819 NONAME ; void QTextCharFormat::setAnchorNames(class QStringList const &)
	??1QWidgetResizeHandler@@UAE@XZ @ 3820 NONAME ; QWidgetResizeHandler::~QWidgetResizeHandler(void)
	?transposed@QMatrix4x4@@QBE?AV1@XZ @ 3821 NONAME ; class QMatrix4x4 QMatrix4x4::transposed(void) const
	?qt_metacall@QMouseEventTransition@@UAEHW4Call@QMetaObject@@HPAPAX@Z @ 3822 NONAME ; int QMouseEventTransition::qt_metacall(enum QMetaObject::Call, int, void * *)
	?mapToScene@QGraphicsItem@@QBE?AVQPointF@@ABV2@@Z @ 3823 NONAME ; class QPointF QGraphicsItem::mapToScene(class QPointF const &) const
	?trUtf8@QBasicMouseEventTransition@@SA?AVQString@@PBD0@Z @ 3824 NONAME ; class QString QBasicMouseEventTransition::trUtf8(char const *, char const *)
	?setFocus_sys@QWidgetPrivate@@QAEXXZ @ 3825 NONAME ; void QWidgetPrivate::setFocus_sys(void)
	?sendEvent@QInputContext@@QAEXABVQInputMethodEvent@@@Z @ 3826 NONAME ; void QInputContext::sendEvent(class QInputMethodEvent const &)
	?fixup@QValidator@@UBEXAAVQString@@@Z @ 3827 NONAME ; void QValidator::fixup(class QString &) const
	?dataChanged@QTreeView@@UAEXABVQModelIndex@@0@Z @ 3828 NONAME ; void QTreeView::dataChanged(class QModelIndex const &, class QModelIndex const &)
	?q_func@QGraphicsItemPrivate@@ABEPBVQGraphicsItem@@XZ @ 3829 NONAME ; class QGraphicsItem const * QGraphicsItemPrivate::q_func(void) const
	?itemAt@QTableWidget@@QBEPAVQTableWidgetItem@@HH@Z @ 3830 NONAME ; class QTableWidgetItem * QTableWidget::itemAt(int, int) const
	?reset@QGraphicsItemAnimation@@QAEXXZ @ 3831 NONAME ; void QGraphicsItemAnimation::reset(void)
	?initStyleOption@QPushButton@@IBEXPAVQStyleOptionButton@@@Z @ 3832 NONAME ; void QPushButton::initStyleOption(class QStyleOptionButton *) const
	?docLayout@QTextEngine@@QBEPAVQAbstractTextDocumentLayout@@XZ @ 3833 NONAME ; class QAbstractTextDocumentLayout * QTextEngine::docLayout(void) const
	?mapFromScene@QGraphicsItem@@QBE?AVQPolygonF@@ABVQRectF@@@Z @ 3834 NONAME ; class QPolygonF QGraphicsItem::mapFromScene(class QRectF const &) const
	??_EQLayoutItem@@UAE@I@Z @ 3835 NONAME ; QLayoutItem::~QLayoutItem(unsigned int)
	?itemDelegate@QAbstractItemView@@QBEPAVQAbstractItemDelegate@@XZ @ 3836 NONAME ; class QAbstractItemDelegate * QAbstractItemView::itemDelegate(void) const
	??0QRadialGradient@@QAE@ABVQPointF@@M@Z @ 3837 NONAME ; QRadialGradient::QRadialGradient(class QPointF const &, float)
	??1QLineEdit@@UAE@XZ @ 3838 NONAME ; QLineEdit::~QLineEdit(void)
	??0QVector4D@@QAE@ABVQVector2D@@MM@Z @ 3839 NONAME ; QVector4D::QVector4D(class QVector2D const &, float, float)
	?setLabelAlignment@QFormLayout@@QAEXV?$QFlags@W4AlignmentFlag@Qt@@@@@Z @ 3840 NONAME ; void QFormLayout::setLabelAlignment(class QFlags<enum Qt::AlignmentFlag>)
	?mapFromGlobal@QWidget@@QBE?AVQPoint@@ABV2@@Z @ 3841 NONAME ; class QPoint QWidget::mapFromGlobal(class QPoint const &) const
	?styles@QFontDatabase@@QBE?AVQStringList@@ABVQString@@@Z @ 3842 NONAME ; class QStringList QFontDatabase::styles(class QString const &) const
	?preprocess@Scanner@QCss@@SA?AVQString@@ABV3@PA_N@Z @ 3843 NONAME ; class QString QCss::Scanner::preprocess(class QString const &, bool *)
	?aboutToShow@QMenu@@IAEXXZ @ 3844 NONAME ; void QMenu::aboutToShow(void)
	?boundingRect@QGraphicsPolygonItem@@UBE?AVQRectF@@XZ @ 3845 NONAME ; class QRectF QGraphicsPolygonItem::boundingRect(void) const
	??XQTransform@@QAEAAV0@ABV0@@Z @ 3846 NONAME ; class QTransform & QTransform::operator*=(class QTransform const &)
	?backwardAvailable@QTextBrowser@@IAEX_N@Z @ 3847 NONAME ; void QTextBrowser::backwardAvailable(bool)
	?setCurrentWidget@QStackedLayout@@QAEXPAVQWidget@@@Z @ 3848 NONAME ; void QStackedLayout::setCurrentWidget(class QWidget *)
	?hasClipping@QItemDelegate@@QBE_NXZ @ 3849 NONAME ; bool QItemDelegate::hasClipping(void) const
	?setObjectType@QTextFormat@@QAEXH@Z @ 3850 NONAME ; void QTextFormat::setObjectType(int)
	?miterLimit@QPen@@QBEMXZ @ 3851 NONAME ; float QPen::miterLimit(void) const
	?d_func@QErrorMessage@@ABEPBVQErrorMessagePrivate@@XZ @ 3852 NONAME ; class QErrorMessagePrivate const * QErrorMessage::d_func(void) const
	?setSizePolicy@QWidget@@QAEXVQSizePolicy@@@Z @ 3853 NONAME ; void QWidget::setSizePolicy(class QSizePolicy)
	?intersect@QItemSelectionRange@@QBE?AV1@ABV1@@Z @ 3854 NONAME ; class QItemSelectionRange QItemSelectionRange::intersect(class QItemSelectionRange const &) const
	?answerRect@QDragMoveEvent@@QBE?AVQRect@@XZ @ 3855 NONAME ; class QRect QDragMoveEvent::answerRect(void) const
	??_0QVector4D@@QAEAAV0@M@Z @ 3856 NONAME ; class QVector4D & QVector4D::operator/=(float)
	?setRange@QProgressDialog@@QAEXHH@Z @ 3857 NONAME ; void QProgressDialog::setRange(int, int)
	?dropIndicatorPosition@QAbstractItemView@@IBE?AW4DropIndicatorPosition@1@XZ @ 3858 NONAME ; enum QAbstractItemView::DropIndicatorPosition QAbstractItemView::dropIndicatorPosition(void) const
	?id@QShortcut@@QBEHXZ @ 3859 NONAME ; int QShortcut::id(void) const
	?tightBoundingBox@QTextEngine@@QBE?AUglyph_metrics_t@@HH@Z @ 3860 NONAME ; struct glyph_metrics_t QTextEngine::tightBoundingBox(int, int) const
	??_EQUndoView@@UAE@I@Z @ 3861 NONAME ; QUndoView::~QUndoView(unsigned int)
	?visualIndex@QHeaderView@@QBEHH@Z @ 3862 NONAME ; int QHeaderView::visualIndex(int) const
	?setFrameStyle@QFrame@@QAEXH@Z @ 3863 NONAME ; void QFrame::setFrameStyle(int)
	?actionGeometry@QMenu@@QBE?AVQRect@@PAVQAction@@@Z @ 3864 NONAME ; class QRect QMenu::actionGeometry(class QAction *) const
	?data@QStandardItemModel@@UBE?AVQVariant@@ABVQModelIndex@@H@Z @ 3865 NONAME ; class QVariant QStandardItemModel::data(class QModelIndex const &, int) const
	?screenGeometry@QDesktopWidget@@QBE?BVQRect@@ABVQPoint@@@Z @ 3866 NONAME ; class QRect const QDesktopWidget::screenGeometry(class QPoint const &) const
	?parseNextSelector@Parser@QCss@@QAE_NPAUSelector@2@@Z @ 3867 NONAME ; bool QCss::Parser::parseNextSelector(struct QCss::Selector *)
	??_4QPainterPath@@QAEAAV0@ABV0@@Z @ 3868 NONAME ; class QPainterPath & QPainterPath::operator&=(class QPainterPath const &)
	?staticMetaObject@QTextDocumentLayout@@2UQMetaObject@@B @ 3869 NONAME ; struct QMetaObject const QTextDocumentLayout::staticMetaObject
	?nextId@QWizard@@UBEHXZ @ 3870 NONAME ; int QWizard::nextId(void) const
	?eventType@QBasicMouseEventTransition@@QBE?AW4Type@QEvent@@XZ @ 3871 NONAME ; enum QEvent::Type QBasicMouseEventTransition::eventType(void) const
	?maybeBackingStore@QWidgetPrivate@@QBEPAVQWidgetBackingStore@@XZ @ 3872 NONAME ; class QWidgetBackingStore * QWidgetPrivate::maybeBackingStore(void) const
	?drawChord@QPainter@@QAEXABVQRect@@HH@Z @ 3873 NONAME ; void QPainter::drawChord(class QRect const &, int, int)
	??0QStandardItemModel@@QAE@PAVQObject@@@Z @ 3874 NONAME ; QStandardItemModel::QStandardItemModel(class QObject *)
	?titleFormat@QWizard@@QBE?AW4TextFormat@Qt@@XZ @ 3875 NONAME ; enum Qt::TextFormat QWizard::titleFormat(void) const
	?trUtf8@QTextTable@@SA?AVQString@@PBD0H@Z @ 3876 NONAME ; class QString QTextTable::trUtf8(char const *, char const *, int)
	?setZ@QVector3D@@QAEXM@Z @ 3877 NONAME ; void QVector3D::setZ(float)
	?paintEvent@QProgressBar@@MAEXPAVQPaintEvent@@@Z @ 3878 NONAME ; void QProgressBar::paintEvent(class QPaintEvent *)
	?polygon@QGraphicsPolygonItem@@QBE?AVQPolygonF@@XZ @ 3879 NONAME ; class QPolygonF QGraphicsPolygonItem::polygon(void) const
	?paintEvent@QTextBrowser@@MAEXPAVQPaintEvent@@@Z @ 3880 NONAME ; void QTextBrowser::paintEvent(class QPaintEvent *)
	?showEvent@QTabBar@@MAEXPAVQShowEvent@@@Z @ 3881 NONAME ; void QTabBar::showEvent(class QShowEvent *)
	?count@QComboBox@@QBEHXZ @ 3882 NONAME ; int QComboBox::count(void) const
	?isEmpty@QMenu@@QBE_NXZ @ 3883 NONAME ; bool QMenu::isEmpty(void) const
	?qt_metacast@QWidgetAction@@UAEPAXPBD@Z @ 3884 NONAME ; void * QWidgetAction::qt_metacast(char const *)
	?tr@QPixmapColorizeFilter@@SA?AVQString@@PBD0@Z @ 3885 NONAME ; class QString QPixmapColorizeFilter::tr(char const *, char const *)
	?d_func@QProxyStyle@@ABEPBVQProxyStylePrivate@@XZ @ 3886 NONAME ; class QProxyStylePrivate const * QProxyStyle::d_func(void) const
	??1QDragEnterEvent@@UAE@XZ @ 3887 NONAME ; QDragEnterEvent::~QDragEnterEvent(void)
	??0QBasicKeyEventTransition@@QAE@W4Type@QEvent@@HPAVQState@@@Z @ 3888 NONAME ; QBasicKeyEventTransition::QBasicKeyEventTransition(enum QEvent::Type, int, class QState *)
	??0QTransform@@QAE@XZ @ 3889 NONAME ; QTransform::QTransform(void)
	?pointSizeF@QFont@@QBEMXZ @ 3890 NONAME ; float QFont::pointSizeF(void) const
	?completer@QLineEdit@@QBEPAVQCompleter@@XZ @ 3891 NONAME ; class QCompleter * QLineEdit::completer(void) const
	?setCodec@QTextOdfWriter@@QAEXPAVQTextCodec@@@Z @ 3892 NONAME ; void QTextOdfWriter::setCodec(class QTextCodec *)
	?naturalCompare@QFileSystemModelPrivate@@SAHABVQString@@0W4CaseSensitivity@Qt@@@Z @ 3893 NONAME ; int QFileSystemModelPrivate::naturalCompare(class QString const &, class QString const &, enum Qt::CaseSensitivity)
	?findBufferChanged@QClipboard@@IAEXXZ @ 3894 NONAME ; void QClipboard::findBufferChanged(void)
	?ensureData_helper@QPainterPath@@AAEXXZ @ 3895 NONAME ; void QPainterPath::ensureData_helper(void)
	?dragLeaveEvent@QGraphicsProxyWidget@@MAEXPAVQGraphicsSceneDragDropEvent@@@Z @ 3896 NONAME ; void QGraphicsProxyWidget::dragLeaveEvent(class QGraphicsSceneDragDropEvent *)
	?setWindowFlags@QWidget@@QAEXV?$QFlags@W4WindowType@Qt@@@@@Z @ 3897 NONAME ; void QWidget::setWindowFlags(class QFlags<enum Qt::WindowType>)
	?normalized@QVector2D@@QBE?AV1@XZ @ 3898 NONAME ; class QVector2D QVector2D::normalized(void) const
	?staticMetaObject@QBasicMouseEventTransition@@2UQMetaObject@@B @ 3899 NONAME ; struct QMetaObject const QBasicMouseEventTransition::staticMetaObject
	?setOldSize@QGraphicsSceneResizeEvent@@QAEXABVQSizeF@@@Z @ 3900 NONAME ; void QGraphicsSceneResizeEvent::setOldSize(class QSizeF const &)
	?undoTextChanged@QUndoStack@@IAEXABVQString@@@Z @ 3901 NONAME ; void QUndoStack::undoTextChanged(class QString const &)
	??0QApplication@@QAE@AAHPAPAD_NH@Z @ 3902 NONAME ; QApplication::QApplication(int &, char * *, bool, int)
	?qt_metacast@QScrollArea@@UAEPAXPBD@Z @ 3903 NONAME ; void * QScrollArea::qt_metacast(char const *)
	??_EQDataWidgetMapper@@UAE@I@Z @ 3904 NONAME ; QDataWidgetMapper::~QDataWidgetMapper(unsigned int)
	?width@QFontMetricsF@@QBEMABVQString@@@Z @ 3905 NONAME ; float QFontMetricsF::width(class QString const &) const
	?overlinePos@QFontMetricsF@@QBEMXZ @ 3906 NONAME ; float QFontMetricsF::overlinePos(void) const
	?buttonText@QWizardPage@@QBE?AVQString@@W4WizardButton@QWizard@@@Z @ 3907 NONAME ; class QString QWizardPage::buttonText(enum QWizard::WizardButton) const
	?redo@QLineControl@@QAEXXZ @ 3908 NONAME ; void QLineControl::redo(void)
	?clear@QGraphicsSceneBspTreeIndex@@MAEXXZ @ 3909 NONAME ; void QGraphicsSceneBspTreeIndex::clear(void)
	?focusOutEvent@QLabel@@MAEXPAVQFocusEvent@@@Z @ 3910 NONAME ; void QLabel::focusOutEvent(class QFocusEvent *)
	??1QStyleHintReturnMask@@QAE@XZ @ 3911 NONAME ; QStyleHintReturnMask::~QStyleHintReturnMask(void)
	?setDashOffset@QPen@@QAEXM@Z @ 3912 NONAME ; void QPen::setDashOffset(float)
	?setClipping@QItemDelegate@@QAEX_N@Z @ 3913 NONAME ; void QItemDelegate::setClipping(bool)
	?itemDelegate@QComboBox@@QBEPAVQAbstractItemDelegate@@XZ @ 3914 NONAME ; class QAbstractItemDelegate * QComboBox::itemDelegate(void) const
	?tr@QStringListModel@@SA?AVQString@@PBD0@Z @ 3915 NONAME ; class QString QStringListModel::tr(char const *, char const *)
	?standardIconImplementation@QStyleSheetStyle@@IBE?AVQIcon@@W4StandardPixmap@QStyle@@PBVQStyleOption@@PBVQWidget@@@Z @ 3916 NONAME ; class QIcon QStyleSheetStyle::standardIconImplementation(enum QStyle::StandardPixmap, class QStyleOption const *, class QWidget const *) const
	?restoreSimplifiedGraph@QGraphicsAnchorLayoutPrivate@@QAEXW4Orientation@1@@Z @ 3917 NONAME ; void QGraphicsAnchorLayoutPrivate::restoreSimplifiedGraph(enum QGraphicsAnchorLayoutPrivate::Orientation)
	?oppositeEdge@QGraphicsAnchorLayoutPrivate@@SA?AW4AnchorPoint@Qt@@W423@@Z @ 3918 NONAME ; enum Qt::AnchorPoint QGraphicsAnchorLayoutPrivate::oppositeEdge(enum Qt::AnchorPoint)
	?trUtf8@QToolBox@@SA?AVQString@@PBD0@Z @ 3919 NONAME ; class QString QToolBox::trUtf8(char const *, char const *)
	?drawPoints@QPaintEngine@@UAEXPBVQPointF@@H@Z @ 3920 NONAME ; void QPaintEngine::drawPoints(class QPointF const *, int)
	?event@QSplitter@@MAE_NPAVQEvent@@@Z @ 3921 NONAME ; bool QSplitter::event(class QEvent *)
	?onTransition@QBasicKeyEventTransition@@MAEXPAVQEvent@@@Z @ 3922 NONAME ; void QBasicKeyEventTransition::onTransition(class QEvent *)
	?columnMoved@QTableView@@IAEXHHH@Z @ 3923 NONAME ; void QTableView::columnMoved(int, int, int)
	??0QTextBlockFormat@@QAE@XZ @ 3924 NONAME ; QTextBlockFormat::QTextBlockFormat(void)
	?highlightSections@QHeaderView@@QBE_NXZ @ 3925 NONAME ; bool QHeaderView::highlightSections(void) const
	?isClippedAway@QGraphicsItemPrivate@@QBE_NXZ @ 3926 NONAME ; bool QGraphicsItemPrivate::isClippedAway(void) const
	??_EQInputDialog@@UAE@I@Z @ 3927 NONAME ; QInputDialog::~QInputDialog(unsigned int)
	??0QClipboard@@AAE@PAVQObject@@@Z @ 3928 NONAME ; QClipboard::QClipboard(class QObject *)
	?tr@QPictureFormatPlugin@@SA?AVQString@@PBD0H@Z @ 3929 NONAME ; class QString QPictureFormatPlugin::tr(char const *, char const *, int)
	?qt_pixmap_cleanup_hook@@3P6AXH@ZA @ 3930 NONAME ; void (*qt_pixmap_cleanup_hook)(int)
	?isWidget@QGraphicsItem@@QBE_NXZ @ 3931 NONAME ; bool QGraphicsItem::isWidget(void) const
	?setUniformRowHeights@QTreeView@@QAEX_N@Z @ 3932 NONAME ; void QTreeView::setUniformRowHeights(bool)
	??MQImageTextKeyLang@@QBE_NABV0@@Z @ 3933 NONAME ; bool QImageTextKeyLang::operator<(class QImageTextKeyLang const &) const
	?paste@QLineEdit@@QAEXXZ @ 3934 NONAME ; void QLineEdit::paste(void)
	?compressionPolicy@QZipWriter@@QBE?AW4CompressionPolicy@1@XZ @ 3935 NONAME ; enum QZipWriter::CompressionPolicy QZipWriter::compressionPolicy(void) const
	?identifierName@QCoeFepInputContext@@UAE?AVQString@@XZ @ 3936 NONAME ; class QString QCoeFepInputContext::identifierName(void)
	??_EQMouseEvent@@UAE@I@Z @ 3937 NONAME ; QMouseEvent::~QMouseEvent(unsigned int)
	?setForegroundBrush@QGraphicsView@@QAEXABVQBrush@@@Z @ 3938 NONAME ; void QGraphicsView::setForegroundBrush(class QBrush const &)
	?setDocumentMode@QTabWidget@@QAEX_N@Z @ 3939 NONAME ; void QTabWidget::setDocumentMode(bool)
	?itemSelectionChanged@QListWidget@@IAEXXZ @ 3940 NONAME ; void QListWidget::itemSelectionChanged(void)
	??0QPaintEvent@@QAE@ABVQRegion@@@Z @ 3941 NONAME ; QPaintEvent::QPaintEvent(class QRegion const &)
	?keyReleaseEvent@QAbstractButton@@MAEXPAVQKeyEvent@@@Z @ 3942 NONAME ; void QAbstractButton::keyReleaseEvent(class QKeyEvent *)
	?warning@QMessageBox@@SAHPAVQWidget@@ABVQString@@1HHH@Z @ 3943 NONAME ; int QMessageBox::warning(class QWidget *, class QString const &, class QString const &, int, int, int)
	?united@QPainterPath@@QBE?AV1@ABV1@@Z @ 3944 NONAME ; class QPainterPath QPainterPath::united(class QPainterPath const &) const
	?setGeometry@QRubberBand@@QAEXABVQRect@@@Z @ 3945 NONAME ; void QRubberBand::setGeometry(class QRect const &)
	?data@QListWidgetItem@@UBE?AVQVariant@@H@Z @ 3946 NONAME ; class QVariant QListWidgetItem::data(int) const
	?metaObject@QEventDispatcherS60@@UBEPBUQMetaObject@@XZ @ 3947 NONAME ; struct QMetaObject const * QEventDispatcherS60::metaObject(void) const
	?setIntStep@QInputDialog@@QAEXH@Z @ 3948 NONAME ; void QInputDialog::setIntStep(int)
	?modifiersMask@QKeyEventTransition@@QBE?AV?$QFlags@W4KeyboardModifier@Qt@@@@XZ @ 3949 NONAME ; class QFlags<enum Qt::KeyboardModifier> QKeyEventTransition::modifiersMask(void) const
	?metaObject@QSessionManager@@UBEPBUQMetaObject@@XZ @ 3950 NONAME ; struct QMetaObject const * QSessionManager::metaObject(void) const
	??0QGraphicsItem@@IAE@AAVQGraphicsItemPrivate@@PAV0@PAVQGraphicsScene@@@Z @ 3951 NONAME ; QGraphicsItem::QGraphicsItem(class QGraphicsItemPrivate &, class QGraphicsItem *, class QGraphicsScene *)
	?insertPermanentWidget@QStatusBar@@QAEHHPAVQWidget@@H@Z @ 3952 NONAME ; int QStatusBar::insertPermanentWidget(int, class QWidget *, int)
	?jumpToNextImage@QImageReader@@QAE_NXZ @ 3953 NONAME ; bool QImageReader::jumpToNextImage(void)
	?indexOfChild@QTreeWidgetItem@@QBEHPAV1@@Z @ 3954 NONAME ; int QTreeWidgetItem::indexOfChild(class QTreeWidgetItem *) const
	?drawPath@QPainter@@QAEXABVQPainterPath@@@Z @ 3955 NONAME ; void QPainter::drawPath(class QPainterPath const &)
	?beforeAnimationStep@QGraphicsItemAnimation@@MAEXM@Z @ 3956 NONAME ; void QGraphicsItemAnimation::beforeAnimationStep(float)
	?setViewMode@QMdiArea@@QAEXW4ViewMode@1@@Z @ 3957 NONAME ; void QMdiArea::setViewMode(enum QMdiArea::ViewMode)
	??0QGridLayout@@QAE@XZ @ 3958 NONAME ; QGridLayout::QGridLayout(void)
	??0QGraphicsPolygonItem@@QAE@PAVQGraphicsItem@@PAVQGraphicsScene@@@Z @ 3959 NONAME ; QGraphicsPolygonItem::QGraphicsPolygonItem(class QGraphicsItem *, class QGraphicsScene *)
	??6@YAAAVQDataStream@@AAV0@ABVQTextLength@@@Z @ 3960 NONAME ; class QDataStream & operator<<(class QDataStream &, class QTextLength const &)
	?isSmoothlyScalable@QFontDatabase@@QBE_NABVQString@@0@Z @ 3961 NONAME ; bool QFontDatabase::isSmoothlyScalable(class QString const &, class QString const &) const
	?group@QAbstractButton@@QBEPAVQButtonGroup@@XZ @ 3962 NONAME ; class QButtonGroup * QAbstractButton::group(void) const
	?executePostedLayout@QAbstractItemViewPrivate@@QBEXXZ @ 3963 NONAME ; void QAbstractItemViewPrivate::executePostedLayout(void) const
	??4QTextFragment@@QAEAAV0@ABV0@@Z @ 3964 NONAME ; class QTextFragment & QTextFragment::operator=(class QTextFragment const &)
	?metaObject@QRegExpValidator@@UBEPBUQMetaObject@@XZ @ 3965 NONAME ; struct QMetaObject const * QRegExpValidator::metaObject(void) const
	??0QSplashScreen@@QAE@PAVQWidget@@ABVQPixmap@@V?$QFlags@W4WindowType@Qt@@@@@Z @ 3966 NONAME ; QSplashScreen::QSplashScreen(class QWidget *, class QPixmap const &, class QFlags<enum Qt::WindowType>)
	?setLine@QGraphicsLineItem@@QAEXABVQLineF@@@Z @ 3967 NONAME ; void QGraphicsLineItem::setLine(class QLineF const &)
	?path@QGraphicsPathItem@@QBE?AVQPainterPath@@XZ @ 3968 NONAME ; class QPainterPath QGraphicsPathItem::path(void) const
	?setVerticalScrollBarPolicy@QAbstractScrollArea@@QAEXW4ScrollBarPolicy@Qt@@@Z @ 3969 NONAME ; void QAbstractScrollArea::setVerticalScrollBarPolicy(enum Qt::ScrollBarPolicy)
	?closeEvent@QWidget@@MAEXPAVQCloseEvent@@@Z @ 3970 NONAME ; void QWidget::closeEvent(class QCloseEvent *)
	?copyAvailable@QTextControl@@IAEX_N@Z @ 3971 NONAME ; void QTextControl::copyAvailable(bool)
	?setOriginCorner@QGridLayout@@QAEXW4Corner@Qt@@@Z @ 3972 NONAME ; void QGridLayout::setOriginCorner(enum Qt::Corner)
	?setLastVisitedDirectory@QFileDialogPrivate@@QAEXABVQString@@@Z @ 3973 NONAME ; void QFileDialogPrivate::setLastVisitedDirectory(class QString const &)
	?restoreDockWidget@QDockAreaLayout@@QAE_NPAVQDockWidget@@@Z @ 3974 NONAME ; bool QDockAreaLayout::restoreDockWidget(class QDockWidget *)
	?d_func@QLayout@@AAEPAVQLayoutPrivate@@XZ @ 3975 NONAME ; class QLayoutPrivate * QLayout::d_func(void)
	?position@QTextFragment@@QBEHXZ @ 3976 NONAME ; int QTextFragment::position(void) const
	?indexAdditionalFormats@QTextEngine@@QAEXXZ @ 3977 NONAME ; void QTextEngine::indexAdditionalFormats(void)
	?testOption@QInputDialog@@QBE_NW4InputDialogOption@1@@Z @ 3978 NONAME ; bool QInputDialog::testOption(enum QInputDialog::InputDialogOption) const
	?mouseButtons@QDropEvent@@QBE?AV?$QFlags@W4MouseButton@Qt@@@@XZ @ 3979 NONAME ; class QFlags<enum Qt::MouseButton> QDropEvent::mouseButtons(void) const
	?removeColumns@QStandardItemModel@@UAE_NHHABVQModelIndex@@@Z @ 3980 NONAME ; bool QStandardItemModel::removeColumns(int, int, class QModelIndex const &)
	?documentLayout@QTextDocument@@QBEPAVQAbstractTextDocumentLayout@@XZ @ 3981 NONAME ; class QAbstractTextDocumentLayout * QTextDocument::documentLayout(void) const
	??4QStyleOptionHeader@@QAEAAV0@ABV0@@Z @ 3982 NONAME ; class QStyleOptionHeader & QStyleOptionHeader::operator=(class QStyleOptionHeader const &)
	?addRow@QFormLayout@@QAEXPAVQWidget@@PAVQLayout@@@Z @ 3983 NONAME ; void QFormLayout::addRow(class QWidget *, class QLayout *)
	??1QGraphicsAnchor@@UAE@XZ @ 3984 NONAME ; QGraphicsAnchor::~QGraphicsAnchor(void)
	?resolveDepth@QGraphicsItemPrivate@@QAEXXZ @ 3985 NONAME ; void QGraphicsItemPrivate::resolveDepth(void)
	?qt_metacast@QTextDocumentLayout@@UAEPAXPBD@Z @ 3986 NONAME ; void * QTextDocumentLayout::qt_metacast(char const *)
	?selectedFiles_sys@QFileDialogPrivate@@QBE?AVQStringList@@XZ @ 3987 NONAME ; class QStringList QFileDialogPrivate::selectedFiles_sys(void) const
	?documentChanged@QTextDocumentLayout@@MAEXHHH@Z @ 3988 NONAME ; void QTextDocumentLayout::documentChanged(int, int, int)
	?setEscapeButton@QMessageBox@@QAEXW4StandardButton@1@@Z @ 3989 NONAME ; void QMessageBox::setEscapeButton(enum QMessageBox::StandardButton)
	?_q_createDirectory@QFileDialogPrivate@@QAEXXZ @ 3990 NONAME ; void QFileDialogPrivate::_q_createDirectory(void)
	?setTextEchoMode@QInputDialog@@QAEXW4EchoMode@QLineEdit@@@Z @ 3991 NONAME ; void QInputDialog::setTextEchoMode(enum QLineEdit::EchoMode)
	?trUtf8@QPixmapDropShadowFilter@@SA?AVQString@@PBD0H@Z @ 3992 NONAME ; class QString QPixmapDropShadowFilter::trUtf8(char const *, char const *, int)
	?setNameFilterDetailsVisible@QFileDialog@@QAEX_N@Z @ 3993 NONAME ; void QFileDialog::setNameFilterDetailsVisible(bool)
	?rangeChanged@QAbstractSlider@@IAEXHH@Z @ 3994 NONAME ; void QAbstractSlider::rangeChanged(int, int)
	?tabToolTip@QTabBar@@QBE?AVQString@@H@Z @ 3995 NONAME ; class QString QTabBar::tabToolTip(int) const
	?getStaticMetaObject@QHBoxLayout@@SAABUQMetaObject@@XZ @ 3996 NONAME ; struct QMetaObject const & QHBoxLayout::getStaticMetaObject(void)
	?filterEvent@QInputContext@@UAE_NPBVQEvent@@@Z @ 3997 NONAME ; bool QInputContext::filterEvent(class QEvent const *)
	??_EQInputContextFactoryInterface@@UAE@I@Z @ 3998 NONAME ; QInputContextFactoryInterface::~QInputContextFactoryInterface(unsigned int)
	?textAlignment@QListWidgetItem@@QBEHXZ @ 3999 NONAME ; int QListWidgetItem::textAlignment(void) const
	?setCustomColor@QColorDialog@@SAXHI@Z @ 4000 NONAME ; void QColorDialog::setCustomColor(int, unsigned int)
	?changeEvent@QTabWidget@@MAEXPAVQEvent@@@Z @ 4001 NONAME ; void QTabWidget::changeEvent(class QEvent *)
	?translated@QPainterPath@@QBE?AV1@ABVQPointF@@@Z @ 4002 NONAME ; class QPainterPath QPainterPath::translated(class QPointF const &) const
	?deviceMatrix@QPainter@@QBEABVQMatrix@@XZ @ 4003 NONAME ; class QMatrix const & QPainter::deviceMatrix(void) const
	?maxVisibleItems@QCompleter@@QBEHXZ @ 4004 NONAME ; int QCompleter::maxVisibleItems(void) const
	??_EQLabel@@UAE@I@Z @ 4005 NONAME ; QLabel::~QLabel(unsigned int)
	?currentCharFormatChanged@QTextControl@@IAEXABVQTextCharFormat@@@Z @ 4006 NONAME ; void QTextControl::currentCharFormatChanged(class QTextCharFormat const &)
	?position@QAbstractItemViewPrivate@@QBE?AW4DropIndicatorPosition@QAbstractItemView@@ABVQPoint@@ABVQRect@@ABVQModelIndex@@@Z @ 4007 NONAME ; enum QAbstractItemView::DropIndicatorPosition QAbstractItemViewPrivate::position(class QPoint const &, class QRect const &, class QModelIndex const &) const
	?setAutoCompletion@QComboBox@@QAEX_N@Z @ 4008 NONAME ; void QComboBox::setAutoCompletion(bool)
	?currentItem@QTreeWidget@@QBEPAVQTreeWidgetItem@@XZ @ 4009 NONAME ; class QTreeWidgetItem * QTreeWidget::currentItem(void) const
	?setEditorData@QStyledItemDelegate@@UBEXPAVQWidget@@ABVQModelIndex@@@Z @ 4010 NONAME ; void QStyledItemDelegate::setEditorData(class QWidget *, class QModelIndex const &) const
	?normal@QVector3D@@SA?AV1@ABV1@00@Z @ 4011 NONAME ; class QVector3D QVector3D::normal(class QVector3D const &, class QVector3D const &, class QVector3D const &)
	??6@YAAAVQDataStream@@AAV0@ABVQVector4D@@@Z @ 4012 NONAME ; class QDataStream & operator<<(class QDataStream &, class QVector4D const &)
	?trUtf8@QGraphicsSceneIndex@@SA?AVQString@@PBD0@Z @ 4013 NONAME ; class QString QGraphicsSceneIndex::trUtf8(char const *, char const *)
	?tr@QGuiPlatformPlugin@@SA?AVQString@@PBD0H@Z @ 4014 NONAME ; class QString QGuiPlatformPlugin::tr(char const *, char const *, int)
	?opacity@QGraphicsOpacityEffect@@QBEMXZ @ 4015 NONAME ; float QGraphicsOpacityEffect::opacity(void) const
	?d_func@QRubberBand@@AAEPAVQRubberBandPrivate@@XZ @ 4016 NONAME ; class QRubberBandPrivate * QRubberBand::d_func(void)
	?bits@QImage@@QBEPBEXZ @ 4017 NONAME ; unsigned char const * QImage::bits(void) const
	??_EQColumnViewGrip@@UAE@I@Z @ 4018 NONAME ; QColumnViewGrip::~QColumnViewGrip(unsigned int)
	?d_func@QSessionManager@@ABEPBVQSessionManagerPrivate@@XZ @ 4019 NONAME ; class QSessionManagerPrivate const * QSessionManager::d_func(void) const
	?addSeparator@QMenuBar@@QAEPAVQAction@@XZ @ 4020 NONAME ; class QAction * QMenuBar::addSeparator(void)
	?previousCursorPosition@QTextDocumentPrivate@@QBEHHW4CursorMode@QTextLayout@@@Z @ 4021 NONAME ; int QTextDocumentPrivate::previousCursorPosition(int, enum QTextLayout::CursorMode) const
	?mouseMoveEvent@QWidget@@MAEXPAVQMouseEvent@@@Z @ 4022 NONAME ; void QWidget::mouseMoveEvent(class QMouseEvent *)
	?verticalHeaderFormat@QCalendarWidget@@QBE?AW4VerticalHeaderFormat@1@XZ @ 4023 NONAME ; enum QCalendarWidget::VerticalHeaderFormat QCalendarWidget::verticalHeaderFormat(void) const
	?additionalFormats@QTextLayout@@QBE?AV?$QList@UFormatRange@QTextLayout@@@@XZ @ 4024 NONAME ; class QList<struct QTextLayout::FormatRange> QTextLayout::additionalFormats(void) const
	?tr@QGraphicsOpacityEffect@@SA?AVQString@@PBD0H@Z @ 4025 NONAME ; class QString QGraphicsOpacityEffect::tr(char const *, char const *, int)
	?apply@QDockAreaLayoutInfo@@QAEX_N@Z @ 4026 NONAME ; void QDockAreaLayoutInfo::apply(bool)
	?setEnabled_helper@QWidgetPrivate@@QAEX_N@Z @ 4027 NONAME ; void QWidgetPrivate::setEnabled_helper(bool)
	??4QStandardItem@@IAEAAV0@ABV0@@Z @ 4028 NONAME ; class QStandardItem & QStandardItem::operator=(class QStandardItem const &)
	?y@QContextMenuEvent@@QBEHXZ @ 4029 NONAME ; int QContextMenuEvent::y(void) const
	?showMessage@QErrorMessage@@QAEXABVQString@@@Z @ 4030 NONAME ; void QErrorMessage::showMessage(class QString const &)
	?setWritingSystem@QFontComboBox@@QAEXW4WritingSystem@QFontDatabase@@@Z @ 4031 NONAME ; void QFontComboBox::setWritingSystem(enum QFontDatabase::WritingSystem)
	?top@QIntValidator@@QBEHXZ @ 4032 NONAME ; int QIntValidator::top(void) const
