EXPORTS
	?format@QAudioInput@@QBE?AVQAudioFormat@@XZ @ 1 NONAME ; class QAudioFormat QAudioInput::format(void) const
	??9QAudioFormat@@QBE_NABV0@@Z @ 2 NONAME ; bool QAudioFormat::operator!=(class QAudioFormat const &) const
	?totalTime@QAudioInput@@QBE_JXZ @ 3 NONAME ; long long QAudioInput::totalTime(void) const
	?tr@QAudioEnginePlugin@@SA?AVQString@@PBD0@Z @ 4 NONAME ; class QString QAudioEnginePlugin::tr(char const *, char const *)
	?isMapped@QVideoFrame@@QBE_NXZ @ 5 NONAME ; bool QVideoFrame::isMapped(void) const
	?staticMetaObject@QAudioInput@@2UQMetaObject@@B @ 6 NONAME ; struct QMetaObject const QAudioInput::staticMetaObject
	??8QAudioFormat@@QBE_NABV0@@Z @ 7 NONAME ; bool QAudioFormat::operator==(class QAudioFormat const &) const
	?tr@QAudioOutput@@SA?AVQString@@PBD0@Z @ 8 NONAME ; class QString QAudioOutput::tr(char const *, char const *)
	?tr@QAbstractVideoSurface@@SA?AVQString@@PBD0@Z @ 9 NONAME ; class QString QAbstractVideoSurface::tr(char const *, char const *)
	?width@QVideoFrame@@QBEHXZ @ 10 NONAME ; int QVideoFrame::width(void) const
	?setFrameSize@QVideoSurfaceFormat@@QAEXABVQSize@@W4ViewportMode@1@@Z @ 11 NONAME ; void QVideoSurfaceFormat::setFrameSize(class QSize const &, enum QVideoSurfaceFormat::ViewportMode)
	?trUtf8@QAbstractAudioInput@@SA?AVQString@@PBD0H@Z @ 12 NONAME ; class QString QAbstractAudioInput::trUtf8(char const *, char const *, int)
	?metaObject@QAbstractAudioDeviceInfo@@UBEPBUQMetaObject@@XZ @ 13 NONAME ; struct QMetaObject const * QAbstractAudioDeviceInfo::metaObject(void) const
	?isFormatSupported@QAbstractVideoSurface@@UBE_NABVQVideoSurfaceFormat@@PAV2@@Z @ 14 NONAME ; bool QAbstractVideoSurface::isFormatSupported(class QVideoSurfaceFormat const &, class QVideoSurfaceFormat *) const
	?setFieldType@QVideoFrame@@QAEXW4FieldType@1@@Z @ 15 NONAME ; void QVideoFrame::setFieldType(enum QVideoFrame::FieldType)
	?trUtf8@QAbstractAudioDeviceInfo@@SA?AVQString@@PBD0@Z @ 16 NONAME ; class QString QAbstractAudioDeviceInfo::trUtf8(char const *, char const *)
	?tr@QAbstractAudioOutput@@SA?AVQString@@PBD0@Z @ 17 NONAME ; class QString QAbstractAudioOutput::tr(char const *, char const *)
	??4QAudioDeviceInfo@@QAEAAV0@ABV0@@Z @ 18 NONAME ; class QAudioDeviceInfo & QAudioDeviceInfo::operator=(class QAudioDeviceInfo const &)
	??0QVideoFrame@@QAE@XZ @ 19 NONAME ; QVideoFrame::QVideoFrame(void)
	?state@QAudioOutput@@QBE?AW4State@QAudio@@XZ @ 20 NONAME ; enum QAudio::State QAudioOutput::state(void) const
	?qt_metacall@QAbstractAudioDeviceInfo@@UAEHW4Call@QMetaObject@@HPAPAX@Z @ 21 NONAME ; int QAbstractAudioDeviceInfo::qt_metacall(enum QMetaObject::Call, int, void * *)
	?deviceName@QAudioDeviceInfo@@QBE?AVQString@@XZ @ 22 NONAME ; class QString QAudioDeviceInfo::deviceName(void) const
	?start@QAudioOutput@@QAEPAVQIODevice@@PAV2@@Z @ 23 NONAME ; class QIODevice * QAudioOutput::start(class QIODevice *)
	?start@QAudioInput@@QAEPAVQIODevice@@PAV2@@Z @ 24 NONAME ; class QIODevice * QAudioInput::start(class QIODevice *)
	?setBufferSize@QAudioOutput@@QAEXH@Z @ 25 NONAME ; void QAudioOutput::setBufferSize(int)
	??6@YA?AVQDebug@@V0@ABVQVideoSurfaceFormat@@@Z @ 26 NONAME ; class QDebug operator<<(class QDebug, class QVideoSurfaceFormat const &)
	??_EQAbstractVideoSurface@@UAE@I@Z @ 27 NONAME ; QAbstractVideoSurface::~QAbstractVideoSurface(unsigned int)
	??0QAbstractVideoBuffer@@IAE@AAVQAbstractVideoBufferPrivate@@W4HandleType@0@@Z @ 28 NONAME ; QAbstractVideoBuffer::QAbstractVideoBuffer(class QAbstractVideoBufferPrivate &, enum QAbstractVideoBuffer::HandleType)
	?qt_metacall@QAudioInput@@UAEHW4Call@QMetaObject@@HPAPAX@Z @ 29 NONAME ; int QAudioInput::qt_metacall(enum QMetaObject::Call, int, void * *)
	??4QVideoSurfaceFormat@@QAEAAV0@ABV0@@Z @ 30 NONAME ; class QVideoSurfaceFormat & QVideoSurfaceFormat::operator=(class QVideoSurfaceFormat const &)
	??1QAbstractVideoBuffer@@UAE@XZ @ 31 NONAME ; QAbstractVideoBuffer::~QAbstractVideoBuffer(void)
	?stop@QAudioOutput@@QAEXXZ @ 32 NONAME ; void QAudioOutput::stop(void)
	?setYuvColorSpace@QVideoSurfaceFormat@@QAEXW4YuvColorSpace@1@@Z @ 33 NONAME ; void QVideoSurfaceFormat::setYuvColorSpace(enum QVideoSurfaceFormat::YuvColorSpace)
	?bytesFree@QAudioOutput@@QBEHXZ @ 34 NONAME ; int QAudioOutput::bytesFree(void) const
	?trUtf8@QAbstractAudioOutput@@SA?AVQString@@PBD0H@Z @ 35 NONAME ; class QString QAbstractAudioOutput::trUtf8(char const *, char const *, int)
	??9QVideoSurfaceFormat@@QBE_NABV0@@Z @ 36 NONAME ; bool QVideoSurfaceFormat::operator!=(class QVideoSurfaceFormat const &) const
	?size@QVideoFrame@@QBE?AVQSize@@XZ @ 37 NONAME ; class QSize QVideoFrame::size(void) const
	?d_func@QAbstractVideoSurface@@AAEPAVQAbstractVideoSurfacePrivate@@XZ @ 38 NONAME ; class QAbstractVideoSurfacePrivate * QAbstractVideoSurface::d_func(void)
	?qt_metacall@QAudioEnginePlugin@@UAEHW4Call@QMetaObject@@HPAPAX@Z @ 39 NONAME ; int QAudioEnginePlugin::qt_metacall(enum QMetaObject::Call, int, void * *)
	??_EQMemoryVideoBuffer@@UAE@I@Z @ 40 NONAME ; QMemoryVideoBuffer::~QMemoryVideoBuffer(unsigned int)
	?bits@QVideoFrame@@QBEPBEXZ @ 41 NONAME ; unsigned char const * QVideoFrame::bits(void) const
	?supportedFormatsChanged@QAbstractVideoSurface@@IAEXXZ @ 42 NONAME ; void QAbstractVideoSurface::supportedFormatsChanged(void)
	?mapMode@QVideoFrame@@QBE?AW4MapMode@QAbstractVideoBuffer@@XZ @ 43 NONAME ; enum QAbstractVideoBuffer::MapMode QVideoFrame::mapMode(void) const
	?trUtf8@QAbstractAudioInput@@SA?AVQString@@PBD0@Z @ 44 NONAME ; class QString QAbstractAudioInput::trUtf8(char const *, char const *)
	?trUtf8@QAudioOutput@@SA?AVQString@@PBD0@Z @ 45 NONAME ; class QString QAudioOutput::trUtf8(char const *, char const *)
	?setSampleType@QAudioFormat@@QAEXW4SampleType@1@@Z @ 46 NONAME ; void QAudioFormat::setSampleType(enum QAudioFormat::SampleType)
	?format@QAudioOutput@@QBE?AVQAudioFormat@@XZ @ 47 NONAME ; class QAudioFormat QAudioOutput::format(void) const
	?property@QVideoSurfaceFormat@@QBE?AVQVariant@@PBD@Z @ 48 NONAME ; class QVariant QVideoSurfaceFormat::property(char const *) const
	?qt_metacast@QAudioOutput@@UAEPAXPBD@Z @ 49 NONAME ; void * QAudioOutput::qt_metacast(char const *)
	??_EQAudioOutput@@UAE@I@Z @ 50 NONAME ; QAudioOutput::~QAudioOutput(unsigned int)
	?yuvColorSpace@QVideoSurfaceFormat@@QBE?AW4YuvColorSpace@1@XZ @ 51 NONAME ; enum QVideoSurfaceFormat::YuvColorSpace QVideoSurfaceFormat::yuvColorSpace(void) const
	?supportedSampleTypes@QAudioDeviceInfo@@QBE?AV?$QList@W4SampleType@QAudioFormat@@@@XZ @ 52 NONAME ; class QList<enum QAudioFormat::SampleType> QAudioDeviceInfo::supportedSampleTypes(void) const
	?sizeHint@QVideoSurfaceFormat@@QBE?AVQSize@@XZ @ 53 NONAME ; class QSize QVideoSurfaceFormat::sizeHint(void) const
	?setError@QAbstractVideoSurface@@IAEXW4Error@1@@Z @ 54 NONAME ; void QAbstractVideoSurface::setError(enum QAbstractVideoSurface::Error)
	?qt_metacall@QAbstractAudioInput@@UAEHW4Call@QMetaObject@@HPAPAX@Z @ 55 NONAME ; int QAbstractAudioInput::qt_metacall(enum QMetaObject::Call, int, void * *)
	?isWritable@QVideoFrame@@QBE_NXZ @ 56 NONAME ; bool QVideoFrame::isWritable(void) const
	?sampleType@QAudioFormat@@QBE?AW4SampleType@1@XZ @ 57 NONAME ; enum QAudioFormat::SampleType QAudioFormat::sampleType(void) const
	??0QAudioOutput@@QAE@ABVQAudioFormat@@PAVQObject@@@Z @ 58 NONAME ; QAudioOutput::QAudioOutput(class QAudioFormat const &, class QObject *)
	?d_func@QMemoryVideoBuffer@@AAEPAVQMemoryVideoBufferPrivate@@XZ @ 59 NONAME ; class QMemoryVideoBufferPrivate * QMemoryVideoBuffer::d_func(void)
	?setProperty@QVideoSurfaceFormat@@QAEXPBDABVQVariant@@@Z @ 60 NONAME ; void QVideoSurfaceFormat::setProperty(char const *, class QVariant const &)
	?pixelFormat@QVideoFrame@@QBE?AW4PixelFormat@1@XZ @ 61 NONAME ; enum QVideoFrame::PixelFormat QVideoFrame::pixelFormat(void) const
	?mapMode@QMemoryVideoBuffer@@UBE?AW4MapMode@QAbstractVideoBuffer@@XZ @ 62 NONAME ; enum QAbstractVideoBuffer::MapMode QMemoryVideoBuffer::mapMode(void) const
	?qt_metacall@QAudioOutput@@UAEHW4Call@QMetaObject@@HPAPAX@Z @ 63 NONAME ; int QAudioOutput::qt_metacall(enum QMetaObject::Call, int, void * *)
	?fieldType@QVideoFrame@@QBE?AW4FieldType@1@XZ @ 64 NONAME ; enum QVideoFrame::FieldType QVideoFrame::fieldType(void) const
	?staticMetaObject@QAbstractAudioInput@@2UQMetaObject@@B @ 65 NONAME ; struct QMetaObject const QAbstractAudioInput::staticMetaObject
	?tr@QAbstractAudioInput@@SA?AVQString@@PBD0@Z @ 66 NONAME ; class QString QAbstractAudioInput::tr(char const *, char const *)
	?setByteOrder@QAudioFormat@@QAEXW4Endian@1@@Z @ 67 NONAME ; void QAudioFormat::setByteOrder(enum QAudioFormat::Endian)
	?qt_metacast@QAbstractAudioDeviceInfo@@UAEPAXPBD@Z @ 68 NONAME ; void * QAbstractAudioDeviceInfo::qt_metacast(char const *)
	?staticMetaObject@QAudioEnginePlugin@@2UQMetaObject@@B @ 69 NONAME ; struct QMetaObject const QAudioEnginePlugin::staticMetaObject
	??_EQAudioInput@@UAE@I@Z @ 70 NONAME ; QAudioInput::~QAudioInput(unsigned int)
	?clock@QAudioInput@@QBE_JXZ @ 71 NONAME ; long long QAudioInput::clock(void) const
	?setPixelAspectRatio@QVideoSurfaceFormat@@QAEXABVQSize@@@Z @ 72 NONAME ; void QVideoSurfaceFormat::setPixelAspectRatio(class QSize const &)
	?isNull@QAudioFormat@@QBE_NXZ @ 73 NONAME ; bool QAudioFormat::isNull(void) const
	?supportedChannels@QAudioDeviceInfo@@QBE?AV?$QList@H@@XZ @ 74 NONAME ; class QList<int> QAudioDeviceInfo::supportedChannels(void) const
	?getStaticMetaObject@QAudioOutput@@SAABUQMetaObject@@XZ @ 75 NONAME ; struct QMetaObject const & QAudioOutput::getStaticMetaObject(void)
	?stateChanged@QAbstractAudioOutput@@IAEXW4State@QAudio@@@Z @ 76 NONAME ; void QAbstractAudioOutput::stateChanged(enum QAudio::State)
	?d_func@QImageVideoBuffer@@AAEPAVQImageVideoBufferPrivate@@XZ @ 77 NONAME ; class QImageVideoBufferPrivate * QImageVideoBuffer::d_func(void)
	?unmap@QVideoFrame@@QAEXXZ @ 78 NONAME ; void QVideoFrame::unmap(void)
	?staticMetaObject@QAbstractAudioOutput@@2UQMetaObject@@B @ 79 NONAME ; struct QMetaObject const QAbstractAudioOutput::staticMetaObject
	?qt_metacast@QAbstractAudioInput@@UAEPAXPBD@Z @ 80 NONAME ; void * QAbstractAudioInput::qt_metacast(char const *)
	?byteOrder@QAudioFormat@@QBE?AW4Endian@1@XZ @ 81 NONAME ; enum QAudioFormat::Endian QAudioFormat::byteOrder(void) const
	??_EQAbstractAudioOutput@@UAE@I@Z @ 82 NONAME ; QAbstractAudioOutput::~QAbstractAudioOutput(unsigned int)
	?error@QAbstractVideoSurface@@QBE?AW4Error@1@XZ @ 83 NONAME ; enum QAbstractVideoSurface::Error QAbstractVideoSurface::error(void) const
	?d_func@QAbstractVideoBuffer@@ABEPBVQAbstractVideoBufferPrivate@@XZ @ 84 NONAME ; class QAbstractVideoBufferPrivate const * QAbstractVideoBuffer::d_func(void) const
	?setScanLineDirection@QVideoSurfaceFormat@@QAEXW4Direction@1@@Z @ 85 NONAME ; void QVideoSurfaceFormat::setScanLineDirection(enum QVideoSurfaceFormat::Direction)
	?supportedSampleSizes@QAudioDeviceInfo@@QBE?AV?$QList@H@@XZ @ 86 NONAME ; class QList<int> QAudioDeviceInfo::supportedSampleSizes(void) const
	??1QAudioDeviceInfo@@QAE@XZ @ 87 NONAME ; QAudioDeviceInfo::~QAudioDeviceInfo(void)
	??1QMemoryVideoBuffer@@UAE@XZ @ 88 NONAME ; QMemoryVideoBuffer::~QMemoryVideoBuffer(void)
	?nearestFormat@QAudioDeviceInfo@@QBE?AVQAudioFormat@@ABV2@@Z @ 89 NONAME ; class QAudioFormat QAudioDeviceInfo::nearestFormat(class QAudioFormat const &) const
	??0QVideoSurfaceFormat@@QAE@XZ @ 90 NONAME ; QVideoSurfaceFormat::QVideoSurfaceFormat(void)
	?trUtf8@QAudioOutput@@SA?AVQString@@PBD0H@Z @ 91 NONAME ; class QString QAudioOutput::trUtf8(char const *, char const *, int)
	?numBytes@QVideoFrame@@QBEHXZ @ 92 NONAME ; int QVideoFrame::numBytes(void) const
	?isFormatSupported@QAudioDeviceInfo@@QBE_NABVQAudioFormat@@@Z @ 93 NONAME ; bool QAudioDeviceInfo::isFormatSupported(class QAudioFormat const &) const
	?isNull@QAudioDeviceInfo@@QBE_NXZ @ 94 NONAME ; bool QAudioDeviceInfo::isNull(void) const
	?supportedByteOrders@QAudioDeviceInfo@@QBE?AV?$QList@W4Endian@QAudioFormat@@@@XZ @ 95 NONAME ; class QList<enum QAudioFormat::Endian> QAudioDeviceInfo::supportedByteOrders(void) const
	?stop@QAudioInput@@QAEXXZ @ 96 NONAME ; void QAudioInput::stop(void)
	??0QVideoFrame@@QAE@ABVQImage@@@Z @ 97 NONAME ; QVideoFrame::QVideoFrame(class QImage const &)
	?setFrequency@QAudioFormat@@QAEXH@Z @ 98 NONAME ; void QAudioFormat::setFrequency(int)
	?realm@QAudioDeviceInfo@@ABE?AVQString@@XZ @ 99 NONAME ; class QString QAudioDeviceInfo::realm(void) const
	?notify@QAbstractAudioInput@@IAEXXZ @ 100 NONAME ; void QAbstractAudioInput::notify(void)
	?setPixelAspectRatio@QVideoSurfaceFormat@@QAEXHH@Z @ 101 NONAME ; void QVideoSurfaceFormat::setPixelAspectRatio(int, int)
	?getStaticMetaObject@QAbstractAudioDeviceInfo@@SAABUQMetaObject@@XZ @ 102 NONAME ; struct QMetaObject const & QAbstractAudioDeviceInfo::getStaticMetaObject(void)
	?notify@QAbstractAudioOutput@@IAEXXZ @ 103 NONAME ; void QAbstractAudioOutput::notify(void)
	?handle@QVideoFrame@@QBE?AVQVariant@@XZ @ 104 NONAME ; class QVariant QVideoFrame::handle(void) const
	?equivalentPixelFormat@QVideoFrame@@SA?AW4PixelFormat@1@W4Format@QImage@@@Z @ 105 NONAME ; enum QVideoFrame::PixelFormat QVideoFrame::equivalentPixelFormat(enum QImage::Format)
	?setNotifyInterval@QAudioInput@@QAEXH@Z @ 106 NONAME ; void QAudioInput::setNotifyInterval(int)
	?getStaticMetaObject@QAudioEnginePlugin@@SAABUQMetaObject@@XZ @ 107 NONAME ; struct QMetaObject const & QAudioEnginePlugin::getStaticMetaObject(void)
	??0QVideoFrame@@QAE@PAVQAbstractVideoBuffer@@ABVQSize@@W4PixelFormat@0@@Z @ 108 NONAME ; QVideoFrame::QVideoFrame(class QAbstractVideoBuffer *, class QSize const &, enum QVideoFrame::PixelFormat)
	?notifyInterval@QAudioOutput@@QBEHXZ @ 109 NONAME ; int QAudioOutput::notifyInterval(void) const
	??1QImageVideoBuffer@@UAE@XZ @ 110 NONAME ; QImageVideoBuffer::~QImageVideoBuffer(void)
	??1QAbstractAudioDeviceInfo@@UAE@XZ @ 111 NONAME ; QAbstractAudioDeviceInfo::~QAbstractAudioDeviceInfo(void)
	?staticMetaObject@QAudioOutput@@2UQMetaObject@@B @ 112 NONAME ; struct QMetaObject const QAudioOutput::staticMetaObject
	?propertyNames@QVideoSurfaceFormat@@QBE?AV?$QList@VQByteArray@@@@XZ @ 113 NONAME ; class QList<class QByteArray> QVideoSurfaceFormat::propertyNames(void) const
	??1QAudioEnginePlugin@@UAE@XZ @ 114 NONAME ; QAudioEnginePlugin::~QAudioEnginePlugin(void)
	??0QImageVideoBuffer@@QAE@ABVQImage@@@Z @ 115 NONAME ; QImageVideoBuffer::QImageVideoBuffer(class QImage const &)
	?frameSize@QVideoSurfaceFormat@@QBE?AVQSize@@XZ @ 116 NONAME ; class QSize QVideoSurfaceFormat::frameSize(void) const
	?bits@QVideoFrame@@QAEPAEXZ @ 117 NONAME ; unsigned char * QVideoFrame::bits(void)
	?trUtf8@QAudioEnginePlugin@@SA?AVQString@@PBD0H@Z @ 118 NONAME ; class QString QAudioEnginePlugin::trUtf8(char const *, char const *, int)
	??_EQAbstractAudioInput@@UAE@I@Z @ 119 NONAME ; QAbstractAudioInput::~QAbstractAudioInput(unsigned int)
	?error@QAudioOutput@@QBE?AW4Error@QAudio@@XZ @ 120 NONAME ; enum QAudio::Error QAudioOutput::error(void) const
	?d_func@QMemoryVideoBuffer@@ABEPBVQMemoryVideoBufferPrivate@@XZ @ 121 NONAME ; class QMemoryVideoBufferPrivate const * QMemoryVideoBuffer::d_func(void) const
	?pixelAspectRatio@QVideoSurfaceFormat@@QBE?AVQSize@@XZ @ 122 NONAME ; class QSize QVideoSurfaceFormat::pixelAspectRatio(void) const
	?isValid@QVideoFrame@@QBE_NXZ @ 123 NONAME ; bool QVideoFrame::isValid(void) const
	??4QAudioFormat@@QAEAAV0@ABV0@@Z @ 124 NONAME ; class QAudioFormat & QAudioFormat::operator=(class QAudioFormat const &)
	?isReadable@QVideoFrame@@QBE_NXZ @ 125 NONAME ; bool QVideoFrame::isReadable(void) const
	?totalTime@QAudioOutput@@QBE_JXZ @ 126 NONAME ; long long QAudioOutput::totalTime(void) const
	?qt_metacall@QAbstractAudioOutput@@UAEHW4Call@QMetaObject@@HPAPAX@Z @ 127 NONAME ; int QAbstractAudioOutput::qt_metacall(enum QMetaObject::Call, int, void * *)
	??0QAudioOutput@@QAE@ABVQAudioDeviceInfo@@ABVQAudioFormat@@PAVQObject@@@Z @ 128 NONAME ; QAudioOutput::QAudioOutput(class QAudioDeviceInfo const &, class QAudioFormat const &, class QObject *)
	??0QAudioInput@@QAE@ABVQAudioDeviceInfo@@ABVQAudioFormat@@PAVQObject@@@Z @ 129 NONAME ; QAudioInput::QAudioInput(class QAudioDeviceInfo const &, class QAudioFormat const &, class QObject *)
	?notify@QAudioInput@@IAEXXZ @ 130 NONAME ; void QAudioInput::notify(void)
	?periodSize@QAudioOutput@@QBEHXZ @ 131 NONAME ; int QAudioOutput::periodSize(void) const
	?tr@QAudioInput@@SA?AVQString@@PBD0H@Z @ 132 NONAME ; class QString QAudioInput::tr(char const *, char const *, int)
	??0QAudioDeviceInfo@@QAE@XZ @ 133 NONAME ; QAudioDeviceInfo::QAudioDeviceInfo(void)
	?setCodec@QAudioFormat@@QAEXABVQString@@@Z @ 134 NONAME ; void QAudioFormat::setCodec(class QString const &)
	?tr@QAudioEnginePlugin@@SA?AVQString@@PBD0H@Z @ 135 NONAME ; class QString QAudioEnginePlugin::tr(char const *, char const *, int)
	?deviceList@QAudioDeviceInfo@@SA?AV?$QList@VQAudioDeviceInfo@@@@W4Mode@QAudio@@@Z @ 136 NONAME ; class QList<class QAudioDeviceInfo> QAudioDeviceInfo::deviceList(enum QAudio::Mode)
	?pixelFormat@QVideoSurfaceFormat@@QBE?AW4PixelFormat@QVideoFrame@@XZ @ 137 NONAME ; enum QVideoFrame::PixelFormat QVideoSurfaceFormat::pixelFormat(void) const
	?handleType@QVideoSurfaceFormat@@QBE?AW4HandleType@QAbstractVideoBuffer@@XZ @ 138 NONAME ; enum QAbstractVideoBuffer::HandleType QVideoSurfaceFormat::handleType(void) const
	?clock@QAudioOutput@@QBE_JXZ @ 139 NONAME ; long long QAudioOutput::clock(void) const
	?map@QMemoryVideoBuffer@@UAEPAEW4MapMode@QAbstractVideoBuffer@@PAH1@Z @ 140 NONAME ; unsigned char * QMemoryVideoBuffer::map(enum QAbstractVideoBuffer::MapMode, int *, int *)
	?setNotifyInterval@QAudioOutput@@QAEXH@Z @ 141 NONAME ; void QAudioOutput::setNotifyInterval(int)
	?start@QAbstractVideoSurface@@UAE_NABVQVideoSurfaceFormat@@@Z @ 142 NONAME ; bool QAbstractVideoSurface::start(class QVideoSurfaceFormat const &)
	?staticMetaObject@QAbstractVideoSurface@@2UQMetaObject@@B @ 143 NONAME ; struct QMetaObject const QAbstractVideoSurface::staticMetaObject
	?trUtf8@QAbstractVideoSurface@@SA?AVQString@@PBD0@Z @ 144 NONAME ; class QString QAbstractVideoSurface::trUtf8(char const *, char const *)
	?state@QAudioInput@@QBE?AW4State@QAudio@@XZ @ 145 NONAME ; enum QAudio::State QAudioInput::state(void) const
	?tr@QAbstractAudioInput@@SA?AVQString@@PBD0H@Z @ 146 NONAME ; class QString QAbstractAudioInput::tr(char const *, char const *, int)
	??0QVideoSurfaceFormat@@QAE@ABV0@@Z @ 147 NONAME ; QVideoSurfaceFormat::QVideoSurfaceFormat(class QVideoSurfaceFormat const &)
	?trUtf8@QAbstractAudioOutput@@SA?AVQString@@PBD0@Z @ 148 NONAME ; class QString QAbstractAudioOutput::trUtf8(char const *, char const *)
	?setStartTime@QVideoFrame@@QAEX_J@Z @ 149 NONAME ; void QVideoFrame::setStartTime(long long)
	?unmap@QMemoryVideoBuffer@@UAEXXZ @ 150 NONAME ; void QMemoryVideoBuffer::unmap(void)
	??_EQAbstractAudioDeviceInfo@@UAE@I@Z @ 151 NONAME ; QAbstractAudioDeviceInfo::~QAbstractAudioDeviceInfo(unsigned int)
	?setSampleSize@QAudioFormat@@QAEXH@Z @ 152 NONAME ; void QAudioFormat::setSampleSize(int)
	?stop@QAbstractVideoSurface@@UAEXXZ @ 153 NONAME ; void QAbstractVideoSurface::stop(void)
	?mode@QAudioDeviceInfo@@ABE?AW4Mode@QAudio@@XZ @ 154 NONAME ; enum QAudio::Mode QAudioDeviceInfo::mode(void) const
	?surfaceFormat@QAbstractVideoSurface@@QBE?AVQVideoSurfaceFormat@@XZ @ 155 NONAME ; class QVideoSurfaceFormat QAbstractVideoSurface::surfaceFormat(void) const
	?metaObject@QAbstractAudioOutput@@UBEPBUQMetaObject@@XZ @ 156 NONAME ; struct QMetaObject const * QAbstractAudioOutput::metaObject(void) const
	?trUtf8@QAbstractAudioDeviceInfo@@SA?AVQString@@PBD0H@Z @ 157 NONAME ; class QString QAbstractAudioDeviceInfo::trUtf8(char const *, char const *, int)
	??0QAudioFormat@@QAE@ABV0@@Z @ 158 NONAME ; QAudioFormat::QAudioFormat(class QAudioFormat const &)
	?viewport@QVideoSurfaceFormat@@QBE?AVQRect@@XZ @ 159 NONAME ; class QRect QVideoSurfaceFormat::viewport(void) const
	?bufferSize@QAudioInput@@QBEHXZ @ 160 NONAME ; int QAudioInput::bufferSize(void) const
	?resume@QAudioInput@@QAEXXZ @ 161 NONAME ; void QAudioInput::resume(void)
	?d_func@QImageVideoBuffer@@ABEPBVQImageVideoBufferPrivate@@XZ @ 162 NONAME ; class QImageVideoBufferPrivate const * QImageVideoBuffer::d_func(void) const
	??0QVideoSurfaceFormat@@QAE@ABVQSize@@W4PixelFormat@QVideoFrame@@W4HandleType@QAbstractVideoBuffer@@@Z @ 163 NONAME ; QVideoSurfaceFormat::QVideoSurfaceFormat(class QSize const &, enum QVideoFrame::PixelFormat, enum QAbstractVideoBuffer::HandleType)
	?bytesReady@QAudioInput@@QBEHXZ @ 164 NONAME ; int QAudioInput::bytesReady(void) const
	?error@QAudioInput@@QBE?AW4Error@QAudio@@XZ @ 165 NONAME ; enum QAudio::Error QAudioInput::error(void) const
	??0QAbstractVideoSurface@@QAE@PAVQObject@@@Z @ 166 NONAME ; QAbstractVideoSurface::QAbstractVideoSurface(class QObject *)
	?frameHeight@QVideoSurfaceFormat@@QBEHXZ @ 167 NONAME ; int QVideoSurfaceFormat::frameHeight(void) const
	?unmap@QImageVideoBuffer@@UAEXXZ @ 168 NONAME ; void QImageVideoBuffer::unmap(void)
	?tr@QAbstractAudioOutput@@SA?AVQString@@PBD0H@Z @ 169 NONAME ; class QString QAbstractAudioOutput::tr(char const *, char const *, int)
	?setFrameSize@QVideoSurfaceFormat@@QAEXHHW4ViewportMode@1@@Z @ 170 NONAME ; void QVideoSurfaceFormat::setFrameSize(int, int, enum QVideoSurfaceFormat::ViewportMode)
	??1QAbstractAudioInput@@UAE@XZ @ 171 NONAME ; QAbstractAudioInput::~QAbstractAudioInput(void)
	?setViewport@QVideoSurfaceFormat@@QAEXABVQRect@@@Z @ 172 NONAME ; void QVideoSurfaceFormat::setViewport(class QRect const &)
	?tr@QAbstractAudioDeviceInfo@@SA?AVQString@@PBD0H@Z @ 173 NONAME ; class QString QAbstractAudioDeviceInfo::tr(char const *, char const *, int)
	??1QAudioInput@@UAE@XZ @ 174 NONAME ; QAudioInput::~QAudioInput(void)
	?staticMetaObject@QAbstractAudioDeviceInfo@@2UQMetaObject@@B @ 175 NONAME ; struct QMetaObject const QAbstractAudioDeviceInfo::staticMetaObject
	??_EQAudioEnginePlugin@@UAE@I@Z @ 176 NONAME ; QAudioEnginePlugin::~QAudioEnginePlugin(unsigned int)
	?setEndTime@QVideoFrame@@QAEX_J@Z @ 177 NONAME ; void QVideoFrame::setEndTime(long long)
	?trUtf8@QAudioInput@@SA?AVQString@@PBD0H@Z @ 178 NONAME ; class QString QAudioInput::trUtf8(char const *, char const *, int)
	??0QVideoFrame@@QAE@ABV0@@Z @ 179 NONAME ; QVideoFrame::QVideoFrame(class QVideoFrame const &)
	?handleType@QVideoFrame@@QBE?AW4HandleType@QAbstractVideoBuffer@@XZ @ 180 NONAME ; enum QAbstractVideoBuffer::HandleType QVideoFrame::handleType(void) const
	?mapMode@QImageVideoBuffer@@UBE?AW4MapMode@QAbstractVideoBuffer@@XZ @ 181 NONAME ; enum QAbstractVideoBuffer::MapMode QImageVideoBuffer::mapMode(void) const
	?tr@QAudioOutput@@SA?AVQString@@PBD0H@Z @ 182 NONAME ; class QString QAudioOutput::tr(char const *, char const *, int)
	?trUtf8@QAbstractVideoSurface@@SA?AVQString@@PBD0H@Z @ 183 NONAME ; class QString QAbstractVideoSurface::trUtf8(char const *, char const *, int)
	?setChannels@QAudioFormat@@QAEXH@Z @ 184 NONAME ; void QAudioFormat::setChannels(int)
	?bufferSize@QAudioOutput@@QBEHXZ @ 185 NONAME ; int QAudioOutput::bufferSize(void) const
	?supportedCodecs@QAudioDeviceInfo@@QBE?AVQStringList@@XZ @ 186 NONAME ; class QStringList QAudioDeviceInfo::supportedCodecs(void) const
	?map@QVideoFrame@@QAE_NW4MapMode@QAbstractVideoBuffer@@@Z @ 187 NONAME ; bool QVideoFrame::map(enum QAbstractVideoBuffer::MapMode)
	?tr@QAbstractVideoSurface@@SA?AVQString@@PBD0H@Z @ 188 NONAME ; class QString QAbstractVideoSurface::tr(char const *, char const *, int)
	?periodSize@QAudioInput@@QBEHXZ @ 189 NONAME ; int QAudioInput::periodSize(void) const
	?setFrameRate@QVideoSurfaceFormat@@QAEXM@Z @ 190 NONAME ; void QVideoSurfaceFormat::setFrameRate(float)
	?equivalentImageFormat@QVideoFrame@@SA?AW4Format@QImage@@W4PixelFormat@1@@Z @ 191 NONAME ; enum QImage::Format QVideoFrame::equivalentImageFormat(enum QVideoFrame::PixelFormat)
	?handle@QAudioDeviceInfo@@ABE?AVQByteArray@@XZ @ 192 NONAME ; class QByteArray QAudioDeviceInfo::handle(void) const
	?startedChanged@QAbstractVideoSurface@@IAEX_N@Z @ 193 NONAME ; void QAbstractVideoSurface::startedChanged(bool)
	??0QVideoFrame@@QAE@HABVQSize@@HW4PixelFormat@0@@Z @ 194 NONAME ; QVideoFrame::QVideoFrame(int, class QSize const &, int, enum QVideoFrame::PixelFormat)
	?handle@QAbstractVideoBuffer@@UBE?AVQVariant@@XZ @ 195 NONAME ; class QVariant QAbstractVideoBuffer::handle(void) const
	?handleType@QAbstractVideoBuffer@@QBE?AW4HandleType@1@XZ @ 196 NONAME ; enum QAbstractVideoBuffer::HandleType QAbstractVideoBuffer::handleType(void) const
	?height@QVideoFrame@@QBEHXZ @ 197 NONAME ; int QVideoFrame::height(void) const
	?sampleSize@QAudioFormat@@QBEHXZ @ 198 NONAME ; int QAudioFormat::sampleSize(void) const
	??0QAudioFormat@@QAE@XZ @ 199 NONAME ; QAudioFormat::QAudioFormat(void)
	??0QAbstractVideoBuffer@@QAE@W4HandleType@0@@Z @ 200 NONAME ; QAbstractVideoBuffer::QAbstractVideoBuffer(enum QAbstractVideoBuffer::HandleType)
	??0QAudioDeviceInfo@@AAE@ABVQString@@ABVQByteArray@@W4Mode@QAudio@@@Z @ 201 NONAME ; QAudioDeviceInfo::QAudioDeviceInfo(class QString const &, class QByteArray const &, enum QAudio::Mode)
	?endTime@QVideoFrame@@QBE_JXZ @ 202 NONAME ; long long QVideoFrame::endTime(void) const
	?startTime@QVideoFrame@@QBE_JXZ @ 203 NONAME ; long long QVideoFrame::startTime(void) const
	?defaultOutputDevice@QAudioDeviceInfo@@SA?AV1@XZ @ 204 NONAME ; class QAudioDeviceInfo QAudioDeviceInfo::defaultOutputDevice(void)
	??1QAbstractVideoSurface@@UAE@XZ @ 205 NONAME ; QAbstractVideoSurface::~QAbstractVideoSurface(void)
	?suspend@QAudioOutput@@QAEXXZ @ 206 NONAME ; void QAudioOutput::suspend(void)
	?metaObject@QAudioOutput@@UBEPBUQMetaObject@@XZ @ 207 NONAME ; struct QMetaObject const * QAudioOutput::metaObject(void) const
	?metaObject@QAudioEnginePlugin@@UBEPBUQMetaObject@@XZ @ 208 NONAME ; struct QMetaObject const * QAudioEnginePlugin::metaObject(void) const
	?stateChanged@QAbstractAudioInput@@IAEXW4State@QAudio@@@Z @ 209 NONAME ; void QAbstractAudioInput::stateChanged(enum QAudio::State)
	?bytesPerLine@QVideoFrame@@QBEHXZ @ 210 NONAME ; int QVideoFrame::bytesPerLine(void) const
	?codec@QAudioFormat@@QBE?AVQString@@XZ @ 211 NONAME ; class QString QAudioFormat::codec(void) const
	?metaObject@QAbstractVideoSurface@@UBEPBUQMetaObject@@XZ @ 212 NONAME ; struct QMetaObject const * QAbstractVideoSurface::metaObject(void) const
	?getStaticMetaObject@QAbstractAudioInput@@SAABUQMetaObject@@XZ @ 213 NONAME ; struct QMetaObject const & QAbstractAudioInput::getStaticMetaObject(void)
	??0QMemoryVideoBuffer@@QAE@ABVQByteArray@@H@Z @ 214 NONAME ; QMemoryVideoBuffer::QMemoryVideoBuffer(class QByteArray const &, int)
	?d_func@QAbstractVideoBuffer@@AAEPAVQAbstractVideoBufferPrivate@@XZ @ 215 NONAME ; class QAbstractVideoBufferPrivate * QAbstractVideoBuffer::d_func(void)
	?getStaticMetaObject@QAbstractAudioOutput@@SAABUQMetaObject@@XZ @ 216 NONAME ; struct QMetaObject const & QAbstractAudioOutput::getStaticMetaObject(void)
	??_EQAudioEngineFactoryInterface@@UAE@I@Z @ 217 NONAME ; QAudioEngineFactoryInterface::~QAudioEngineFactoryInterface(unsigned int)
	?trUtf8@QAudioEnginePlugin@@SA?AVQString@@PBD0@Z @ 218 NONAME ; class QString QAudioEnginePlugin::trUtf8(char const *, char const *)
	??0QAbstractVideoSurface@@IAE@AAVQAbstractVideoSurfacePrivate@@PAVQObject@@@Z @ 219 NONAME ; QAbstractVideoSurface::QAbstractVideoSurface(class QAbstractVideoSurfacePrivate &, class QObject *)
	?qt_metacast@QAbstractVideoSurface@@UAEPAXPBD@Z @ 220 NONAME ; void * QAbstractVideoSurface::qt_metacast(char const *)
	?frequency@QAudioFormat@@QBEHXZ @ 221 NONAME ; int QAudioFormat::frequency(void) const
	?map@QImageVideoBuffer@@UAEPAEW4MapMode@QAbstractVideoBuffer@@PAH1@Z @ 222 NONAME ; unsigned char * QImageVideoBuffer::map(enum QAbstractVideoBuffer::MapMode, int *, int *)
	?reset@QAudioInput@@QAEXXZ @ 223 NONAME ; void QAudioInput::reset(void)
	??_EQImageVideoBuffer@@UAE@I@Z @ 224 NONAME ; QImageVideoBuffer::~QImageVideoBuffer(unsigned int)
	?setBufferSize@QAudioInput@@QAEXH@Z @ 225 NONAME ; void QAudioInput::setBufferSize(int)
	?qt_metacast@QAudioEnginePlugin@@UAEPAXPBD@Z @ 226 NONAME ; void * QAudioEnginePlugin::qt_metacast(char const *)
	??1QAudioEngineFactoryInterface@@UAE@XZ @ 227 NONAME ; QAudioEngineFactoryInterface::~QAudioEngineFactoryInterface(void)
	?notify@QAudioOutput@@IAEXXZ @ 228 NONAME ; void QAudioOutput::notify(void)
	?stateChanged@QAudioOutput@@IAEXW4State@QAudio@@@Z @ 229 NONAME ; void QAudioOutput::stateChanged(enum QAudio::State)
	?isStarted@QAbstractVideoSurface@@QBE_NXZ @ 230 NONAME ; bool QAbstractVideoSurface::isStarted(void) const
	??0QAudioDeviceInfo@@QAE@ABV0@@Z @ 231 NONAME ; QAudioDeviceInfo::QAudioDeviceInfo(class QAudioDeviceInfo const &)
	??1QAudioOutput@@UAE@XZ @ 232 NONAME ; QAudioOutput::~QAudioOutput(void)
	?tr@QAudioInput@@SA?AVQString@@PBD0@Z @ 233 NONAME ; class QString QAudioInput::tr(char const *, char const *)
	??_EQAbstractVideoBuffer@@UAE@I@Z @ 234 NONAME ; QAbstractVideoBuffer::~QAbstractVideoBuffer(unsigned int)
	?tr@QAbstractAudioDeviceInfo@@SA?AVQString@@PBD0@Z @ 235 NONAME ; class QString QAbstractAudioDeviceInfo::tr(char const *, char const *)
	??0QAudioInput@@QAE@ABVQAudioFormat@@PAVQObject@@@Z @ 236 NONAME ; QAudioInput::QAudioInput(class QAudioFormat const &, class QObject *)
	?suspend@QAudioInput@@QAEXXZ @ 237 NONAME ; void QAudioInput::suspend(void)
	?qt_metacall@QAbstractVideoSurface@@UAEHW4Call@QMetaObject@@HPAPAX@Z @ 238 NONAME ; int QAbstractVideoSurface::qt_metacall(enum QMetaObject::Call, int, void * *)
	?isValid@QVideoSurfaceFormat@@QBE_NXZ @ 239 NONAME ; bool QVideoSurfaceFormat::isValid(void) const
	?reset@QAudioOutput@@QAEXXZ @ 240 NONAME ; void QAudioOutput::reset(void)
	?defaultInputDevice@QAudioDeviceInfo@@SA?AV1@XZ @ 241 NONAME ; class QAudioDeviceInfo QAudioDeviceInfo::defaultInputDevice(void)
	?metaObject@QAbstractAudioInput@@UBEPBUQMetaObject@@XZ @ 242 NONAME ; struct QMetaObject const * QAbstractAudioInput::metaObject(void) const
	?qt_metacast@QAudioInput@@UAEPAXPBD@Z @ 243 NONAME ; void * QAudioInput::qt_metacast(char const *)
	?frameRate@QVideoSurfaceFormat@@QBEMXZ @ 244 NONAME ; float QVideoSurfaceFormat::frameRate(void) const
	??1QAudioFormat@@QAE@XZ @ 245 NONAME ; QAudioFormat::~QAudioFormat(void)
	?frameWidth@QVideoSurfaceFormat@@QBEHXZ @ 246 NONAME ; int QVideoSurfaceFormat::frameWidth(void) const
	?resume@QAudioOutput@@QAEXXZ @ 247 NONAME ; void QAudioOutput::resume(void)
	?trUtf8@QAudioInput@@SA?AVQString@@PBD0@Z @ 248 NONAME ; class QString QAudioInput::trUtf8(char const *, char const *)
	?getStaticMetaObject@QAudioInput@@SAABUQMetaObject@@XZ @ 249 NONAME ; struct QMetaObject const & QAudioInput::getStaticMetaObject(void)
	?scanLineDirection@QVideoSurfaceFormat@@QBE?AW4Direction@1@XZ @ 250 NONAME ; enum QVideoSurfaceFormat::Direction QVideoSurfaceFormat::scanLineDirection(void) const
	?d_func@QAbstractVideoSurface@@ABEPBVQAbstractVideoSurfacePrivate@@XZ @ 251 NONAME ; class QAbstractVideoSurfacePrivate const * QAbstractVideoSurface::d_func(void) const
	?getStaticMetaObject@QAbstractVideoSurface@@SAABUQMetaObject@@XZ @ 252 NONAME ; struct QMetaObject const & QAbstractVideoSurface::getStaticMetaObject(void)
	??4QVideoFrame@@QAEAAV0@ABV0@@Z @ 253 NONAME ; class QVideoFrame & QVideoFrame::operator=(class QVideoFrame const &)
	?supportedFrequencies@QAudioDeviceInfo@@QBE?AV?$QList@H@@XZ @ 254 NONAME ; class QList<int> QAudioDeviceInfo::supportedFrequencies(void) const
	??1QVideoFrame@@QAE@XZ @ 255 NONAME ; QVideoFrame::~QVideoFrame(void)
	??0QAudioEnginePlugin@@QAE@PAVQObject@@@Z @ 256 NONAME ; QAudioEnginePlugin::QAudioEnginePlugin(class QObject *)
	?notifyInterval@QAudioInput@@QBEHXZ @ 257 NONAME ; int QAudioInput::notifyInterval(void) const
	?channels@QAudioFormat@@QBEHXZ @ 258 NONAME ; int QAudioFormat::channels(void) const
	?metaObject@QAudioInput@@UBEPBUQMetaObject@@XZ @ 259 NONAME ; struct QMetaObject const * QAudioInput::metaObject(void) const
	?surfaceFormatChanged@QAbstractVideoSurface@@IAEXABVQVideoSurfaceFormat@@@Z @ 260 NONAME ; void QAbstractVideoSurface::surfaceFormatChanged(class QVideoSurfaceFormat const &)
	?stateChanged@QAudioInput@@IAEXW4State@QAudio@@@Z @ 261 NONAME ; void QAudioInput::stateChanged(enum QAudio::State)
	??1QAbstractAudioOutput@@UAE@XZ @ 262 NONAME ; QAbstractAudioOutput::~QAbstractAudioOutput(void)
	??8QVideoSurfaceFormat@@QBE_NABV0@@Z @ 263 NONAME ; bool QVideoSurfaceFormat::operator==(class QVideoSurfaceFormat const &) const
	?preferredFormat@QAudioDeviceInfo@@QBE?AVQAudioFormat@@XZ @ 264 NONAME ; class QAudioFormat QAudioDeviceInfo::preferredFormat(void) const
	?qt_metacast@QAbstractAudioOutput@@UAEPAXPBD@Z @ 265 NONAME ; void * QAbstractAudioOutput::qt_metacast(char const *)
	??1QVideoSurfaceFormat@@QAE@XZ @ 266 NONAME ; QVideoSurfaceFormat::~QVideoSurfaceFormat(void)

