EXPORTS
	?setCaCertificates@QSslSocket@@QAEXABV?$QList@VQSslCertificate@@@@@Z @ 1 NONAME ; void QSslSocket::setCaCertificates(class QList<class QSslCertificate> const &)
	?getStaticMetaObject@QUdpSocket@@SAABUQMetaObject@@XZ @ 2 NONAME ; struct QMetaObject const & QUdpSocket::getStaticMetaObject(void)
	?clear@QHostAddress@@QAEXXZ @ 3 NONAME ; void QHostAddress::clear(void)
	??0QHttpHeader@@IAE@AAVQHttpHeaderPrivate@@ABV0@@Z @ 4 NONAME ; QHttpHeader::QHttpHeader(class QHttpHeaderPrivate &, class QHttpHeader const &)
	?setOption@QHttpSocketEngine@@UAE_NW4SocketOption@QAbstractSocketEngine@@H@Z @ 5 NONAME ; bool QHttpSocketEngine::setOption(enum QAbstractSocketEngine::SocketOption, int)
	??0QAbstractNetworkCache@@IAE@AAVQAbstractNetworkCachePrivate@@PAVQObject@@@Z @ 6 NONAME ; QAbstractNetworkCache::QAbstractNetworkCache(class QAbstractNetworkCachePrivate &, class QObject *)
	?sslConfiguration@QNetworkRequest@@QBE?AVQSslConfiguration@@XZ @ 7 NONAME ; class QSslConfiguration QNetworkRequest::sslConfiguration(void) const
	?majorVersion@QHttpResponseHeader@@UBEHXZ @ 8 NONAME ; int QHttpResponseHeader::majorVersion(void) const
	?setCiphers@QSslSocket@@QAEXABVQString@@@Z @ 9 NONAME ; void QSslSocket::setCiphers(class QString const &)
	?qt_metacast@QUdpSocket@@UAEPAXPBD@Z @ 10 NONAME ; void * QUdpSocket::qt_metacast(char const *)
	??0QHttp@@QAE@ABVQString@@GPAVQObject@@@Z @ 11 NONAME ; QHttp::QHttp(class QString const &, unsigned short, class QObject *)
	?scopeId@QHostAddress@@QBE?AVQString@@XZ @ 12 NONAME ; class QString QHostAddress::scopeId(void) const
	?connectionNotification@QNativeSocketEngine@@QAEXXZ @ 13 NONAME ; void QNativeSocketEngine::connectionNotification(void)
	?trUtf8@QNetworkCookieJar@@SA?AVQString@@PBD0@Z @ 14 NONAME ; class QString QNetworkCookieJar::trUtf8(char const *, char const *)
	?setDefaultCaCertificates@QSslSocket@@SAXABV?$QList@VQSslCertificate@@@@@Z @ 15 NONAME ; void QSslSocket::setDefaultCaCertificates(class QList<class QSslCertificate> const &)
	?qt_metacall@QFtp@@UAEHW4Call@QMetaObject@@HPAPAX@Z @ 16 NONAME ; int QFtp::qt_metacall(enum QMetaObject::Call, int, void * *)
	?waitForReadyRead@QLocalSocket@@UAE_NH@Z @ 17 NONAME ; bool QLocalSocket::waitForReadyRead(int)
	?getStaticMetaObject@QLocalSocket@@SAABUQMetaObject@@XZ @ 18 NONAME ; struct QMetaObject const & QLocalSocket::getStaticMetaObject(void)
	?proxy@QAbstractSocket@@QBE?AVQNetworkProxy@@XZ @ 19 NONAME ; class QNetworkProxy QAbstractSocket::proxy(void) const
	?sslErrors@QNetworkAccessManager@@IAEXPAVQNetworkReply@@ABV?$QList@VQSslError@@@@@Z @ 20 NONAME ; void QNetworkAccessManager::sslErrors(class QNetworkReply *, class QList<class QSslError> const &)
	?connected@QLocalSocket@@IAEXXZ @ 21 NONAME ; void QLocalSocket::connected(void)
	?readyRead@QHttp@@IAEXABVQHttpResponseHeader@@@Z @ 22 NONAME ; void QHttp::readyRead(class QHttpResponseHeader const &)
	?currentRequest@QHttp@@QBE?AVQHttpRequestHeader@@XZ @ 23 NONAME ; class QHttpRequestHeader QHttp::currentRequest(void) const
	?trUtf8@QAbstractSocket@@SA?AVQString@@PBD0H@Z @ 24 NONAME ; class QString QAbstractSocket::trUtf8(char const *, char const *, int)
	?setDefaultCiphers@QSslSocket@@SAXABV?$QList@VQSslCipher@@@@@Z @ 25 NONAME ; void QSslSocket::setDefaultCiphers(class QList<class QSslCipher> const &)
	?qt_metacall@QHttpNetworkReply@@UAEHW4Call@QMetaObject@@HPAPAX@Z @ 26 NONAME ; int QHttpNetworkReply::qt_metacall(enum QMetaObject::Call, int, void * *)
	??0QSslConfiguration@@AAE@PAVQSslConfigurationPrivate@@@Z @ 27 NONAME ; QSslConfiguration::QSslConfiguration(class QSslConfigurationPrivate *)
	?effectiveDate@QSslCertificate@@QBE?AVQDateTime@@XZ @ 28 NONAME ; class QDateTime QSslCertificate::effectiveDate(void) const
	?isValid@QNativeSocketEngine@@UBE_NXZ @ 29 NONAME ; bool QNativeSocketEngine::isValid(void) const
	?trUtf8@QAbstractSocketEngine@@SA?AVQString@@PBD0H@Z @ 30 NONAME ; class QString QAbstractSocketEngine::trUtf8(char const *, char const *, int)
	?tr@QTcpSocket@@SA?AVQString@@PBD0H@Z @ 31 NONAME ; class QString QTcpSocket::tr(char const *, char const *, int)
	??1QHostInfo@@QAE@XZ @ 32 NONAME ; QHostInfo::~QHostInfo(void)
	?waitForWrite@QNativeSocketEngine@@UAE_NHPA_N@Z @ 33 NONAME ; bool QNativeSocketEngine::waitForWrite(int, bool *)
	?d_func@QHttpHeader@@ABEPBVQHttpHeaderPrivate@@XZ @ 34 NONAME ; class QHttpHeaderPrivate const * QHttpHeader::d_func(void) const
	?setRawHeader@QNetworkRequest@@QAEXABVQByteArray@@0@Z @ 35 NONAME ; void QNetworkRequest::setRawHeader(class QByteArray const &, class QByteArray const &)
	?setError@QAbstractSocketEngine@@IBEXW4SocketError@QAbstractSocket@@ABVQString@@@Z @ 36 NONAME ; void QAbstractSocketEngine::setError(enum QAbstractSocket::SocketError, class QString const &) const
	?currentCommand@QFtp@@QBE?AW4Command@1@XZ @ 37 NONAME ; enum QFtp::Command QFtp::currentCommand(void) const
	?ciphers@QSslSocket@@QBE?AV?$QList@VQSslCipher@@@@XZ @ 38 NONAME ; class QList<class QSslCipher> QSslSocket::ciphers(void) const
	?socketType@QAbstractSocketEngine@@QBE?AW4SocketType@QAbstractSocket@@XZ @ 39 NONAME ; enum QAbstractSocket::SocketType QAbstractSocketEngine::socketType(void) const
	?emitWriteNotification@QHttpSocketEngine@@AAEXXZ @ 40 NONAME ; void QHttpSocketEngine::emitWriteNotification(void)
	?removeServer@QLocalServer@@SA_NABVQString@@@Z @ 41 NONAME ; bool QLocalServer::removeServer(class QString const &)
	?path@QNetworkCookie@@QBE?AVQString@@XZ @ 42 NONAME ; class QString QNetworkCookie::path(void) const
	?setReadBufferSize@QLocalSocket@@QAEX_J@Z @ 43 NONAME ; void QLocalSocket::setReadBufferSize(long long)
	?socketDescriptor@QLocalSocket@@QBEIXZ @ 44 NONAME ; unsigned int QLocalSocket::socketDescriptor(void) const
	?qt_metacall@QNetworkAccessManager@@UAEHW4Call@QMetaObject@@HPAPAX@Z @ 45 NONAME ; int QNetworkAccessManager::qt_metacall(enum QMetaObject::Call, int, void * *)
	?addCaCertificates@QSslSocket@@QAE_NABVQString@@W4EncodingFormat@QSsl@@W4PatternSyntax@QRegExp@@@Z @ 46 NONAME ; bool QSslSocket::addCaCertificates(class QString const &, enum QSsl::EncodingFormat, enum QRegExp::PatternSyntax)
	?isInSubnet@QHostAddress@@QBE_NABV1@H@Z @ 47 NONAME ; bool QHostAddress::isInSubnet(class QHostAddress const &, int) const
	??8QNetworkProxyQuery@@QBE_NABV0@@Z @ 48 NONAME ; bool QNetworkProxyQuery::operator==(class QNetworkProxyQuery const &) const
	?slotSocketStateChanged@QHttpSocketEngine@@QAEXW4SocketState@QAbstractSocket@@@Z @ 49 NONAME ; void QHttpSocketEngine::slotSocketStateChanged(enum QAbstractSocket::SocketState)
	?newConnection@QLocalServer@@IAEXXZ @ 50 NONAME ; void QLocalServer::newConnection(void)
	??4QNetworkCacheMetaData@@QAEAAV0@ABV0@@Z @ 51 NONAME ; class QNetworkCacheMetaData & QNetworkCacheMetaData::operator=(class QNetworkCacheMetaData const &)
	?setRequest@QHttpNetworkReply@@QAEXABVQHttpNetworkRequest@@@Z @ 52 NONAME ; void QHttpNetworkReply::setRequest(class QHttpNetworkRequest const &)
	?metaObject@QHttpNetworkConnection@@UBEPBUQMetaObject@@XZ @ 53 NONAME ; struct QMetaObject const * QHttpNetworkConnection::metaObject(void) const
	?authenticationRequired@QNetworkAccessManager@@IAEXPAVQNetworkReply@@PAVQAuthenticator@@@Z @ 54 NONAME ; void QNetworkAccessManager::authenticationRequired(class QNetworkReply *, class QAuthenticator *)
	?trUtf8@QTcpSocket@@SA?AVQString@@PBD0H@Z @ 55 NONAME ; class QString QTcpSocket::trUtf8(char const *, char const *, int)
	?setProtocol@QSslSocket@@QAEXW4SslProtocol@QSsl@@@Z @ 56 NONAME ; void QSslSocket::setProtocol(enum QSsl::SslProtocol)
	?atEnd@QSslSocket@@UBE_NXZ @ 57 NONAME ; bool QSslSocket::atEnd(void) const
	?staticMetaObject@QTcpServer@@2UQMetaObject@@B @ 58 NONAME ; struct QMetaObject const QTcpServer::staticMetaObject
	?publicKey@QSslCertificate@@QBE?AVQSslKey@@XZ @ 59 NONAME ; class QSslKey QSslCertificate::publicKey(void) const
	?bytesToWrite@QAbstractSocket@@UBE_JXZ @ 60 NONAME ; long long QAbstractSocket::bytesToWrite(void) const
	?setCookiesFromUrl@QNetworkCookieJar@@UAE_NABV?$QList@VQNetworkCookie@@@@ABVQUrl@@@Z @ 61 NONAME ; bool QNetworkCookieJar::setCookiesFromUrl(class QList<class QNetworkCookie> const &, class QUrl const &)
	?ciphers@QSslConfiguration@@QBE?AV?$QList@VQSslCipher@@@@XZ @ 62 NONAME ; class QList<class QSslCipher> QSslConfiguration::ciphers(void) const
	?certificate@QSslError@@QBE?AVQSslCertificate@@XZ @ 63 NONAME ; class QSslCertificate QSslError::certificate(void) const
	?isInSubnet@QHostAddress@@QBE_NABU?$QPair@VQHostAddress@@H@@@Z @ 64 NONAME ; bool QHostAddress::isInSubnet(struct QPair<class QHostAddress, int> const &) const
	?setPrefixLength@QNetworkAddressEntry@@QAEXH@Z @ 65 NONAME ; void QNetworkAddressEntry::setPrefixLength(int)
	??4QNetworkInterface@@QAEAAV0@ABV0@@Z @ 66 NONAME ; class QNetworkInterface & QNetworkInterface::operator=(class QNetworkInterface const &)
	?readyRead@QHttpNetworkReply@@IAEXXZ @ 67 NONAME ; void QHttpNetworkReply::readyRead(void)
	?staticMetaObject@QLocalServer@@2UQMetaObject@@B @ 68 NONAME ; struct QMetaObject const QLocalServer::staticMetaObject
	?setHeader@QNetworkRequest@@QAEXW4KnownHeaders@1@ABVQVariant@@@Z @ 69 NONAME ; void QNetworkRequest::setHeader(enum QNetworkRequest::KnownHeaders, class QVariant const &)
	?setValues@QHttpHeader@@QAEXABV?$QList@U?$QPair@VQString@@V1@@@@@@Z @ 70 NONAME ; void QHttpHeader::setValues(class QList<struct QPair<class QString, class QString> > const &)
	?setSocket@QHttp@@QAEHPAVQTcpSocket@@@Z @ 71 NONAME ; int QHttp::setSocket(class QTcpSocket *)
	?error@QAbstractSocketEngine@@QBE?AW4SocketError@QAbstractSocket@@XZ @ 72 NONAME ; enum QAbstractSocket::SocketError QAbstractSocketEngine::error(void) const
	?setProxyFactory@QNetworkAccessManager@@QAEXPAVQNetworkProxyFactory@@@Z @ 73 NONAME ; void QNetworkAccessManager::setProxyFactory(class QNetworkProxyFactory *)
	?emitPendingReadNotification@QHttpSocketEngine@@AAEXXZ @ 74 NONAME ; void QHttpSocketEngine::emitPendingReadNotification(void)
	?atEnd@QAbstractSocket@@UBE_NXZ @ 75 NONAME ; bool QAbstractSocket::atEnd(void) const
	?read@QNativeSocketEngine@@UAE_JPAD_J@Z @ 76 NONAME ; long long QNativeSocketEngine::read(char *, long long)
	?abort@QSslSocket@@QAEXXZ @ 77 NONAME ; void QSslSocket::abort(void)
	?stateChanged@QAbstractSocket@@IAEXW4SocketState@1@@Z @ 78 NONAME ; void QAbstractSocket::stateChanged(enum QAbstractSocket::SocketState)
	?currentDestinationDevice@QHttp@@QBEPAVQIODevice@@XZ @ 79 NONAME ; class QIODevice * QHttp::currentDestinationDevice(void) const
	?waitForWrite@QSocks5SocketEngine@@UAE_NHPA_N@Z @ 80 NONAME ; bool QSocks5SocketEngine::waitForWrite(int, bool *)
	?d_func@QNetworkAccessManager@@ABEPBVQNetworkAccessManagerPrivate@@XZ @ 81 NONAME ; class QNetworkAccessManagerPrivate const * QNetworkAccessManager::d_func(void) const
	?isListening@QLocalServer@@QBE_NXZ @ 82 NONAME ; bool QLocalServer::isListening(void) const
	?serverPort@QTcpServer@@QBEGXZ @ 83 NONAME ; unsigned short QTcpServer::serverPort(void) const
	?setMaximumCacheSize@QNetworkDiskCache@@QAEX_J@Z @ 84 NONAME ; void QNetworkDiskCache::setMaximumCacheSize(long long)
	?dataReadProgress@QHttp@@IAEXHH@Z @ 85 NONAME ; void QHttp::dataReadProgress(int, int)
	?initialize@QHttpSocketEngine@@UAE_NHW4SocketState@QAbstractSocket@@@Z @ 86 NONAME ; bool QHttpSocketEngine::initialize(int, enum QAbstractSocket::SocketState)
	?waitForBytesWritten@QLocalSocket@@UAE_NH@Z @ 87 NONAME ; bool QLocalSocket::waitForBytesWritten(int)
	?slotSocketConnected@QHttpSocketEngine@@QAEXXZ @ 88 NONAME ; void QHttpSocketEngine::slotSocketConnected(void)
	?humanReadableName@QNetworkInterface@@QBE?AVQString@@XZ @ 89 NONAME ; class QString QNetworkInterface::humanReadableName(void) const
	??0QHostAddress@@QAE@W4SpecialAddress@0@@Z @ 90 NONAME ; QHostAddress::QHostAddress(enum QHostAddress::SpecialAddress)
	?put@QNetworkAccessManager@@QAEPAVQNetworkReply@@ABVQNetworkRequest@@PAVQIODevice@@@Z @ 91 NONAME ; class QNetworkReply * QNetworkAccessManager::put(class QNetworkRequest const &, class QIODevice *)
	?setError@QNetworkReply@@IAEXW4NetworkError@1@ABVQString@@@Z @ 92 NONAME ; void QNetworkReply::setError(enum QNetworkReply::NetworkError, class QString const &)
	?url@QNetworkReply@@QBE?AVQUrl@@XZ @ 93 NONAME ; class QUrl QNetworkReply::url(void) const
	?port@QHttpNetworkConnection@@QBEGXZ @ 94 NONAME ; unsigned short QHttpNetworkConnection::port(void) const
	?setAddress@QHostAddress@@QAEXPBUsockaddr@@@Z @ 95 NONAME ; void QHostAddress::setAddress(struct sockaddr const *)
	?setUser@QAuthenticator@@QAEXABVQString@@@Z @ 96 NONAME ; void QAuthenticator::setUser(class QString const &)
	?setCapabilities@QNetworkProxy@@QAEXV?$QFlags@W4Capability@QNetworkProxy@@@@@Z @ 97 NONAME ; void QNetworkProxy::setCapabilities(class QFlags<enum QNetworkProxy::Capability>)
	??0QSslKey@@QAE@XZ @ 98 NONAME ; QSslKey::QSslKey(void)
	?isReadNotificationEnabled@QNativeSocketEngine@@UBE_NXZ @ 99 NONAME ; bool QNativeSocketEngine::isReadNotificationEnabled(void) const
	?rawCommandReply@QFtp@@IAEXHABVQString@@@Z @ 100 NONAME ; void QFtp::rawCommandReply(int, class QString const &)
	?canReadLine@QSslSocket@@UBE_NXZ @ 101 NONAME ; bool QSslSocket::canReadLine(void) const
	?finishedWithError@QHttpNetworkReply@@IAEXW4NetworkError@QNetworkReply@@ABVQString@@@Z @ 102 NONAME ; void QHttpNetworkReply::finishedWithError(enum QNetworkReply::NetworkError, class QString const &)
	?setPeerAddress@QAbstractSocket@@IAEXABVQHostAddress@@@Z @ 103 NONAME ; void QAbstractSocket::setPeerAddress(class QHostAddress const &)
	?trUtf8@QSocks5SocketEngine@@SA?AVQString@@PBD0@Z @ 104 NONAME ; class QString QSocks5SocketEngine::trUtf8(char const *, char const *)
	??0QHostAddress@@QAE@ABV0@@Z @ 105 NONAME ; QHostAddress::QHostAddress(class QHostAddress const &)
	?allAddresses@QNetworkInterface@@SA?AV?$QList@VQHostAddress@@@@XZ @ 106 NONAME ; class QList<class QHostAddress> QNetworkInterface::allAddresses(void)
	?writeDatagram@QNativeSocketEngine@@UAE_JPBD_JABVQHostAddress@@G@Z @ 107 NONAME ; long long QNativeSocketEngine::writeDatagram(char const *, long long, class QHostAddress const &, unsigned short)
	?version@QSslCertificate@@QBE?AVQByteArray@@XZ @ 108 NONAME ; class QByteArray QSslCertificate::version(void) const
	??0QNetworkCacheMetaData@@QAE@XZ @ 109 NONAME ; QNetworkCacheMetaData::QNetworkCacheMetaData(void)
	?setAttribute@QNetworkReply@@IAEXW4Attribute@QNetworkRequest@@ABVQVariant@@@Z @ 110 NONAME ; void QNetworkReply::setAttribute(enum QNetworkRequest::Attribute, class QVariant const &)
	?qt_metacall@QAbstractSocketEngine@@UAEHW4Call@QMetaObject@@HPAPAX@Z @ 111 NONAME ; int QAbstractSocketEngine::qt_metacall(enum QMetaObject::Call, int, void * *)
	?tr@QTcpServer@@SA?AVQString@@PBD0@Z @ 112 NONAME ; class QString QTcpServer::tr(char const *, char const *)
	?majorVersion@QHttpNetworkReply@@UBEHXZ @ 113 NONAME ; int QHttpNetworkReply::majorVersion(void) const
	?canReadLine@QAbstractSocket@@UBE_NXZ @ 114 NONAME ; bool QAbstractSocket::canReadLine(void) const
	??6@YAAAVQDataStream@@AAV0@ABVQHostAddress@@@Z @ 115 NONAME ; class QDataStream & operator<<(class QDataStream &, class QHostAddress const &)
	??6@YA?AVQDebug@@V0@W4LocalSocketError@QLocalSocket@@@Z @ 116 NONAME ; class QDebug operator<<(class QDebug, enum QLocalSocket::LocalSocketError)
	?read@QSocks5SocketEngine@@UAE_JPAD_J@Z @ 117 NONAME ; long long QSocks5SocketEngine::read(char *, long long)
	?qt_metacast@QTcpSocket@@UAEPAXPBD@Z @ 118 NONAME ; void * QTcpSocket::qt_metacast(char const *)
	?serverName@QLocalSocket@@QBE?AVQString@@XZ @ 119 NONAME ; class QString QLocalSocket::serverName(void) const
	?setExpirationDate@QNetworkCacheMetaData@@QAEXABVQDateTime@@@Z @ 120 NONAME ; void QNetworkCacheMetaData::setExpirationDate(class QDateTime const &)
	?lastResponse@QHttp@@QBE?AVQHttpResponseHeader@@XZ @ 121 NONAME ; class QHttpResponseHeader QHttp::lastResponse(void) const
	?rawHeader@QNetworkReply@@QBE?AVQByteArray@@ABV2@@Z @ 122 NONAME ; class QByteArray QNetworkReply::rawHeader(class QByteArray const &) const
	?clear@QSslCertificate@@QAEXXZ @ 123 NONAME ; void QSslCertificate::clear(void)
	?metaObject@QSslSocket@@UBEPBUQMetaObject@@XZ @ 124 NONAME ; struct QMetaObject const * QSslSocket::metaObject(void) const
	?isExceptionNotificationEnabled@QSocks5SocketEngine@@UBE_NXZ @ 125 NONAME ; bool QSocks5SocketEngine::isExceptionNotificationEnabled(void) const
	?d_func@QAbstractSocket@@AAEPAVQAbstractSocketPrivate@@XZ @ 126 NONAME ; class QAbstractSocketPrivate * QAbstractSocket::d_func(void)
	?readData@QSslSocket@@MAE_JPAD_J@Z @ 127 NONAME ; long long QSslSocket::readData(char *, long long)
	?setRawHeaders@QNetworkCacheMetaData@@QAEXABV?$QList@U?$QPair@VQByteArray@@V1@@@@@@Z @ 128 NONAME ; void QNetworkCacheMetaData::setRawHeaders(class QList<struct QPair<class QByteArray, class QByteArray> > const &)
	?localAddress@QAbstractSocketEngine@@QBE?AVQHostAddress@@XZ @ 129 NONAME ; class QHostAddress QAbstractSocketEngine::localAddress(void) const
	?downloadProgress@QNetworkReply@@IAEX_J0@Z @ 130 NONAME ; void QNetworkReply::downloadProgress(long long, long long)
	?put@QNetworkAccessManager@@QAEPAVQNetworkReply@@ABVQNetworkRequest@@ABVQByteArray@@@Z @ 131 NONAME ; class QNetworkReply * QNetworkAccessManager::put(class QNetworkRequest const &, class QByteArray const &)
	?tr@QLocalServer@@SA?AVQString@@PBD0@Z @ 132 NONAME ; class QString QLocalServer::tr(char const *, char const *)
	?localPort@QAbstractSocket@@QBEGXZ @ 133 NONAME ; unsigned short QAbstractSocket::localPort(void) const
	?setSendBufferSize@QNativeSocketEngine@@QAEX_J@Z @ 134 NONAME ; void QNativeSocketEngine::setSendBufferSize(long long)
	??0QUrlInfo@@QAE@ABVQUrl@@HABVQString@@1_JABVQDateTime@@3_N44444@Z @ 135 NONAME ; QUrlInfo::QUrlInfo(class QUrl const &, int, class QString const &, class QString const &, long long, class QDateTime const &, class QDateTime const &, bool, bool, bool, bool, bool, bool)
	?commandFinished@QFtp@@IAEXH_N@Z @ 136 NONAME ; void QFtp::commandFinished(int, bool)
	??0QHostAddress@@QAE@ABVQIPv6Address@@@Z @ 137 NONAME ; QHostAddress::QHostAddress(class QIPv6Address const &)
	??8QNetworkAddressEntry@@QBE_NABV0@@Z @ 138 NONAME ; bool QNetworkAddressEntry::operator==(class QNetworkAddressEntry const &) const
	??6@YA?AVQDebug@@V0@ABVQHostAddress@@@Z @ 139 NONAME ; class QDebug operator<<(class QDebug, class QHostAddress const &)
	??9QHostAddress@@QBE_NABV0@@Z @ 140 NONAME ; bool QHostAddress::operator!=(class QHostAddress const &) const
	?trUtf8@QNativeSocketEngine@@SA?AVQString@@PBD0H@Z @ 141 NONAME ; class QString QNativeSocketEngine::trUtf8(char const *, char const *, int)
	??8QHostAddress@@QBE_NABV0@@Z @ 142 NONAME ; bool QHostAddress::operator==(class QHostAddress const &) const
	??0QNetworkProxy@@QAE@XZ @ 143 NONAME ; QNetworkProxy::QNetworkProxy(void)
	??_EQAbstractNetworkCache@@UAE@I@Z @ 144 NONAME ; QAbstractNetworkCache::~QAbstractNetworkCache(unsigned int)
	??1QTcpSocket@@UAE@XZ @ 145 NONAME ; QTcpSocket::~QTcpSocket(void)
	?d_func@QAbstractNetworkCache@@ABEPBVQAbstractNetworkCachePrivate@@XZ @ 146 NONAME ; class QAbstractNetworkCachePrivate const * QAbstractNetworkCache::d_func(void) const
	??9QSslKey@@QBE_NABV0@@Z @ 147 NONAME ; bool QSslKey::operator!=(class QSslKey const &) const
	?readyRead@QFtp@@IAEXXZ @ 148 NONAME ; void QFtp::readyRead(void)
	??1QNetworkProxyFactory@@UAE@XZ @ 149 NONAME ; QNetworkProxyFactory::~QNetworkProxyFactory(void)
	?dataSendProgress@QHttpNetworkReply@@IAEX_J0@Z @ 150 NONAME ; void QHttpNetworkReply::dataSendProgress(long long, long long)
	?connectToHostByName@QNativeSocketEngine@@UAE_NABVQString@@G@Z @ 151 NONAME ; bool QNativeSocketEngine::connectToHostByName(class QString const &, unsigned short)
	??0QHttpResponseHeader@@QAE@ABVQString@@@Z @ 152 NONAME ; QHttpResponseHeader::QHttpResponseHeader(class QString const &)
	?getStaticMetaObject@QNetworkAccessManager@@SAABUQMetaObject@@XZ @ 153 NONAME ; struct QMetaObject const & QNetworkAccessManager::getStaticMetaObject(void)
	?metaObject@QNetworkReply@@UBEPBUQMetaObject@@XZ @ 154 NONAME ; struct QMetaObject const * QNetworkReply::metaObject(void) const
	?listen@QTcpServer@@QAE_NABVQHostAddress@@G@Z @ 155 NONAME ; bool QTcpServer::listen(class QHostAddress const &, unsigned short)
	??1QHttpRequestHeader@@UAE@XZ @ 156 NONAME ; QHttpRequestHeader::~QHttpRequestHeader(void)
	?writeData@QSslSocket@@MAE_JPBD_J@Z @ 157 NONAME ; long long QSslSocket::writeData(char const *, long long)
	?setUser@QHttp@@QAEHABVQString@@0@Z @ 158 NONAME ; int QHttp::setUser(class QString const &, class QString const &)
	?name@QUrlInfo@@QBE?AVQString@@XZ @ 159 NONAME ; class QString QUrlInfo::name(void) const
	?trUtf8@QUdpSocket@@SA?AVQString@@PBD0@Z @ 160 NONAME ; class QString QUdpSocket::trUtf8(char const *, char const *)
	?setTransferMode@QFtp@@QAEHW4TransferMode@1@@Z @ 161 NONAME ; int QFtp::setTransferMode(enum QFtp::TransferMode)
	??0QHostAddress@@QAE@PAE@Z @ 162 NONAME ; QHostAddress::QHostAddress(unsigned char *)
	?waitForConnected@QAbstractSocket@@QAE_NH@Z @ 163 NONAME ; bool QAbstractSocket::waitForConnected(int)
	?startServerEncryption@QSslSocket@@QAEXXZ @ 164 NONAME ; void QSslSocket::startServerEncryption(void)
	?setRequest@QHttpRequestHeader@@QAEXABVQString@@0HH@Z @ 165 NONAME ; void QHttpRequestHeader::setRequest(class QString const &, class QString const &, int, int)
	?maximumCacheSize@QNetworkDiskCache@@QBE_JXZ @ 166 NONAME ; long long QNetworkDiskCache::maximumCacheSize(void) const
	?tr@QHttpNetworkReply@@SA?AVQString@@PBD0@Z @ 167 NONAME ; class QString QHttpNetworkReply::tr(char const *, char const *)
	?setSocketType@QAbstractSocketEngine@@IAEXW4SocketType@QAbstractSocket@@@Z @ 168 NONAME ; void QAbstractSocketEngine::setSocketType(enum QAbstractSocket::SocketType)
	?close@QHttpSocketEngine@@UAEXXZ @ 169 NONAME ; void QHttpSocketEngine::close(void)
	??1QUdpSocket@@UAE@XZ @ 170 NONAME ; QUdpSocket::~QUdpSocket(void)
	?tr@QTcpServer@@SA?AVQString@@PBD0H@Z @ 171 NONAME ; class QString QTcpServer::tr(char const *, char const *, int)
	?state@QAbstractSocketEngine@@QBE?AW4SocketState@QAbstractSocket@@XZ @ 172 NONAME ; enum QAbstractSocket::SocketState QAbstractSocketEngine::state(void) const
	?d_func@QLocalSocket@@AAEPAVQLocalSocketPrivate@@XZ @ 173 NONAME ; class QLocalSocketPrivate * QLocalSocket::d_func(void)
	?setOwner@QUrlInfo@@UAEXABVQString@@@Z @ 174 NONAME ; void QUrlInfo::setOwner(class QString const &)
	?close@QLocalSocket@@UAEXXZ @ 175 NONAME ; void QLocalSocket::close(void)
	??8QAuthenticator@@QBE_NABV0@@Z @ 176 NONAME ; bool QAuthenticator::operator==(class QAuthenticator const &) const
	?capabilities@QNetworkProxy@@QBE?AV?$QFlags@W4Capability@QNetworkProxy@@@@XZ @ 177 NONAME ; class QFlags<enum QNetworkProxy::Capability> QNetworkProxy::capabilities(void) const
	?waitForNewConnection@QLocalServer@@QAE_NHPA_N@Z @ 178 NONAME ; bool QLocalServer::waitForNewConnection(int, bool *)
	?setLocalCertificate@QSslSocket@@QAEXABVQSslCertificate@@@Z @ 179 NONAME ; void QSslSocket::setLocalCertificate(class QSslCertificate const &)
	??0QSslKey@@QAE@ABVQByteArray@@W4KeyAlgorithm@QSsl@@W4EncodingFormat@3@W4KeyType@3@0@Z @ 180 NONAME ; QSslKey::QSslKey(class QByteArray const &, enum QSsl::KeyAlgorithm, enum QSsl::EncodingFormat, enum QSsl::KeyType, class QByteArray const &)
	?tr@QNetworkAccessManager@@SA?AVQString@@PBD0@Z @ 181 NONAME ; class QString QNetworkAccessManager::tr(char const *, char const *)
	?setIp@QNetworkAddressEntry@@QAEXABVQHostAddress@@@Z @ 182 NONAME ; void QNetworkAddressEntry::setIp(class QHostAddress const &)
	?stateChanged@QHttp@@IAEXH@Z @ 183 NONAME ; void QHttp::stateChanged(int)
	?setHttpOnly@QNetworkCookie@@QAEX_N@Z @ 184 NONAME ; void QNetworkCookie::setHttpOnly(bool)
	?url@QNetworkRequest@@QBE?AVQUrl@@XZ @ 185 NONAME ; class QUrl QNetworkRequest::url(void) const
	?cd@QFtp@@QAEHABVQString@@@Z @ 186 NONAME ; int QFtp::cd(class QString const &)
	?attribute@QNetworkRequest@@QBE?AVQVariant@@W4Attribute@1@ABV2@@Z @ 187 NONAME ; class QVariant QNetworkRequest::attribute(enum QNetworkRequest::Attribute, class QVariant const &) const
	?protocol@QSslCipher@@QBE?AW4SslProtocol@QSsl@@XZ @ 188 NONAME ; enum QSsl::SslProtocol QSslCipher::protocol(void) const
	?setHostName@QHostInfo@@QAEXABVQString@@@Z @ 189 NONAME ; void QHostInfo::setHostName(class QString const &)
	??_EQSocks5SocketEngine@@UAE@I@Z @ 190 NONAME ; QSocks5SocketEngine::~QSocks5SocketEngine(unsigned int)
	?setCiphers@QSslSocket@@QAEXABV?$QList@VQSslCipher@@@@@Z @ 191 NONAME ; void QSslSocket::setCiphers(class QList<class QSslCipher> const &)
	?bytesToWrite@QLocalSocket@@UBE_JXZ @ 192 NONAME ; long long QLocalSocket::bytesToWrite(void) const
	?setSize@QUrlInfo@@UAEX_J@Z @ 193 NONAME ; void QUrlInfo::setSize(long long)
	?qt_metacall@QNetworkCookieJar@@UAEHW4Call@QMetaObject@@HPAPAX@Z @ 194 NONAME ; int QNetworkCookieJar::qt_metacall(enum QMetaObject::Call, int, void * *)
	?d_func@QTcpSocket@@ABEPBVQTcpSocketPrivate@@XZ @ 195 NONAME ; class QTcpSocketPrivate const * QTcpSocket::d_func(void) const
	?trUtf8@QHttpSocketEngine@@SA?AVQString@@PBD0H@Z @ 196 NONAME ; class QString QHttpSocketEngine::trUtf8(char const *, char const *, int)
	?socketOption@QAbstractSocket@@QAE?AVQVariant@@W4SocketOption@1@@Z @ 197 NONAME ; class QVariant QAbstractSocket::socketOption(enum QAbstractSocket::SocketOption)
	??0QHostAddress@@QAE@ABVQString@@@Z @ 198 NONAME ; QHostAddress::QHostAddress(class QString const &)
	?d_func@QTcpServer@@ABEPBVQTcpServerPrivate@@XZ @ 199 NONAME ; class QTcpServerPrivate const * QTcpServer::d_func(void) const
	??6@YA?AVQDebug@@V0@ABVQNetworkInterface@@@Z @ 200 NONAME ; class QDebug operator<<(class QDebug, class QNetworkInterface const &)
	?ignoreSslErrors@QSslSocket@@QAEXABV?$QList@VQSslError@@@@@Z @ 201 NONAME ; void QSslSocket::ignoreSslErrors(class QList<class QSslError> const &)
	?trUtf8@QTcpServer@@SA?AVQString@@PBD0H@Z @ 202 NONAME ; class QString QTcpServer::trUtf8(char const *, char const *, int)
	?isNull@QAuthenticator@@QBE_NXZ @ 203 NONAME ; bool QAuthenticator::isNull(void) const
	?writeDatagram@QSocks5SocketEngine@@UAE_JPBD_JABVQHostAddress@@G@Z @ 204 NONAME ; long long QSocks5SocketEngine::writeDatagram(char const *, long long, class QHostAddress const &, unsigned short)
	?rmdir@QFtp@@QAEHABVQString@@@Z @ 205 NONAME ; int QFtp::rmdir(class QString const &)
	?d_func@QHttpResponseHeader@@ABEPBVQHttpResponseHeaderPrivate@@XZ @ 206 NONAME ; class QHttpResponseHeaderPrivate const * QHttpResponseHeader::d_func(void) const
	??8QUrlInfo@@QBE_NABV0@@Z @ 207 NONAME ; bool QUrlInfo::operator==(class QUrlInfo const &) const
	?isSequential@QLocalSocket@@UBE_NXZ @ 208 NONAME ; bool QLocalSocket::isSequential(void) const
	??6@YA?AVQDebug@@V0@ABVQSslError@@@Z @ 209 NONAME ; class QDebug operator<<(class QDebug, class QSslError const &)
	?metaObject@QUdpSocket@@UBEPBUQMetaObject@@XZ @ 210 NONAME ; struct QMetaObject const * QUdpSocket::metaObject(void) const
	?isSequential@QAbstractSocket@@UBE_NXZ @ 211 NONAME ; bool QAbstractSocket::isSequential(void) const
	??1QHttpNetworkRequest@@UAE@XZ @ 212 NONAME ; QHttpNetworkRequest::~QHttpNetworkRequest(void)
	?dataSendProgress@QHttp@@IAEXHH@Z @ 213 NONAME ; void QHttp::dataSendProgress(int, int)
	?createSocketEngine@QSocks5SocketEngineHandler@@UAEPAVQAbstractSocketEngine@@W4SocketType@QAbstractSocket@@ABVQNetworkProxy@@PAVQObject@@@Z @ 214 NONAME ; class QAbstractSocketEngine * QSocks5SocketEngineHandler::createSocketEngine(enum QAbstractSocket::SocketType, class QNetworkProxy const &, class QObject *)
	??0QAbstractNetworkCache@@IAE@PAVQObject@@@Z @ 215 NONAME ; QAbstractNetworkCache::QAbstractNetworkCache(class QObject *)
	?getStaticMetaObject@QLocalServer@@SAABUQMetaObject@@XZ @ 216 NONAME ; struct QMetaObject const & QLocalServer::getStaticMetaObject(void)
	?connectToHostEncrypted@QSslSocket@@QAEXABVQString@@GV?$QFlags@W4OpenModeFlag@QIODevice@@@@@Z @ 217 NONAME ; void QSslSocket::connectToHostEncrypted(class QString const &, unsigned short, class QFlags<enum QIODevice::OpenModeFlag>)
	?isPipeliningAllowed@QHttpNetworkRequest@@QBE_NXZ @ 218 NONAME ; bool QHttpNetworkRequest::isPipeliningAllowed(void) const
	??0QNetworkReply@@IAE@AAVQNetworkReplyPrivate@@PAVQObject@@@Z @ 219 NONAME ; QNetworkReply::QNetworkReply(class QNetworkReplyPrivate &, class QObject *)
	?contentLength@QHttpNetworkRequest@@UBE_JXZ @ 220 NONAME ; long long QHttpNetworkRequest::contentLength(void) const
	?setTransparentProxy@QHttpNetworkConnection@@QAEXABVQNetworkProxy@@@Z @ 221 NONAME ; void QHttpNetworkConnection::setTransparentProxy(class QNetworkProxy const &)
	?serverError@QTcpServer@@QBE?AW4SocketError@QAbstractSocket@@XZ @ 222 NONAME ; enum QAbstractSocket::SocketError QTcpServer::serverError(void) const
	?setProxy@QAbstractSocket@@QAEXABVQNetworkProxy@@@Z @ 223 NONAME ; void QAbstractSocket::setProxy(class QNetworkProxy const &)
	?ignoreSslErrors@QNetworkReply@@UAEXXZ @ 224 NONAME ; void QNetworkReply::ignoreSslErrors(void)
	?waitForReadyRead@QSslSocket@@UAE_NH@Z @ 225 NONAME ; bool QSslSocket::waitForReadyRead(int)
	?subjectInfo@QSslCertificate@@QBE?AVQString@@ABVQByteArray@@@Z @ 226 NONAME ; class QString QSslCertificate::subjectInfo(class QByteArray const &) const
	?setDefaultConfiguration@QSslConfiguration@@SAXABV1@@Z @ 227 NONAME ; void QSslConfiguration::setDefaultConfiguration(class QSslConfiguration const &)
	??0QTcpSocket@@IAE@AAVQTcpSocketPrivate@@PAVQObject@@@Z @ 228 NONAME ; QTcpSocket::QTcpSocket(class QTcpSocketPrivate &, class QObject *)
	?getStaticMetaObject@QSslSocket@@SAABUQMetaObject@@XZ @ 229 NONAME ; struct QMetaObject const & QSslSocket::getStaticMetaObject(void)
	?ignoreSslErrors@QHttpNetworkConnection@@QAEXABV?$QList@VQSslError@@@@H@Z @ 230 NONAME ; void QHttpNetworkConnection::ignoreSslErrors(class QList<class QSslError> const &, int)
	??0QSslCipher@@QAE@ABV0@@Z @ 231 NONAME ; QSslCipher::QSslCipher(class QSslCipher const &)
	?setScopeId@QHostAddress@@QAEXABVQString@@@Z @ 232 NONAME ; void QHostAddress::setScopeId(class QString const &)
	?errorString@QLocalServer@@QBE?AVQString@@XZ @ 233 NONAME ; class QString QLocalServer::errorString(void) const
	?setHeaderField@QHttpNetworkRequest@@UAEXABVQByteArray@@0@Z @ 234 NONAME ; void QHttpNetworkRequest::setHeaderField(class QByteArray const &, class QByteArray const &)
	?d_func@QFtp@@AAEPAVQFtpPrivate@@XZ @ 235 NONAME ; class QFtpPrivate * QFtp::d_func(void)
	??8QNetworkCookie@@QBE_NABV0@@Z @ 236 NONAME ; bool QNetworkCookie::operator==(class QNetworkCookie const &) const
	?pendingDatagramSize@QUdpSocket@@QBE_JXZ @ 237 NONAME ; long long QUdpSocket::pendingDatagramSize(void) const
	?values@QHttpHeader@@QBE?AV?$QList@U?$QPair@VQString@@V1@@@@@XZ @ 238 NONAME ; class QList<struct QPair<class QString, class QString> > QHttpHeader::values(void) const
	?d_func@QUdpSocket@@AAEPAVQUdpSocketPrivate@@XZ @ 239 NONAME ; class QUdpSocketPrivate * QUdpSocket::d_func(void)
	??0QHttpRequestHeader@@QAE@XZ @ 240 NONAME ; QHttpRequestHeader::QHttpRequestHeader(void)
	?trUtf8@QAbstractNetworkCache@@SA?AVQString@@PBD0@Z @ 241 NONAME ; class QString QAbstractNetworkCache::trUtf8(char const *, char const *)
	?setUseSystemConfiguration@QNetworkProxyFactory@@SAX_N@Z @ 242 NONAME ; void QNetworkProxyFactory::setUseSystemConfiguration(bool)
	?setGroup@QUrlInfo@@UAEXABVQString@@@Z @ 243 NONAME ; void QUrlInfo::setGroup(class QString const &)
	?setValid@QHttpHeader@@IAEX_N@Z @ 244 NONAME ; void QHttpHeader::setValid(bool)
	?setHeader@QNetworkReply@@IAEXW4KnownHeaders@QNetworkRequest@@ABVQVariant@@@Z @ 245 NONAME ; void QNetworkReply::setHeader(enum QNetworkRequest::KnownHeaders, class QVariant const &)
	?d_func@QSocks5SocketEngine@@ABEPBVQSocks5SocketEnginePrivate@@XZ @ 246 NONAME ; class QSocks5SocketEnginePrivate const * QSocks5SocketEngine::d_func(void) const
	?metaObject@QHttpNetworkReply@@UBEPBUQMetaObject@@XZ @ 247 NONAME ; struct QMetaObject const * QHttpNetworkReply::metaObject(void) const
	?trUtf8@QLocalSocket@@SA?AVQString@@PBD0H@Z @ 248 NONAME ; class QString QLocalSocket::trUtf8(char const *, char const *, int)
	??6@YA?AVQDebug@@V0@ABVQSslKey@@@Z @ 249 NONAME ; class QDebug operator<<(class QDebug, class QSslKey const &)
	?usedBits@QSslCipher@@QBEHXZ @ 250 NONAME ; int QSslCipher::usedBits(void) const
	?isEncrypted@QHttpNetworkConnection@@QBE_NXZ @ 251 NONAME ; bool QHttpNetworkConnection::isEncrypted(void) const
	?request@QHttp@@QAEHABVQHttpRequestHeader@@PAVQIODevice@@1@Z @ 252 NONAME ; int QHttp::request(class QHttpRequestHeader const &, class QIODevice *, class QIODevice *)
	?reasonPhrase@QHttpResponseHeader@@QBE?AVQString@@XZ @ 253 NONAME ; class QString QHttpResponseHeader::reasonPhrase(void) const
	?clearPendingRequests@QHttp@@QAEXXZ @ 254 NONAME ; void QHttp::clearPendingRequests(void)
	?encryptionMethod@QSslCipher@@QBE?AVQString@@XZ @ 255 NONAME ; class QString QSslCipher::encryptionMethod(void) const
	?metaObject@QNetworkAccessManager@@UBEPBUQMetaObject@@XZ @ 256 NONAME ; struct QMetaObject const * QNetworkAccessManager::metaObject(void) const
	?toIPv4Address@QHostAddress@@QBEIXZ @ 257 NONAME ; unsigned int QHostAddress::toIPv4Address(void) const
	?bind@QUdpSocket@@QAE_NGV?$QFlags@W4BindFlag@QUdpSocket@@@@@Z @ 258 NONAME ; bool QUdpSocket::bind(unsigned short, class QFlags<enum QUdpSocket::BindFlag>)
	?setLocalCertificate@QSslConfiguration@@QAEXABVQSslCertificate@@@Z @ 259 NONAME ; void QSslConfiguration::setLocalCertificate(class QSslCertificate const &)
	?parseCookies@QNetworkCookie@@SA?AV?$QList@VQNetworkCookie@@@@ABVQByteArray@@@Z @ 260 NONAME ; class QList<class QNetworkCookie> QNetworkCookie::parseCookies(class QByteArray const &)
	?flush@QAbstractSocket@@QAE_NXZ @ 261 NONAME ; bool QAbstractSocket::flush(void)
	?staticMetaObject@QSslSocket@@2UQMetaObject@@B @ 262 NONAME ; struct QMetaObject const QSslSocket::staticMetaObject
	?setHost@QHttp@@QAEHABVQString@@G@Z @ 263 NONAME ; int QHttp::setHost(class QString const &, unsigned short)
	?netmask@QNetworkAddressEntry@@QBE?AVQHostAddress@@XZ @ 264 NONAME ; class QHostAddress QNetworkAddressEntry::netmask(void) const
	?bytesAvailable@QHttpSocketEngine@@UBE_JXZ @ 265 NONAME ; long long QHttpSocketEngine::bytesAvailable(void) const
	?qt_metacast@QNetworkAccessManager@@UAEPAXPBD@Z @ 266 NONAME ; void * QNetworkAccessManager::qt_metacast(char const *)
	?put@QFtp@@QAEHABVQByteArray@@ABVQString@@W4TransferType@1@@Z @ 267 NONAME ; int QFtp::put(class QByteArray const &, class QString const &, enum QFtp::TransferType)
	??0QHostInfo@@QAE@ABV0@@Z @ 268 NONAME ; QHostInfo::QHostInfo(class QHostInfo const &)
	?setUrl@QHttpNetworkReply@@UAEXABVQUrl@@@Z @ 269 NONAME ; void QHttpNetworkReply::setUrl(class QUrl const &)
	?value@QHttpHeader@@QBE?AVQString@@ABV2@@Z @ 270 NONAME ; class QString QHttpHeader::value(class QString const &) const
	?deleteResource@QNetworkAccessManager@@QAEPAVQNetworkReply@@ABVQNetworkRequest@@@Z @ 271 NONAME ; class QNetworkReply * QNetworkAccessManager::deleteResource(class QNetworkRequest const &)
	??6@YAAAVQDataStream@@AAV0@ABVQNetworkCacheMetaData@@@Z @ 272 NONAME ; class QDataStream & operator<<(class QDataStream &, class QNetworkCacheMetaData const &)
	?setContentLength@QHttpNetworkRequest@@UAEX_J@Z @ 273 NONAME ; void QHttpNetworkRequest::setContentLength(long long)
	?staticMetaObject@QNetworkReply@@2UQMetaObject@@B @ 274 NONAME ; struct QMetaObject const QNetworkReply::staticMetaObject
	??0QSocks5SocketEngine@@QAE@PAVQObject@@@Z @ 275 NONAME ; QSocks5SocketEngine::QSocks5SocketEngine(class QObject *)
	?originatingObject@QNetworkRequest@@QBEPAVQObject@@XZ @ 276 NONAME ; class QObject * QNetworkRequest::originatingObject(void) const
	?errorString@QTcpServer@@QBE?AVQString@@XZ @ 277 NONAME ; class QString QTcpServer::errorString(void) const
	?d_func@QHttpNetworkReply@@AAEPAVQHttpNetworkReplyPrivate@@XZ @ 278 NONAME ; class QHttpNetworkReplyPrivate * QHttpNetworkReply::d_func(void)
	?tr@QHttpSocketEngine@@SA?AVQString@@PBD0H@Z @ 279 NONAME ; class QString QHttpSocketEngine::tr(char const *, char const *, int)
	?setHostName@QNetworkProxy@@QAEXABVQString@@@Z @ 280 NONAME ; void QNetworkProxy::setHostName(class QString const &)
	?proxy@QTcpServer@@QBE?AVQNetworkProxy@@XZ @ 281 NONAME ; class QNetworkProxy QTcpServer::proxy(void) const
	??9QNetworkProxy@@QBE_NABV0@@Z @ 282 NONAME ; bool QNetworkProxy::operator!=(class QNetworkProxy const &) const
	?initialize@QNativeSocketEngine@@UAE_NW4SocketType@QAbstractSocket@@W4NetworkLayerProtocol@3@@Z @ 283 NONAME ; bool QNativeSocketEngine::initialize(enum QAbstractSocket::SocketType, enum QAbstractSocket::NetworkLayerProtocol)
	??0QNetworkAccessManager@@QAE@PAVQObject@@@Z @ 284 NONAME ; QNetworkAccessManager::QNetworkAccessManager(class QObject *)
	?addCaCertificate@QSslSocket@@QAEXABVQSslCertificate@@@Z @ 285 NONAME ; void QSslSocket::addCaCertificate(class QSslCertificate const &)
	?setSocketDescriptor@QSslSocket@@QAE_NHW4SocketState@QAbstractSocket@@V?$QFlags@W4OpenModeFlag@QIODevice@@@@@Z @ 286 NONAME ; bool QSslSocket::setSocketDescriptor(int, enum QAbstractSocket::SocketState, class QFlags<enum QIODevice::OpenModeFlag>)
	?allInterfaces@QNetworkInterface@@SA?AV?$QList@VQNetworkInterface@@@@XZ @ 287 NONAME ; class QList<class QNetworkInterface> QNetworkInterface::allInterfaces(void)
	?read@QHttp@@QAE_JPAD_J@Z @ 288 NONAME ; long long QHttp::read(char *, long long)
	?qt_metacast@QHttp@@UAEPAXPBD@Z @ 289 NONAME ; void * QHttp::qt_metacast(char const *)
	?expire@QNetworkDiskCache@@MAE_JXZ @ 290 NONAME ; long long QNetworkDiskCache::expire(void)
	?waitForRead@QNativeSocketEngine@@UAE_NHPA_N@Z @ 291 NONAME ; bool QNativeSocketEngine::waitForRead(int, bool *)
	?socketDescriptor@QTcpServer@@QBEHXZ @ 292 NONAME ; int QTcpServer::socketDescriptor(void) const
	?proxyForQuery@QNetworkProxyFactory@@SA?AV?$QList@VQNetworkProxy@@@@ABVQNetworkProxyQuery@@@Z @ 293 NONAME ; class QList<class QNetworkProxy> QNetworkProxyFactory::proxyForQuery(class QNetworkProxyQuery const &)
	?waitForBytesWritten@QSslSocket@@UAE_NH@Z @ 294 NONAME ; bool QSslSocket::waitForBytesWritten(int)
	?trUtf8@QFtp@@SA?AVQString@@PBD0@Z @ 295 NONAME ; class QString QFtp::trUtf8(char const *, char const *)
	?d_func@QHttp@@AAEPAVQHttpPrivate@@XZ @ 296 NONAME ; class QHttpPrivate * QHttp::d_func(void)
	?setPriority@QHttpNetworkRequest@@QAEXW4Priority@1@@Z @ 297 NONAME ; void QHttpNetworkRequest::setPriority(enum QHttpNetworkRequest::Priority)
	?bytesAvailable@QSocks5SocketEngine@@UBE_JXZ @ 298 NONAME ; long long QSocks5SocketEngine::bytesAvailable(void) const
	?setError@QHostInfo@@QAEXW4HostInfoError@1@@Z @ 299 NONAME ; void QHostInfo::setError(enum QHostInfo::HostInfoError)
	?isHttpOnly@QNetworkCookie@@QBE_NXZ @ 300 NONAME ; bool QNetworkCookie::isHttpOnly(void) const
	?bind@QHttpSocketEngine@@UAE_NABVQHostAddress@@G@Z @ 301 NONAME ; bool QHttpSocketEngine::bind(class QHostAddress const &, unsigned short)
	?lastRead@QUrlInfo@@QBE?AVQDateTime@@XZ @ 302 NONAME ; class QDateTime QUrlInfo::lastRead(void) const
	?setProxy@QNetworkAccessManager@@QAEXABVQNetworkProxy@@@Z @ 303 NONAME ; void QNetworkAccessManager::setProxy(class QNetworkProxy const &)
	?metaObject@QNetworkDiskCache@@UBEPBUQMetaObject@@XZ @ 304 NONAME ; struct QMetaObject const * QNetworkDiskCache::metaObject(void) const
	?handle@QSslKey@@QBEKXZ @ 305 NONAME ; unsigned long QSslKey::handle(void) const
	?setDomain@QNetworkCookie@@QAEXABVQString@@@Z @ 306 NONAME ; void QNetworkCookie::setDomain(class QString const &)
	?state@QAbstractSocket@@QBE?AW4SocketState@1@XZ @ 307 NONAME ; enum QAbstractSocket::SocketState QAbstractSocket::state(void) const
	?slotSocketReadNotification@QHttpSocketEngine@@QAEXXZ @ 308 NONAME ; void QHttpSocketEngine::slotSocketReadNotification(void)
	?disconnectFromHost@QAbstractSocket@@QAEXXZ @ 309 NONAME ; void QAbstractSocket::disconnectFromHost(void)
	?waitForNewConnection@QTcpServer@@QAE_NHPA_N@Z @ 310 NONAME ; bool QTcpServer::waitForNewConnection(int, bool *)
	?connectToHost@QAbstractSocket@@QAEXABVQString@@GV?$QFlags@W4OpenModeFlag@QIODevice@@@@@Z @ 311 NONAME ; void QAbstractSocket::connectToHost(class QString const &, unsigned short, class QFlags<enum QIODevice::OpenModeFlag>)
	?statusCode@QHttpResponseHeader@@QBEHXZ @ 312 NONAME ; int QHttpResponseHeader::statusCode(void) const
	?qt_metacast@QSslSocket@@UAEPAXPBD@Z @ 313 NONAME ; void * QSslSocket::qt_metacast(char const *)
	?defaultCaCertificates@QSslSocket@@SA?AV?$QList@VQSslCertificate@@@@XZ @ 314 NONAME ; class QList<class QSslCertificate> QSslSocket::defaultCaCertificates(void)
	?setCacheProxy@QHttpNetworkConnection@@QAEXABVQNetworkProxy@@@Z @ 315 NONAME ; void QHttpNetworkConnection::setCacheProxy(class QNetworkProxy const &)
	?error@QSslError@@QBE?AW4SslError@1@XZ @ 316 NONAME ; enum QSslError::SslError QSslError::error(void) const
	?realm@QAuthenticator@@QBE?AVQString@@XZ @ 317 NONAME ; class QString QAuthenticator::realm(void) const
	?hostName@QHttpNetworkConnection@@QBE?AVQString@@XZ @ 318 NONAME ; class QString QHttpNetworkConnection::hostName(void) const
	?done@QFtp@@IAEX_N@Z @ 319 NONAME ; void QFtp::done(bool)
	?trUtf8@QFtp@@SA?AVQString@@PBD0H@Z @ 320 NONAME ; class QString QFtp::trUtf8(char const *, char const *, int)
	?setFile@QUrlInfo@@UAEX_N@Z @ 321 NONAME ; void QUrlInfo::setFile(bool)
	?setAuthentication@QHttpNetworkConnection@@QAEXABVQString@@PAVQAuthenticator@@@Z @ 322 NONAME ; void QHttpNetworkConnection::setAuthentication(class QString const &, class QAuthenticator *)
	?d_func@QHttpRequestHeader@@ABEPBVQHttpRequestHeaderPrivate@@XZ @ 323 NONAME ; class QHttpRequestHeaderPrivate const * QHttpRequestHeader::d_func(void) const
	??4QHostInfo@@QAEAAV0@ABV0@@Z @ 324 NONAME ; class QHostInfo & QHostInfo::operator=(class QHostInfo const &)
	?proxy@QNetworkAccessManager@@QBE?AVQNetworkProxy@@XZ @ 325 NONAME ; class QNetworkProxy QNetworkAccessManager::proxy(void) const
	?head@QHttp@@QAEHABVQString@@@Z @ 326 NONAME ; int QHttp::head(class QString const &)
	?toString@QHttpResponseHeader@@UBE?AVQString@@XZ @ 327 NONAME ; class QString QHttpResponseHeader::toString(void) const
	?rawHeader@QNetworkRequest@@QBE?AVQByteArray@@ABV2@@Z @ 328 NONAME ; class QByteArray QNetworkRequest::rawHeader(class QByteArray const &) const
	??0QSslKey@@QAE@PAVQIODevice@@W4KeyAlgorithm@QSsl@@W4EncodingFormat@3@W4KeyType@3@ABVQByteArray@@@Z @ 329 NONAME ; QSslKey::QSslKey(class QIODevice *, enum QSsl::KeyAlgorithm, enum QSsl::EncodingFormat, enum QSsl::KeyType, class QByteArray const &)
	??_EQNetworkAccessManager@@UAE@I@Z @ 330 NONAME ; QNetworkAccessManager::~QNetworkAccessManager(unsigned int)
	??_EQNetworkReply@@UAE@I@Z @ 331 NONAME ; QNetworkReply::~QNetworkReply(unsigned int)
	?sslConfiguration@QSslSocket@@QBE?AVQSslConfiguration@@XZ @ 332 NONAME ; class QSslConfiguration QSslSocket::sslConfiguration(void) const
	?setPort@QNetworkProxy@@QAEXG@Z @ 333 NONAME ; void QNetworkProxy::setPort(unsigned short)
	??6@YA?AVQDebug@@V0@W4SocketState@QAbstractSocket@@@Z @ 334 NONAME ; class QDebug operator<<(class QDebug, enum QAbstractSocket::SocketState)
	?setProtocolTag@QNetworkProxyQuery@@QAEXABVQString@@@Z @ 335 NONAME ; void QNetworkProxyQuery::setProtocolTag(class QString const &)
	?parseLine@QHttpResponseHeader@@MAE_NABVQString@@H@Z @ 336 NONAME ; bool QHttpResponseHeader::parseLine(class QString const &, int)
	??0QNetworkRequest@@QAE@ABV0@@Z @ 337 NONAME ; QNetworkRequest::QNetworkRequest(class QNetworkRequest const &)
	??1QHttpHeader@@UAE@XZ @ 338 NONAME ; QHttpHeader::~QHttpHeader(void)
	?nextPendingConnection@QLocalServer@@UAEPAVQLocalSocket@@XZ @ 339 NONAME ; class QLocalSocket * QLocalServer::nextPendingConnection(void)
	?setSaveToDisk@QNetworkCacheMetaData@@QAEX_N@Z @ 340 NONAME ; void QNetworkCacheMetaData::setSaveToDisk(bool)
	?getStaticMetaObject@QSocks5SocketEngine@@SAABUQMetaObject@@XZ @ 341 NONAME ; struct QMetaObject const & QSocks5SocketEngine::getStaticMetaObject(void)
	?setReadNotificationEnabled@QHttpSocketEngine@@UAEX_N@Z @ 342 NONAME ; void QHttpSocketEngine::setReadNotificationEnabled(bool)
	?isExceptionNotificationEnabled@QNativeSocketEngine@@UBE_NXZ @ 343 NONAME ; bool QNativeSocketEngine::isExceptionNotificationEnabled(void) const
	?ignoreSslErrors@QHttpNetworkReply@@QAEXXZ @ 344 NONAME ; void QHttpNetworkReply::ignoreSslErrors(void)
	?setPeerPort@QNetworkProxyQuery@@QAEXH@Z @ 345 NONAME ; void QNetworkProxyQuery::setPeerPort(int)
	?waitForRead@QSocks5SocketEngine@@UAE_NHPA_N@Z @ 346 NONAME ; bool QSocks5SocketEngine::waitForRead(int, bool *)
	?data@QNetworkDiskCache@@UAEPAVQIODevice@@ABVQUrl@@@Z @ 347 NONAME ; class QIODevice * QNetworkDiskCache::data(class QUrl const &)
	?setAllCookies@QNetworkCookieJar@@IAEXABV?$QList@VQNetworkCookie@@@@@Z @ 348 NONAME ; void QNetworkCookieJar::setAllCookies(class QList<class QNetworkCookie> const &)
	?domain@QNetworkCookie@@QBE?AVQString@@XZ @ 349 NONAME ; class QString QNetworkCookie::domain(void) const
	?connectToHostByName@QHttpSocketEngine@@UAE_NABVQString@@G@Z @ 350 NONAME ; bool QHttpSocketEngine::connectToHostByName(class QString const &, unsigned short)
	?qt_metacall@QSslSocket@@UAEHW4Call@QMetaObject@@HPAPAX@Z @ 351 NONAME ; int QSslSocket::qt_metacall(enum QMetaObject::Call, int, void * *)
	?bind@QUdpSocket@@QAE_NABVQHostAddress@@G@Z @ 352 NONAME ; bool QUdpSocket::bind(class QHostAddress const &, unsigned short)
	?setReadBufferSize@QNetworkReply@@UAEX_J@Z @ 353 NONAME ; void QNetworkReply::setReadBufferSize(long long)
	??1QNetworkDiskCache@@UAE@XZ @ 354 NONAME ; QNetworkDiskCache::~QNetworkDiskCache(void)
	?socketType@QAbstractSocket@@QBE?AW4SocketType@1@XZ @ 355 NONAME ; enum QAbstractSocket::SocketType QAbstractSocket::socketType(void) const
	?d_func@QSslSocket@@AAEPAVQSslSocketPrivate@@XZ @ 356 NONAME ; class QSslSocketPrivate * QSslSocket::d_func(void)
	?lookupId@QHostInfo@@QBEHXZ @ 357 NONAME ; int QHostInfo::lookupId(void) const
	?clear@QNetworkDiskCache@@UAEXXZ @ 358 NONAME ; void QNetworkDiskCache::clear(void)
	?privateKey@QSslConfiguration@@QBE?AVQSslKey@@XZ @ 359 NONAME ; class QSslKey QSslConfiguration::privateKey(void) const
	?peerCertificateChain@QSslSocket@@QBE?AV?$QList@VQSslCertificate@@@@XZ @ 360 NONAME ; class QList<class QSslCertificate> QSslSocket::peerCertificateChain(void) const
	?hasRawHeader@QNetworkRequest@@QBE_NABVQByteArray@@@Z @ 361 NONAME ; bool QNetworkRequest::hasRawHeader(class QByteArray const &) const
	?authenticationMethod@QSslCipher@@QBE?AVQString@@XZ @ 362 NONAME ; class QString QSslCipher::authenticationMethod(void) const
	?setName@QNetworkCookie@@QAEXABVQByteArray@@@Z @ 363 NONAME ; void QNetworkCookie::setName(class QByteArray const &)
	?bind@QNativeSocketEngine@@UAE_NABVQHostAddress@@G@Z @ 364 NONAME ; bool QNativeSocketEngine::bind(class QHostAddress const &, unsigned short)
	?setSslConfiguration@QHttpNetworkReply@@QAEXABVQSslConfiguration@@@Z @ 365 NONAME ; void QHttpNetworkReply::setSslConfiguration(class QSslConfiguration const &)
	?isValid@QSslCertificate@@QBE_NXZ @ 366 NONAME ; bool QSslCertificate::isValid(void) const
	?ip@QNetworkAddressEntry@@QBE?AVQHostAddress@@XZ @ 367 NONAME ; class QHostAddress QNetworkAddressEntry::ip(void) const
	?bind@QUdpSocket@@QAE_NG@Z @ 368 NONAME ; bool QUdpSocket::bind(unsigned short)
	?isNull@QSslCertificate@@QBE_NXZ @ 369 NONAME ; bool QSslCertificate::isNull(void) const
	??_EQLocalSocket@@UAE@I@Z @ 370 NONAME ; QLocalSocket::~QLocalSocket(unsigned int)
	?readBufferSize@QLocalSocket@@QBE_JXZ @ 371 NONAME ; long long QLocalSocket::readBufferSize(void) const
	?setPeerHostName@QNetworkProxyQuery@@QAEXABVQString@@@Z @ 372 NONAME ; void QNetworkProxyQuery::setPeerHostName(class QString const &)
	?isEncrypted@QSslSocket@@QBE_NXZ @ 373 NONAME ; bool QSslSocket::isEncrypted(void) const
	?qt_metacast@QNetworkReply@@UAEPAXPBD@Z @ 374 NONAME ; void * QNetworkReply::qt_metacast(char const *)
	?trUtf8@QHttp@@SA?AVQString@@PBD0@Z @ 375 NONAME ; class QString QHttp::trUtf8(char const *, char const *)
	?tr@QAbstractSocketEngine@@SA?AVQString@@PBD0H@Z @ 376 NONAME ; class QString QAbstractSocketEngine::tr(char const *, char const *, int)
	?setUrl@QHttpNetworkRequest@@UAEXABVQUrl@@@Z @ 377 NONAME ; void QHttpNetworkRequest::setUrl(class QUrl const &)
	?d_func@QHttpNetworkReply@@ABEPBVQHttpNetworkReplyPrivate@@XZ @ 378 NONAME ; class QHttpNetworkReplyPrivate const * QHttpNetworkReply::d_func(void) const
	?isFile@QUrlInfo@@QBE_NXZ @ 379 NONAME ; bool QUrlInfo::isFile(void) const
	?emitConnectionNotification@QHttpSocketEngine@@AAEXXZ @ 380 NONAME ; void QHttpSocketEngine::emitConnectionNotification(void)
	?error@QNetworkReply@@QBE?AW4NetworkError@1@XZ @ 381 NONAME ; enum QNetworkReply::NetworkError QNetworkReply::error(void) const
	?addresses@QHostInfo@@QBE?AV?$QList@VQHostAddress@@@@XZ @ 382 NONAME ; class QList<class QHostAddress> QHostInfo::addresses(void) const
	??8QNetworkProxy@@QBE_NABV0@@Z @ 383 NONAME ; bool QNetworkProxy::operator==(class QNetworkProxy const &) const
	?url@QHttpNetworkRequest@@UBE?AVQUrl@@XZ @ 384 NONAME ; class QUrl QHttpNetworkRequest::url(void) const
	?tr@QSocks5SocketEngine@@SA?AVQString@@PBD0H@Z @ 385 NONAME ; class QString QSocks5SocketEngine::tr(char const *, char const *, int)
	?allValues@QHttpHeader@@QBE?AVQStringList@@ABVQString@@@Z @ 386 NONAME ; class QStringList QHttpHeader::allValues(class QString const &) const
	?setOperation@QHttpNetworkRequest@@QAEXW4Operation@1@@Z @ 387 NONAME ; void QHttpNetworkRequest::setOperation(enum QHttpNetworkRequest::Operation)
	?d_func@QFtp@@ABEPBVQFtpPrivate@@XZ @ 388 NONAME ; class QFtpPrivate const * QFtp::d_func(void) const
	?expiryDate@QSslCertificate@@QBE?AVQDateTime@@XZ @ 389 NONAME ; class QDateTime QSslCertificate::expiryDate(void) const
	?createRequest@QNetworkAccessManager@@MAEPAVQNetworkReply@@W4Operation@1@ABVQNetworkRequest@@PAVQIODevice@@@Z @ 390 NONAME ; class QNetworkReply * QNetworkAccessManager::createRequest(enum QNetworkAccessManager::Operation, class QNetworkRequest const &, class QIODevice *)
	?writeDatagram@QHttpSocketEngine@@UAE_JPBD_JABVQHostAddress@@G@Z @ 391 NONAME ; long long QHttpSocketEngine::writeDatagram(char const *, long long, class QHostAddress const &, unsigned short)
	?supportedCiphers@QSslSocket@@SA?AV?$QList@VQSslCipher@@@@XZ @ 392 NONAME ; class QList<class QSslCipher> QSslSocket::supportedCiphers(void)
	?setRequest@QNetworkReply@@IAEXABVQNetworkRequest@@@Z @ 393 NONAME ; void QNetworkReply::setRequest(class QNetworkRequest const &)
	?d_func@QHttpNetworkConnection@@ABEPBVQHttpNetworkConnectionPrivate@@XZ @ 394 NONAME ; class QHttpNetworkConnectionPrivate const * QHttpNetworkConnection::d_func(void) const
	?metaObject@QHttp@@UBEPBUQMetaObject@@XZ @ 395 NONAME ; struct QMetaObject const * QHttp::metaObject(void) const
	??_EQNativeSocketEngine@@UAE@I@Z @ 396 NONAME ; QNativeSocketEngine::~QNativeSocketEngine(unsigned int)
	?close@QSocks5SocketEngine@@UAEXXZ @ 397 NONAME ; void QSocks5SocketEngine::close(void)
	?fullServerName@QLocalSocket@@QBE?AVQString@@XZ @ 398 NONAME ; class QString QLocalSocket::fullServerName(void) const
	?error@QLocalSocket@@QBE?AW4LocalSocketError@1@XZ @ 399 NONAME ; enum QLocalSocket::LocalSocketError QLocalSocket::error(void) const
	?setAddress@QHostAddress@@QAE_NABVQString@@@Z @ 400 NONAME ; bool QHostAddress::setAddress(class QString const &)
	??0QSslCertificate@@QAE@ABV0@@Z @ 401 NONAME ; QSslCertificate::QSslCertificate(class QSslCertificate const &)
	?qt_metacall@QAbstractSocket@@UAEHW4Call@QMetaObject@@HPAPAX@Z @ 402 NONAME ; int QAbstractSocket::qt_metacall(enum QMetaObject::Call, int, void * *)
	?initialize@QSocks5SocketEngine@@UAE_NW4SocketType@QAbstractSocket@@W4NetworkLayerProtocol@3@@Z @ 403 NONAME ; bool QSocks5SocketEngine::initialize(enum QAbstractSocket::SocketType, enum QAbstractSocket::NetworkLayerProtocol)
	?queryType@QNetworkProxyQuery@@QBE?AW4QueryType@1@XZ @ 404 NONAME ; enum QNetworkProxyQuery::QueryType QNetworkProxyQuery::queryType(void) const
	?flush@QLocalSocket@@QAE_NXZ @ 405 NONAME ; bool QLocalSocket::flush(void)
	?qt_metacall@QHttp@@UAEHW4Call@QMetaObject@@HPAPAX@Z @ 406 NONAME ; int QHttp::qt_metacall(enum QMetaObject::Call, int, void * *)
	?operation@QHttpNetworkRequest@@QBE?AW4Operation@1@XZ @ 407 NONAME ; enum QHttpNetworkRequest::Operation QHttpNetworkRequest::operation(void) const
	??9QNetworkProxyQuery@@QBE_NABV0@@Z @ 408 NONAME ; bool QNetworkProxyQuery::operator!=(class QNetworkProxyQuery const &) const
	??0QFtp@@QAE@PAVQObject@@@Z @ 409 NONAME ; QFtp::QFtp(class QObject *)
	?removeValue@QHttpHeader@@QAEXABVQString@@@Z @ 410 NONAME ; void QHttpHeader::removeValue(class QString const &)
	?setQueryType@QNetworkProxyQuery@@QAEXW4QueryType@1@@Z @ 411 NONAME ; void QNetworkProxyQuery::setQueryType(enum QNetworkProxyQuery::QueryType)
	?trUtf8@QLocalServer@@SA?AVQString@@PBD0H@Z @ 412 NONAME ; class QString QLocalServer::trUtf8(char const *, char const *, int)
	?setAttributes@QNetworkCacheMetaData@@QAEXABV?$QHash@W4Attribute@QNetworkRequest@@VQVariant@@@@@Z @ 413 NONAME ; void QNetworkCacheMetaData::setAttributes(class QHash<enum QNetworkRequest::Attribute, class QVariant> const &)
	?canReadLine@QLocalSocket@@UBE_NXZ @ 414 NONAME ; bool QLocalSocket::canReadLine(void) const
	?protocol@QAbstractSocketEngine@@QBE?AW4NetworkLayerProtocol@QAbstractSocket@@XZ @ 415 NONAME ; enum QAbstractSocket::NetworkLayerProtocol QAbstractSocketEngine::protocol(void) const
	??1QTcpServer@@UAE@XZ @ 416 NONAME ; QTcpServer::~QTcpServer(void)
	?connectToServer@QLocalSocket@@QAEXABVQString@@V?$QFlags@W4OpenModeFlag@QIODevice@@@@@Z @ 417 NONAME ; void QLocalSocket::connectToServer(class QString const &, class QFlags<enum QIODevice::OpenModeFlag>)
	?staticMetaObject@QHttpSocketEngine@@2UQMetaObject@@B @ 418 NONAME ; struct QMetaObject const QHttpSocketEngine::staticMetaObject
	?toDer@QSslCertificate@@QBE?AVQByteArray@@XZ @ 419 NONAME ; class QByteArray QSslCertificate::toDer(void) const
	?hasPendingDatagrams@QSocks5SocketEngine@@UBE_NXZ @ 420 NONAME ; bool QSocks5SocketEngine::hasPendingDatagrams(void) const
	?newConnection@QTcpServer@@IAEXXZ @ 421 NONAME ; void QTcpServer::newConnection(void)
	?login@QFtp@@QAEHABVQString@@0@Z @ 422 NONAME ; int QFtp::login(class QString const &, class QString const &)
	?tr@QNativeSocketEngine@@SA?AVQString@@PBD0@Z @ 423 NONAME ; class QString QNativeSocketEngine::tr(char const *, char const *)
	??0QHttpHeader@@QAE@XZ @ 424 NONAME ; QHttpHeader::QHttpHeader(void)
	?url@QHttpNetworkReply@@UBE?AVQUrl@@XZ @ 425 NONAME ; class QUrl QHttpNetworkReply::url(void) const
	?trUtf8@QSslSocket@@SA?AVQString@@PBD0@Z @ 426 NONAME ; class QString QSslSocket::trUtf8(char const *, char const *)
	??4QHttpResponseHeader@@QAEAAV0@ABV0@@Z @ 427 NONAME ; class QHttpResponseHeader & QHttpResponseHeader::operator=(class QHttpResponseHeader const &)
	?toRawForm@QNetworkCookie@@QBE?AVQByteArray@@W4RawForm@1@@Z @ 428 NONAME ; class QByteArray QNetworkCookie::toRawForm(enum QNetworkCookie::RawForm) const
	?get@QHttp@@QAEHABVQString@@PAVQIODevice@@@Z @ 429 NONAME ; int QHttp::get(class QString const &, class QIODevice *)
	?tr@QAbstractSocket@@SA?AVQString@@PBD0H@Z @ 430 NONAME ; class QString QAbstractSocket::tr(char const *, char const *, int)
	?initialize@QNativeSocketEngine@@UAE_NHW4SocketState@QAbstractSocket@@@Z @ 431 NONAME ; bool QNativeSocketEngine::initialize(int, enum QAbstractSocket::SocketState)
	??0QTcpSocket@@QAE@PAVQObject@@@Z @ 432 NONAME ; QTcpSocket::QTcpSocket(class QObject *)
	?setSocketDescriptor@QLocalSocket@@QAE_NIW4LocalSocketState@1@V?$QFlags@W4OpenModeFlag@QIODevice@@@@@Z @ 433 NONAME ; bool QLocalSocket::setSocketDescriptor(unsigned int, enum QLocalSocket::LocalSocketState, class QFlags<enum QIODevice::OpenModeFlag>)
	?connectInternal@QHttpSocketEngine@@QAE_NXZ @ 434 NONAME ; bool QHttpSocketEngine::connectInternal(void)
	?url@QNetworkCacheMetaData@@QBE?AVQUrl@@XZ @ 435 NONAME ; class QUrl QNetworkCacheMetaData::url(void) const
	?setSslConfiguration@QSslSocket@@QAEXABVQSslConfiguration@@@Z @ 436 NONAME ; void QSslSocket::setSslConfiguration(class QSslConfiguration const &)
	??_EQUdpSocket@@UAE@I@Z @ 437 NONAME ; QUdpSocket::~QUdpSocket(unsigned int)
	?isReadNotificationEnabled@QHttpSocketEngine@@UBE_NXZ @ 438 NONAME ; bool QHttpSocketEngine::isReadNotificationEnabled(void) const
	?protocol@QSslSocket@@QBE?AW4SslProtocol@QSsl@@XZ @ 439 NONAME ; enum QSsl::SslProtocol QSslSocket::protocol(void) const
	?setProxy@QHttp@@QAEHABVQString@@H00@Z @ 440 NONAME ; int QHttp::setProxy(class QString const &, int, class QString const &, class QString const &)
	??0QNetworkProxyQuery@@QAE@GABVQString@@W4QueryType@0@@Z @ 441 NONAME ; QNetworkProxyQuery::QNetworkProxyQuery(unsigned short, class QString const &, enum QNetworkProxyQuery::QueryType)
	?trUtf8@QAbstractSocket@@SA?AVQString@@PBD0@Z @ 442 NONAME ; class QString QAbstractSocket::trUtf8(char const *, char const *)
	?stateChanged@QLocalSocket@@IAEXW4LocalSocketState@1@@Z @ 443 NONAME ; void QLocalSocket::stateChanged(enum QLocalSocket::LocalSocketState)
	?isReadable@QUrlInfo@@QBE_NXZ @ 444 NONAME ; bool QUrlInfo::isReadable(void) const
	?enableEncryption@QHttpNetworkConnection@@QAEXXZ @ 445 NONAME ; void QHttpNetworkConnection::enableEncryption(void)
	?getStaticMetaObject@QNetworkDiskCache@@SAABUQMetaObject@@XZ @ 446 NONAME ; struct QMetaObject const & QNetworkDiskCache::getStaticMetaObject(void)
	?peerCertificate@QSslSocket@@QBE?AVQSslCertificate@@XZ @ 447 NONAME ; class QSslCertificate QSslSocket::peerCertificate(void) const
	?setOperation@QNetworkReply@@IAEXW4Operation@QNetworkAccessManager@@@Z @ 448 NONAME ; void QNetworkReply::setOperation(enum QNetworkAccessManager::Operation)
	?attributes@QNetworkCacheMetaData@@QBE?AV?$QHash@W4Attribute@QNetworkRequest@@VQVariant@@@@XZ @ 449 NONAME ; class QHash<enum QNetworkRequest::Attribute, class QVariant> QNetworkCacheMetaData::attributes(void) const
	??1QNetworkAddressEntry@@QAE@XZ @ 450 NONAME ; QNetworkAddressEntry::~QNetworkAddressEntry(void)
	?proxyAuthenticationRequired@QHttp@@IAEXABVQNetworkProxy@@PAVQAuthenticator@@@Z @ 451 NONAME ; void QHttp::proxyAuthenticationRequired(class QNetworkProxy const &, class QAuthenticator *)
	?waitForReadOrWrite@QNativeSocketEngine@@UAE_NPA_N0_N1H0@Z @ 452 NONAME ; bool QNativeSocketEngine::waitForReadOrWrite(bool *, bool *, bool, bool, int, bool *)
	?rawHeaderList@QNetworkReply@@QBE?AV?$QList@VQByteArray@@@@XZ @ 453 NONAME ; class QList<class QByteArray> QNetworkReply::rawHeaderList(void) const
	?trUtf8@QAbstractNetworkCache@@SA?AVQString@@PBD0H@Z @ 454 NONAME ; class QString QAbstractNetworkCache::trUtf8(char const *, char const *, int)
	?authenticationRequired@QHttp@@IAEXABVQString@@GPAVQAuthenticator@@@Z @ 455 NONAME ; void QHttp::authenticationRequired(class QString const &, unsigned short, class QAuthenticator *)
	?getStaticMetaObject@QHttpSocketEngine@@SAABUQMetaObject@@XZ @ 456 NONAME ; struct QMetaObject const & QHttpSocketEngine::getStaticMetaObject(void)
	??_EQHttp@@UAE@I@Z @ 457 NONAME ; QHttp::~QHttp(unsigned int)
	?connectionNotification@QAbstractSocketEngine@@QAEXXZ @ 458 NONAME ; void QAbstractSocketEngine::connectionNotification(void)
	?finished@QNetworkReply@@IAEXXZ @ 459 NONAME ; void QNetworkReply::finished(void)
	?uploadByteDevice@QHttpNetworkRequest@@QBEPAVQNonContiguousByteDevice@@XZ @ 460 NONAME ; class QNonContiguousByteDevice * QHttpNetworkRequest::uploadByteDevice(void) const
	?put@QFtp@@QAEHPAVQIODevice@@ABVQString@@W4TransferType@1@@Z @ 461 NONAME ; int QFtp::put(class QIODevice *, class QString const &, enum QFtp::TransferType)
	?mode@QSslSocket@@QBE?AW4SslMode@1@XZ @ 462 NONAME ; enum QSslSocket::SslMode QSslSocket::mode(void) const
	?setPipeliningAllowed@QHttpNetworkRequest@@QAEX_N@Z @ 463 NONAME ; void QHttpNetworkRequest::setPipeliningAllowed(bool)
	??0QHttpHeader@@IAE@AAVQHttpHeaderPrivate@@ABVQString@@@Z @ 464 NONAME ; QHttpHeader::QHttpHeader(class QHttpHeaderPrivate &, class QString const &)
	??0QNetworkCacheMetaData@@QAE@ABV0@@Z @ 465 NONAME ; QNetworkCacheMetaData::QNetworkCacheMetaData(class QNetworkCacheMetaData const &)
	?permissions@QUrlInfo@@QBEHXZ @ 466 NONAME ; int QUrlInfo::permissions(void) const
	?rawHeaders@QNetworkCacheMetaData@@QBE?AV?$QList@U?$QPair@VQByteArray@@V1@@@@@XZ @ 467 NONAME ; class QList<struct QPair<class QByteArray, class QByteArray> > QNetworkCacheMetaData::rawHeaders(void) const
	?length@QSslKey@@QBEHXZ @ 468 NONAME ; int QSslKey::length(void) const
	??_EQLocalServer@@UAE@I@Z @ 469 NONAME ; QLocalServer::~QLocalServer(unsigned int)
	?setSymLink@QUrlInfo@@UAEX_N@Z @ 470 NONAME ; void QUrlInfo::setSymLink(bool)
	?option@QHttpSocketEngine@@UBEHW4SocketOption@QAbstractSocketEngine@@@Z @ 471 NONAME ; int QHttpSocketEngine::option(enum QAbstractSocketEngine::SocketOption) const
	?allCookies@QNetworkCookieJar@@IBE?AV?$QList@VQNetworkCookie@@@@XZ @ 472 NONAME ; class QList<class QNetworkCookie> QNetworkCookieJar::allCookies(void) const
	??0QAbstractSocket@@QAE@W4SocketType@0@PAVQObject@@@Z @ 473 NONAME ; QAbstractSocket::QAbstractSocket(enum QAbstractSocket::SocketType, class QObject *)
	?setSocketDescriptor@QAbstractSocket@@QAE_NHW4SocketState@1@V?$QFlags@W4OpenModeFlag@QIODevice@@@@@Z @ 474 NONAME ; bool QAbstractSocket::setSocketDescriptor(int, enum QAbstractSocket::SocketState, class QFlags<enum QIODevice::OpenModeFlag>)
	?peerAddress@QAbstractSocketEngine@@QBE?AVQHostAddress@@XZ @ 475 NONAME ; class QHostAddress QAbstractSocketEngine::peerAddress(void) const
	?bytesAvailable@QNativeSocketEngine@@UBE_JXZ @ 476 NONAME ; long long QNativeSocketEngine::bytesAvailable(void) const
	?encryptedBytesToWrite@QSslSocket@@QBE_JXZ @ 477 NONAME ; long long QSslSocket::encryptedBytesToWrite(void) const
	?peerName@QAbstractSocket@@QBE?AVQString@@XZ @ 478 NONAME ; class QString QAbstractSocket::peerName(void) const
	??4QHttpHeader@@QAEAAV0@ABV0@@Z @ 479 NONAME ; class QHttpHeader & QHttpHeader::operator=(class QHttpHeader const &)
	?setSslConfiguration@QHttpNetworkConnection@@QAEXABVQSslConfiguration@@@Z @ 480 NONAME ; void QHttpNetworkConnection::setSslConfiguration(class QSslConfiguration const &)
	?tr@QHttpNetworkConnection@@SA?AVQString@@PBD0H@Z @ 481 NONAME ; class QString QHttpNetworkConnection::tr(char const *, char const *, int)
	??0QNetworkInterface@@QAE@XZ @ 482 NONAME ; QNetworkInterface::QNetworkInterface(void)
	?authenticationRequired@QHttpNetworkConnection@@IAEXABVQHttpNetworkRequest@@PAVQAuthenticator@@PBV1@@Z @ 483 NONAME ; void QHttpNetworkConnection::authenticationRequired(class QHttpNetworkRequest const &, class QAuthenticator *, class QHttpNetworkConnection const *)
	?setContentType@QHttpHeader@@QAEXABVQString@@@Z @ 484 NONAME ; void QHttpHeader::setContentType(class QString const &)
	?headerField@QHttpNetworkRequest@@UBE?AVQByteArray@@ABV2@0@Z @ 485 NONAME ; class QByteArray QHttpNetworkRequest::headerField(class QByteArray const &, class QByteArray const &) const
	??6@YA?AVQDebug@@V0@W4SocketError@QAbstractSocket@@@Z @ 486 NONAME ; class QDebug operator<<(class QDebug, enum QAbstractSocket::SocketError)
	?close@QLocalServer@@QAEXXZ @ 487 NONAME ; void QLocalServer::close(void)
	?staticMetaObject@QAbstractNetworkCache@@2UQMetaObject@@B @ 488 NONAME ; struct QMetaObject const QAbstractNetworkCache::staticMetaObject
	?metaObject@QSocks5SocketEngine@@UBEPBUQMetaObject@@XZ @ 489 NONAME ; struct QMetaObject const * QSocks5SocketEngine::metaObject(void) const
	??_EQNetworkCookieJar@@UAE@I@Z @ 490 NONAME ; QNetworkCookieJar::~QNetworkCookieJar(unsigned int)
	?currentId@QFtp@@QBEHXZ @ 491 NONAME ; int QFtp::currentId(void) const
	?disconnectFromServer@QLocalSocket@@QAEXXZ @ 492 NONAME ; void QLocalSocket::disconnectFromServer(void)
	?setAddress@QHostAddress@@QAEXPAE@Z @ 493 NONAME ; void QHostAddress::setAddress(unsigned char *)
	??0QHostAddress@@QAE@I@Z @ 494 NONAME ; QHostAddress::QHostAddress(unsigned int)
	?user@QNetworkProxy@@QBE?AVQString@@XZ @ 495 NONAME ; class QString QNetworkProxy::user(void) const
	??0QNativeSocketEngine@@QAE@PAVQObject@@@Z @ 496 NONAME ; QNativeSocketEngine::QNativeSocketEngine(class QObject *)
	?incomingConnection@QTcpServer@@MAEXH@Z @ 497 NONAME ; void QTcpServer::incomingConnection(int)
	?mkdir@QFtp@@QAEHABVQString@@@Z @ 498 NONAME ; int QFtp::mkdir(class QString const &)
	?setErrorString@QHttpNetworkReply@@QAEXABVQString@@@Z @ 499 NONAME ; void QHttpNetworkReply::setErrorString(class QString const &)
	?createSocketEngine@QHttpSocketEngineHandler@@UAEPAVQAbstractSocketEngine@@W4SocketType@QAbstractSocket@@ABVQNetworkProxy@@PAVQObject@@@Z @ 500 NONAME ; class QAbstractSocketEngine * QHttpSocketEngineHandler::createSocketEngine(enum QAbstractSocket::SocketType, class QNetworkProxy const &, class QObject *)
	?error@QHostInfo@@QBE?AW4HostInfoError@1@XZ @ 501 NONAME ; enum QHostInfo::HostInfoError QHostInfo::error(void) const
	?setValue@QHttpHeader@@QAEXABVQString@@0@Z @ 502 NONAME ; void QHttpHeader::setValue(class QString const &, class QString const &)
	??AQIPv6Address@@QBEEH@Z @ 503 NONAME ; unsigned char QIPv6Address::operator[](int) const
	??0QSslCertificate@@QAE@PAVQIODevice@@W4EncodingFormat@QSsl@@@Z @ 504 NONAME ; QSslCertificate::QSslCertificate(class QIODevice *, enum QSsl::EncodingFormat)
	?peerVerifyError@QSslSocket@@IAEXABVQSslError@@@Z @ 505 NONAME ; void QSslSocket::peerVerifyError(class QSslError const &)
	?owner@QUrlInfo@@QBE?AVQString@@XZ @ 506 NONAME ; class QString QUrlInfo::owner(void) const
	??0QUrlInfo@@QAE@ABVQString@@H00_JABVQDateTime@@2_N33333@Z @ 507 NONAME ; QUrlInfo::QUrlInfo(class QString const &, int, class QString const &, class QString const &, long long, class QDateTime const &, class QDateTime const &, bool, bool, bool, bool, bool, bool)
	?defaultConfiguration@QSslConfiguration@@SA?AV1@XZ @ 508 NONAME ; class QSslConfiguration QSslConfiguration::defaultConfiguration(void)
	?prepare@QNetworkDiskCache@@UAEPAVQIODevice@@ABVQNetworkCacheMetaData@@@Z @ 509 NONAME ; class QIODevice * QNetworkDiskCache::prepare(class QNetworkCacheMetaData const &)
	?modeChanged@QSslSocket@@IAEXW4SslMode@1@@Z @ 510 NONAME ; void QSslSocket::modeChanged(enum QSslSocket::SslMode)
	?hostName@QHostInfo@@QBE?AVQString@@XZ @ 511 NONAME ; class QString QHostInfo::hostName(void) const
	?addDefaultCaCertificates@QSslSocket@@SA_NABVQString@@W4EncodingFormat@QSsl@@W4PatternSyntax@QRegExp@@@Z @ 512 NONAME ; bool QSslSocket::addDefaultCaCertificates(class QString const &, enum QSsl::EncodingFormat, enum QRegExp::PatternSyntax)
	?connectToHost@QNativeSocketEngine@@UAE_NABVQHostAddress@@G@Z @ 513 NONAME ; bool QNativeSocketEngine::connectToHost(class QHostAddress const &, unsigned short)
	?parseLine@QHttpHeader@@MAE_NABVQString@@H@Z @ 514 NONAME ; bool QHttpHeader::parseLine(class QString const &, int)
	?clearCache@QNetworkAccessManagerPrivate@@SAXPAVQNetworkAccessManager@@@Z @ 515 NONAME ; void QNetworkAccessManagerPrivate::clearCache(class QNetworkAccessManager *)
	?socketDescriptor@QAbstractSocket@@QBEHXZ @ 516 NONAME ; int QAbstractSocket::socketDescriptor(void) const
	?ignoreSslErrors@QHttpNetworkReply@@QAEXABV?$QList@VQSslError@@@@@Z @ 517 NONAME ; void QHttpNetworkReply::ignoreSslErrors(class QList<class QSslError> const &)
	??_EQHttpNetworkRequest@@UAE@I@Z @ 518 NONAME ; QHttpNetworkRequest::~QHttpNetworkRequest(unsigned int)
	?rename@QFtp@@QAEHABVQString@@0@Z @ 519 NONAME ; int QFtp::rename(class QString const &, class QString const &)
	?staticMetaObject@QNetworkDiskCache@@2UQMetaObject@@B @ 520 NONAME ; struct QMetaObject const QNetworkDiskCache::staticMetaObject
	??0QSslError@@QAE@XZ @ 521 NONAME ; QSslError::QSslError(void)
	??9QHostAddress@@QBE_NW4SpecialAddress@0@@Z @ 522 NONAME ; bool QHostAddress::operator!=(enum QHostAddress::SpecialAddress) const
	?post@QNetworkAccessManager@@QAEPAVQNetworkReply@@ABVQNetworkRequest@@ABVQByteArray@@@Z @ 523 NONAME ; class QNetworkReply * QNetworkAccessManager::post(class QNetworkRequest const &, class QByteArray const &)
	?getStaticMetaObject@QTcpSocket@@SAABUQMetaObject@@XZ @ 524 NONAME ; struct QMetaObject const & QTcpSocket::getStaticMetaObject(void)
	?staticMetaObject@QNativeSocketEngine@@2UQMetaObject@@B @ 525 NONAME ; struct QMetaObject const QNativeSocketEngine::staticMetaObject
	??0QAuthenticator@@QAE@XZ @ 526 NONAME ; QAuthenticator::QAuthenticator(void)
	?setMaxPendingConnections@QLocalServer@@QAEXH@Z @ 527 NONAME ; void QLocalServer::setMaxPendingConnections(int)
	?peerPort@QNetworkProxyQuery@@QBEHXZ @ 528 NONAME ; int QNetworkProxyQuery::peerPort(void) const
	?addressEntries@QNetworkInterface@@QBE?AV?$QList@VQNetworkAddressEntry@@@@XZ @ 529 NONAME ; class QList<class QNetworkAddressEntry> QNetworkInterface::addressEntries(void) const
	?staticMetaObject@QAbstractSocket@@2UQMetaObject@@B @ 530 NONAME ; struct QMetaObject const QAbstractSocket::staticMetaObject
	?trUtf8@QHttpNetworkReply@@SA?AVQString@@PBD0@Z @ 531 NONAME ; class QString QHttpNetworkReply::trUtf8(char const *, char const *)
	?d_func@QNativeSocketEngine@@ABEPBVQNativeSocketEnginePrivate@@XZ @ 532 NONAME ; class QNativeSocketEnginePrivate const * QNativeSocketEngine::d_func(void) const
	?hostName@QNetworkProxy@@QBE?AVQString@@XZ @ 533 NONAME ; class QString QNetworkProxy::hostName(void) const
	?peerVerifyDepth@QSslSocket@@QBEHXZ @ 534 NONAME ; int QSslSocket::peerVerifyDepth(void) const
	?setLocalCertificate@QSslSocket@@QAEXABVQString@@W4EncodingFormat@QSsl@@@Z @ 535 NONAME ; void QSslSocket::setLocalCertificate(class QString const &, enum QSsl::EncodingFormat)
	?isValid@QNetworkInterface@@QBE_NXZ @ 536 NONAME ; bool QNetworkInterface::isValid(void) const
	??_EQHttpSocketEngineHandler@@UAE@I@Z @ 537 NONAME ; QHttpSocketEngineHandler::~QHttpSocketEngineHandler(unsigned int)
	??6@YA?AVQDebug@@V0@ABVQSslCertificate@@@Z @ 538 NONAME ; class QDebug operator<<(class QDebug, class QSslCertificate const &)
	??0QLocalSocket@@QAE@PAVQObject@@@Z @ 539 NONAME ; QLocalSocket::QLocalSocket(class QObject *)
	?operation@QNetworkReply@@QBE?AW4Operation@QNetworkAccessManager@@XZ @ 540 NONAME ; enum QNetworkAccessManager::Operation QNetworkReply::operation(void) const
	?stateChanged@QFtp@@IAEXH@Z @ 541 NONAME ; void QFtp::stateChanged(int)
	?equal@QUrlInfo@@SA_NABV1@0H@Z @ 542 NONAME ; bool QUrlInfo::equal(class QUrlInfo const &, class QUrlInfo const &, int)
	?error@QLocalSocket@@IAEXW4LocalSocketError@1@@Z @ 543 NONAME ; void QLocalSocket::error(enum QLocalSocket::LocalSocketError)
	?waitForConnected@QLocalSocket@@QAE_NH@Z @ 544 NONAME ; bool QLocalSocket::waitForConnected(int)
	?setExceptionNotificationEnabled@QNativeSocketEngine@@UAEX_N@Z @ 545 NONAME ; void QNativeSocketEngine::setExceptionNotificationEnabled(bool)
	?trUtf8@QNetworkCookieJar@@SA?AVQString@@PBD0H@Z @ 546 NONAME ; class QString QNetworkCookieJar::trUtf8(char const *, char const *, int)
	?size@QUrlInfo@@QBE_JXZ @ 547 NONAME ; long long QUrlInfo::size(void) const
	?qt_metacast@QFtp@@UAEPAXPBD@Z @ 548 NONAME ; void * QFtp::qt_metacast(char const *)
	?setReadBufferSize@QAbstractSocket@@QAEX_J@Z @ 549 NONAME ; void QAbstractSocket::setReadBufferSize(long long)
	?setPrivateKey@QSslSocket@@QAEXABVQString@@W4KeyAlgorithm@QSsl@@W4EncodingFormat@4@ABVQByteArray@@@Z @ 550 NONAME ; void QSslSocket::setPrivateKey(class QString const &, enum QSsl::KeyAlgorithm, enum QSsl::EncodingFormat, class QByteArray const &)
	??0QHttpHeader@@QAE@ABVQString@@@Z @ 551 NONAME ; QHttpHeader::QHttpHeader(class QString const &)
	?localCertificate@QSslConfiguration@@QBE?AVQSslCertificate@@XZ @ 552 NONAME ; class QSslCertificate QSslConfiguration::localCertificate(void) const
	??0QUrlInfo@@QAE@ABV0@@Z @ 553 NONAME ; QUrlInfo::QUrlInfo(class QUrlInfo const &)
	?fromName@QHostInfo@@SA?AV1@ABVQString@@@Z @ 554 NONAME ; class QHostInfo QHostInfo::fromName(class QString const &)
	?setSocketOption@QSslSocket@@QAEXW4SocketOption@QAbstractSocket@@ABVQVariant@@@Z @ 555 NONAME ; void QSslSocket::setSocketOption(enum QAbstractSocket::SocketOption, class QVariant const &)
	?waitForWrite@QHttpSocketEngine@@UAE_NHPA_N@Z @ 556 NONAME ; bool QHttpSocketEngine::waitForWrite(int, bool *)
	?setWriteNotificationEnabled@QHttpSocketEngine@@UAEX_N@Z @ 557 NONAME ; void QHttpSocketEngine::setWriteNotificationEnabled(bool)
	?initialize@QHttpSocketEngine@@UAE_NW4SocketType@QAbstractSocket@@W4NetworkLayerProtocol@3@@Z @ 558 NONAME ; bool QHttpSocketEngine::initialize(enum QAbstractSocket::SocketType, enum QAbstractSocket::NetworkLayerProtocol)
	??0QHttpResponseHeader@@QAE@ABV0@@Z @ 559 NONAME ; QHttpResponseHeader::QHttpResponseHeader(class QHttpResponseHeader const &)
	?currentSourceDevice@QHttp@@QBEPAVQIODevice@@XZ @ 560 NONAME ; class QIODevice * QHttp::currentSourceDevice(void) const
	??1QHttpNetworkHeader@@UAE@XZ @ 561 NONAME ; QHttpNetworkHeader::~QHttpNetworkHeader(void)
	?isSequential@QNetworkReply@@UBE_NXZ @ 562 NONAME ; bool QNetworkReply::isSequential(void) const
	??0QHttp@@QAE@PAVQObject@@@Z @ 563 NONAME ; QHttp::QHttp(class QObject *)
	?createSocketEngine@QSocks5SocketEngineHandler@@UAEPAVQAbstractSocketEngine@@HPAVQObject@@@Z @ 564 NONAME ; class QAbstractSocketEngine * QSocks5SocketEngineHandler::createSocketEngine(int, class QObject *)
	??0QAbstractSocket@@IAE@W4SocketType@0@AAVQAbstractSocketPrivate@@PAVQObject@@@Z @ 565 NONAME ; QAbstractSocket::QAbstractSocket(enum QAbstractSocket::SocketType, class QAbstractSocketPrivate &, class QObject *)
	?peerCertificate@QSslConfiguration@@QBE?AVQSslCertificate@@XZ @ 566 NONAME ; class QSslCertificate QSslConfiguration::peerCertificate(void) const
	?setPeerVerifyDepth@QSslConfiguration@@QAEXH@Z @ 567 NONAME ; void QSslConfiguration::setPeerVerifyDepth(int)
	??6@YA?AVQDebug@@V0@W4LocalSocketState@QLocalSocket@@@Z @ 568 NONAME ; class QDebug operator<<(class QDebug, enum QLocalSocket::LocalSocketState)
	?setLookupId@QHostInfo@@QAEXH@Z @ 569 NONAME ; void QHostInfo::setLookupId(int)
	?lastModified@QNetworkCacheMetaData@@QBE?AVQDateTime@@XZ @ 570 NONAME ; class QDateTime QNetworkCacheMetaData::lastModified(void) const
	?setSecure@QNetworkCookie@@QAEX_N@Z @ 571 NONAME ; void QNetworkCookie::setSecure(bool)
	??0QSslCipher@@QAE@XZ @ 572 NONAME ; QSslCipher::QSslCipher(void)
	??0QSocketEngineHandler@@IAE@XZ @ 573 NONAME ; QSocketEngineHandler::QSocketEngineHandler(void)
	?rawCommand@QFtp@@QAEHABVQString@@@Z @ 574 NONAME ; int QFtp::rawCommand(class QString const &)
	?listInfo@QFtp@@IAEXABVQUrlInfo@@@Z @ 575 NONAME ; void QFtp::listInfo(class QUrlInfo const &)
	??0QUrlInfo@@QAE@XZ @ 576 NONAME ; QUrlInfo::QUrlInfo(void)
	?getStaticMetaObject@QNetworkReply@@SAABUQMetaObject@@XZ @ 577 NONAME ; struct QMetaObject const & QNetworkReply::getStaticMetaObject(void)
	?bytesAvailable@QSslSocket@@UBE_JXZ @ 578 NONAME ; long long QSslSocket::bytesAvailable(void) const
	?bytesToWrite@QSslSocket@@UBE_JXZ @ 579 NONAME ; long long QSslSocket::bytesToWrite(void) const
	?password@QAuthenticator@@QBE?AVQString@@XZ @ 580 NONAME ; class QString QAuthenticator::password(void) const
	??0QSslError@@QAE@W4SslError@0@ABVQSslCertificate@@@Z @ 581 NONAME ; QSslError::QSslError(enum QSslError::SslError, class QSslCertificate const &)
	?disconnectFromHostImplementation@QSslSocket@@IAEXXZ @ 582 NONAME ; void QSslSocket::disconnectFromHostImplementation(void)
	?qt_metacall@QAbstractNetworkCache@@UAEHW4Call@QMetaObject@@HPAPAX@Z @ 583 NONAME ; int QAbstractNetworkCache::qt_metacall(enum QMetaObject::Call, int, void * *)
	?close@QAbstractSocket@@UAEXXZ @ 584 NONAME ; void QAbstractSocket::close(void)
	?setWritable@QUrlInfo@@UAEX_N@Z @ 585 NONAME ; void QUrlInfo::setWritable(bool)
	??1QHttpResponseHeader@@UAE@XZ @ 586 NONAME ; QHttpResponseHeader::~QHttpResponseHeader(void)
	?isExecutable@QUrlInfo@@QBE_NXZ @ 587 NONAME ; bool QUrlInfo::isExecutable(void) const
	?qt_metacast@QAbstractSocketEngine@@UAEPAXPBD@Z @ 588 NONAME ; void * QAbstractSocketEngine::qt_metacast(char const *)
	?error@QNetworkReply@@IAEXW4NetworkError@1@@Z @ 589 NONAME ; void QNetworkReply::error(enum QNetworkReply::NetworkError)
	??0QSslCipher@@QAE@ABVQString@@W4SslProtocol@QSsl@@@Z @ 590 NONAME ; QSslCipher::QSslCipher(class QString const &, enum QSsl::SslProtocol)
	?getStaticMetaObject@QFtp@@SAABUQMetaObject@@XZ @ 591 NONAME ; struct QMetaObject const & QFtp::getStaticMetaObject(void)
	??9QSslConfiguration@@QBE_NABV0@@Z @ 592 NONAME ; bool QSslConfiguration::operator!=(class QSslConfiguration const &) const
	?hasPendingDatagrams@QNativeSocketEngine@@UBE_NXZ @ 593 NONAME ; bool QNativeSocketEngine::hasPendingDatagrams(void) const
	??4QNetworkAddressEntry@@QAEAAV0@ABV0@@Z @ 594 NONAME ; class QNetworkAddressEntry & QNetworkAddressEntry::operator=(class QNetworkAddressEntry const &)
	?reasonPhrase@QHttpNetworkReply@@QBE?AVQString@@XZ @ 595 NONAME ; class QString QHttpNetworkReply::reasonPhrase(void) const
	??4QUrlInfo@@QAEAAV0@ABV0@@Z @ 596 NONAME ; class QUrlInfo & QUrlInfo::operator=(class QUrlInfo const &)
	??1QNetworkInterface@@QAE@XZ @ 597 NONAME ; QNetworkInterface::~QNetworkInterface(void)
	?d_func@QLocalServer@@ABEPBVQLocalServerPrivate@@XZ @ 598 NONAME ; class QLocalServerPrivate const * QLocalServer::d_func(void) const
	?tr@QHttp@@SA?AVQString@@PBD0H@Z @ 599 NONAME ; class QString QHttp::tr(char const *, char const *, int)
	?nextPendingConnection@QTcpServer@@UAEPAVQTcpSocket@@XZ @ 600 NONAME ; class QTcpSocket * QTcpServer::nextPendingConnection(void)
	?addDefaultCaCertificates@QSslSocket@@SAXABV?$QList@VQSslCertificate@@@@@Z @ 601 NONAME ; void QSslSocket::addDefaultCaCertificates(class QList<class QSslCertificate> const &)
	?qt_metacast@QNetworkDiskCache@@UAEPAXPBD@Z @ 602 NONAME ; void * QNetworkDiskCache::qt_metacast(char const *)
	?setAddress@QHostAddress@@QAEXI@Z @ 603 NONAME ; void QHostAddress::setAddress(unsigned int)
	?index@QNetworkInterface@@QBEHXZ @ 604 NONAME ; int QNetworkInterface::index(void) const
	?pendingDatagramSize@QSocks5SocketEngine@@UBE_JXZ @ 605 NONAME ; long long QSocks5SocketEngine::pendingDatagramSize(void) const
	??1QAbstractSocket@@UAE@XZ @ 606 NONAME ; QAbstractSocket::~QAbstractSocket(void)
	?isValid@QNetworkCacheMetaData@@QBE_NXZ @ 607 NONAME ; bool QNetworkCacheMetaData::isValid(void) const
	?bytesAvailable@QHttp@@QBE_JXZ @ 608 NONAME ; long long QHttp::bytesAvailable(void) const
	?slotSocketDisconnected@QHttpSocketEngine@@QAEXXZ @ 609 NONAME ; void QHttpSocketEngine::slotSocketDisconnected(void)
	?emitPendingWriteNotification@QHttpSocketEngine@@AAEXXZ @ 610 NONAME ; void QHttpSocketEngine::emitPendingWriteNotification(void)
	?qt_metacast@QHttpSocketEngine@@UAEPAXPBD@Z @ 611 NONAME ; void * QHttpSocketEngine::qt_metacast(char const *)
	?tr@QNetworkCookieJar@@SA?AVQString@@PBD0H@Z @ 612 NONAME ; class QString QNetworkCookieJar::tr(char const *, char const *, int)
	?d_func@QHttpNetworkConnection@@AAEPAVQHttpNetworkConnectionPrivate@@XZ @ 613 NONAME ; class QHttpNetworkConnectionPrivate * QHttpNetworkConnection::d_func(void)
	?waitForReadOrWrite@QHttpSocketEngine@@UAE_NPA_N0_N1H0@Z @ 614 NONAME ; bool QHttpSocketEngine::waitForReadOrWrite(bool *, bool *, bool, bool, int, bool *)
	?post@QHttp@@QAEHABVQString@@PAVQIODevice@@1@Z @ 615 NONAME ; int QHttp::post(class QString const &, class QIODevice *, class QIODevice *)
	?parseHeader@QHttpNetworkReply@@QAEXABVQByteArray@@@Z @ 616 NONAME ; void QHttpNetworkReply::parseHeader(class QByteArray const &)
	?isDir@QUrlInfo@@QBE_NXZ @ 617 NONAME ; bool QUrlInfo::isDir(void) const
	?trUtf8@QNetworkReply@@SA?AVQString@@PBD0H@Z @ 618 NONAME ; class QString QNetworkReply::trUtf8(char const *, char const *, int)
	?state@QHttp@@QBE?AW4State@1@XZ @ 619 NONAME ; enum QHttp::State QHttp::state(void) const
	?group@QUrlInfo@@QBE?AVQString@@XZ @ 620 NONAME ; class QString QUrlInfo::group(void) const
	??0QNetworkCookie@@QAE@ABV0@@Z @ 621 NONAME ; QNetworkCookie::QNetworkCookie(class QNetworkCookie const &)
	?close@QNativeSocketEngine@@UAEXXZ @ 622 NONAME ; void QNativeSocketEngine::close(void)
	?dataTransferProgress@QFtp@@IAEX_J0@Z @ 623 NONAME ; void QFtp::dataTransferProgress(long long, long long)
	?accept@QHttpSocketEngine@@UAEHXZ @ 624 NONAME ; int QHttpSocketEngine::accept(void)
	??0QHttpRequestHeader@@QAE@ABV0@@Z @ 625 NONAME ; QHttpRequestHeader::QHttpRequestHeader(class QHttpRequestHeader const &)
	?broadcast@QNetworkAddressEntry@@QBE?AVQHostAddress@@XZ @ 626 NONAME ; class QHostAddress QNetworkAddressEntry::broadcast(void) const
	?fromDevice@QSslCertificate@@SA?AV?$QList@VQSslCertificate@@@@PAVQIODevice@@W4EncodingFormat@QSsl@@@Z @ 627 NONAME ; class QList<class QSslCertificate> QSslCertificate::fromDevice(class QIODevice *, enum QSsl::EncodingFormat)
	?trUtf8@QLocalSocket@@SA?AVQString@@PBD0@Z @ 628 NONAME ; class QString QLocalSocket::trUtf8(char const *, char const *)
	?ignoreSslErrors@QSslSocket@@QAEXXZ @ 629 NONAME ; void QSslSocket::ignoreSslErrors(void)
	?qt_metacast@QAbstractSocket@@UAEPAXPBD@Z @ 630 NONAME ; void * QAbstractSocket::qt_metacast(char const *)
	?sessionCipher@QSslConfiguration@@QBE?AVQSslCipher@@XZ @ 631 NONAME ; class QSslCipher QSslConfiguration::sessionCipher(void) const
	?sslErrors@QHttpNetworkConnection@@IAEXABV?$QList@VQSslError@@@@@Z @ 632 NONAME ; void QHttpNetworkConnection::sslErrors(class QList<class QSslError> const &)
	??0QHttpNetworkRequest@@QAE@ABV0@@Z @ 633 NONAME ; QHttpNetworkRequest::QHttpNetworkRequest(class QHttpNetworkRequest const &)
	??4QSslConfiguration@@QAEAAV0@ABV0@@Z @ 634 NONAME ; class QSslConfiguration & QSslConfiguration::operator=(class QSslConfiguration const &)
	?dataReadProgress@QHttpNetworkReply@@IAEXHH@Z @ 635 NONAME ; void QHttpNetworkReply::dataReadProgress(int, int)
	?tr@QNativeSocketEngine@@SA?AVQString@@PBD0H@Z @ 636 NONAME ; class QString QNativeSocketEngine::tr(char const *, char const *, int)
	?setCookieJar@QNetworkAccessManager@@QAEXPAVQNetworkCookieJar@@@Z @ 637 NONAME ; void QNetworkAccessManager::setCookieJar(class QNetworkCookieJar *)
	?isNull@QSslCipher@@QBE_NXZ @ 638 NONAME ; bool QSslCipher::isNull(void) const
	??0QNetworkReply@@IAE@PAVQObject@@@Z @ 639 NONAME ; QNetworkReply::QNetworkReply(class QObject *)
	?trUtf8@QNetworkReply@@SA?AVQString@@PBD0@Z @ 640 NONAME ; class QString QNetworkReply::trUtf8(char const *, char const *)
	?staticMetaObject@QNetworkCookieJar@@2UQMetaObject@@B @ 641 NONAME ; struct QMetaObject const QNetworkCookieJar::staticMetaObject
	??0QHttpHeader@@QAE@ABV0@@Z @ 642 NONAME ; QHttpHeader::QHttpHeader(class QHttpHeader const &)
	?setSslConfiguration@QNetworkReply@@QAEXABVQSslConfiguration@@@Z @ 643 NONAME ; void QNetworkReply::setSslConfiguration(class QSslConfiguration const &)
	??_EQAbstractSocketEngine@@UAE@I@Z @ 644 NONAME ; QAbstractSocketEngine::~QAbstractSocketEngine(unsigned int)
	?d_func@QNetworkReply@@AAEPAVQNetworkReplyPrivate@@XZ @ 645 NONAME ; class QNetworkReplyPrivate * QNetworkReply::d_func(void)
	??1QLocalSocket@@UAE@XZ @ 646 NONAME ; QLocalSocket::~QLocalSocket(void)
	?setSocketState@QAbstractSocket@@IAEXW4SocketState@1@@Z @ 647 NONAME ; void QAbstractSocket::setSocketState(enum QAbstractSocket::SocketState)
	?hasPendingRequests@QHttp@@QBE_NXZ @ 648 NONAME ; bool QHttp::hasPendingRequests(void) const
	?setReadable@QUrlInfo@@UAEX_N@Z @ 649 NONAME ; void QUrlInfo::setReadable(bool)
	?sslErrors@QSslSocket@@QBE?AV?$QList@VQSslError@@@@XZ @ 650 NONAME ; class QList<class QSslError> QSslSocket::sslErrors(void) const
	??9QAuthenticator@@QBE_NABV0@@Z @ 651 NONAME ; bool QAuthenticator::operator!=(class QAuthenticator const &) const
	?setOption@QSocks5SocketEngine@@UAE_NW4SocketOption@QAbstractSocketEngine@@H@Z @ 652 NONAME ; bool QSocks5SocketEngine::setOption(enum QAbstractSocketEngine::SocketOption, int)
	?setPeerVerifyMode@QSslSocket@@QAEXW4PeerVerifyMode@1@@Z @ 653 NONAME ; void QSslSocket::setPeerVerifyMode(enum QSslSocket::PeerVerifyMode)
	?staticMetaObject@QHttpNetworkConnection@@2UQMetaObject@@B @ 654 NONAME ; struct QMetaObject const QHttpNetworkConnection::staticMetaObject
	??9QSslCipher@@QBE_NABV0@@Z @ 655 NONAME ; bool QSslCipher::operator!=(class QSslCipher const &) const
	?requestFinished@QHttp@@IAEXH_N@Z @ 656 NONAME ; void QHttp::requestFinished(int, bool)
	?setReceiveBufferSize@QNativeSocketEngine@@QAEX_J@Z @ 657 NONAME ; void QNativeSocketEngine::setReceiveBufferSize(long long)
	?setSocketDescriptor@QTcpServer@@QAE_NH@Z @ 658 NONAME ; bool QTcpServer::setSocketDescriptor(int)
	?head@QNetworkAccessManager@@QAEPAVQNetworkReply@@ABVQNetworkRequest@@@Z @ 659 NONAME ; class QNetworkReply * QNetworkAccessManager::head(class QNetworkRequest const &)
	?minorVersion@QHttpNetworkRequest@@UBEHXZ @ 660 NONAME ; int QHttpNetworkRequest::minorVersion(void) const
	??8QSslKey@@QBE_NABV0@@Z @ 661 NONAME ; bool QSslKey::operator==(class QSslKey const &) const
	?tr@QSslSocket@@SA?AVQString@@PBD0H@Z @ 662 NONAME ; class QString QSslSocket::tr(char const *, char const *, int)
	?qt_metacall@QLocalSocket@@UAEHW4Call@QMetaObject@@HPAPAX@Z @ 663 NONAME ; int QLocalSocket::qt_metacall(enum QMetaObject::Call, int, void * *)
	?setValue@QNetworkCookie@@QAEXABVQByteArray@@@Z @ 664 NONAME ; void QNetworkCookie::setValue(class QByteArray const &)
	?addCaCertificates@QSslSocket@@QAEXABV?$QList@VQSslCertificate@@@@@Z @ 665 NONAME ; void QSslSocket::addCaCertificates(class QList<class QSslCertificate> const &)
	?d_func@QNetworkDiskCache@@AAEPAVQNetworkDiskCachePrivate@@XZ @ 666 NONAME ; class QNetworkDiskCachePrivate * QNetworkDiskCache::d_func(void)
	?readAll@QFtp@@QAE?AVQByteArray@@XZ @ 667 NONAME ; class QByteArray QFtp::readAll(void)
	?expirationDate@QNetworkCookie@@QBE?AVQDateTime@@XZ @ 668 NONAME ; class QDateTime QNetworkCookie::expirationDate(void) const
	?issuerInfo@QSslCertificate@@QBE?AVQString@@ABVQByteArray@@@Z @ 669 NONAME ; class QString QSslCertificate::issuerInfo(class QByteArray const &) const
	?metaDataChanged@QNetworkReply@@IAEXXZ @ 670 NONAME ; void QNetworkReply::metaDataChanged(void)
	?writeData@QAbstractSocket@@MAE_JPBD_J@Z @ 671 NONAME ; long long QAbstractSocket::writeData(char const *, long long)
	?bytesAvailable@QFtp@@QBE_JXZ @ 672 NONAME ; long long QFtp::bytesAvailable(void) const
	?setName@QUrlInfo@@UAEXABVQString@@@Z @ 673 NONAME ; void QUrlInfo::setName(class QString const &)
	?connectToHost@QHttpSocketEngine@@UAE_NABVQHostAddress@@G@Z @ 674 NONAME ; bool QHttpSocketEngine::connectToHost(class QHostAddress const &, unsigned short)
	?errorString@QHttpNetworkReply@@QBE?AVQString@@XZ @ 675 NONAME ; class QString QHttpNetworkReply::errorString(void) const
	??6@YA?AVQDebug@@V0@W4SubjectInfo@QSslCertificate@@@Z @ 676 NONAME ; class QDebug operator<<(class QDebug, enum QSslCertificate::SubjectInfo)
	?waitForRead@QHttpSocketEngine@@UAE_NHPA_N@Z @ 677 NONAME ; bool QHttpSocketEngine::waitForRead(int, bool *)
	?minorVersion@QHttpRequestHeader@@UBEHXZ @ 678 NONAME ; int QHttpRequestHeader::minorVersion(void) const
	?setHeaderField@QHttpNetworkReply@@UAEXABVQByteArray@@0@Z @ 679 NONAME ; void QHttpNetworkReply::setHeaderField(class QByteArray const &, class QByteArray const &)
	?setLocalPort@QNetworkProxyQuery@@QAEXH@Z @ 680 NONAME ; void QNetworkProxyQuery::setLocalPort(int)
	?trUtf8@QSslSocket@@SA?AVQString@@PBD0H@Z @ 681 NONAME ; class QString QSslSocket::trUtf8(char const *, char const *, int)
	??4QSslError@@QAEAAV0@ABV0@@Z @ 682 NONAME ; class QSslError & QSslError::operator=(class QSslError const &)
	?writeNotification@QAbstractSocketEngine@@QAEXXZ @ 683 NONAME ; void QAbstractSocketEngine::writeNotification(void)
	??1QUrlInfo@@UAE@XZ @ 684 NONAME ; QUrlInfo::~QUrlInfo(void)
	?write@QHttpSocketEngine@@UAE_JPBD_J@Z @ 685 NONAME ; long long QHttpSocketEngine::write(char const *, long long)
	??1QSslSocket@@UAE@XZ @ 686 NONAME ; QSslSocket::~QSslSocket(void)
	??1QNetworkReply@@UAE@XZ @ 687 NONAME ; QNetworkReply::~QNetworkReply(void)
	?trUtf8@QHttp@@SA?AVQString@@PBD0H@Z @ 688 NONAME ; class QString QHttp::trUtf8(char const *, char const *, int)
	?header@QNetworkReply@@QBE?AVQVariant@@W4KnownHeaders@QNetworkRequest@@@Z @ 689 NONAME ; class QVariant QNetworkReply::header(enum QNetworkRequest::KnownHeaders) const
	?tr@QLocalSocket@@SA?AVQString@@PBD0H@Z @ 690 NONAME ; class QString QLocalSocket::tr(char const *, char const *, int)
	?isRunning@QNetworkReply@@QBE_NXZ @ 691 NONAME ; bool QNetworkReply::isRunning(void) const
	?sendRequest@QHttpNetworkConnection@@QAEPAVQHttpNetworkReply@@ABVQHttpNetworkRequest@@@Z @ 692 NONAME ; class QHttpNetworkReply * QHttpNetworkConnection::sendRequest(class QHttpNetworkRequest const &)
	?tr@QUdpSocket@@SA?AVQString@@PBD0@Z @ 693 NONAME ; class QString QUdpSocket::tr(char const *, char const *)
	?tr@QFtp@@SA?AVQString@@PBD0H@Z @ 694 NONAME ; class QString QFtp::tr(char const *, char const *, int)
	?listen@QLocalServer@@QAE_NABVQString@@@Z @ 695 NONAME ; bool QLocalServer::listen(class QString const &)
	?contentType@QHttpHeader@@QBE?AVQString@@XZ @ 696 NONAME ; class QString QHttpHeader::contentType(void) const
	?createSocketEngine@QHttpSocketEngineHandler@@UAEPAVQAbstractSocketEngine@@HPAVQObject@@@Z @ 697 NONAME ; class QAbstractSocketEngine * QHttpSocketEngineHandler::createSocketEngine(int, class QObject *)
	?clearPendingCommands@QFtp@@QAEXXZ @ 698 NONAME ; void QFtp::clearPendingCommands(void)
	?d_func@QAbstractSocketEngine@@AAEPAVQAbstractSocketEnginePrivate@@XZ @ 699 NONAME ; class QAbstractSocketEnginePrivate * QAbstractSocketEngine::d_func(void)
	?state@QLocalSocket@@QBE?AW4LocalSocketState@1@XZ @ 700 NONAME ; enum QLocalSocket::LocalSocketState QLocalSocket::state(void) const
	?getStaticMetaObject@QNetworkCookieJar@@SAABUQMetaObject@@XZ @ 701 NONAME ; struct QMetaObject const & QNetworkCookieJar::getStaticMetaObject(void)
	?tr@QNetworkDiskCache@@SA?AVQString@@PBD0@Z @ 702 NONAME ; class QString QNetworkDiskCache::tr(char const *, char const *)
	?isNull@QSslKey@@QBE_NXZ @ 703 NONAME ; bool QSslKey::isNull(void) const
	?sslErrors@QHttp@@IAEXABV?$QList@VQSslError@@@@@Z @ 704 NONAME ; void QHttp::sslErrors(class QList<class QSslError> const &)
	?done@QHttp@@IAEX_N@Z @ 705 NONAME ; void QHttp::done(bool)
	?staticMetaObject@QTcpSocket@@2UQMetaObject@@B @ 706 NONAME ; struct QMetaObject const QTcpSocket::staticMetaObject
	??9QNetworkCookie@@QBE_NABV0@@Z @ 707 NONAME ; bool QNetworkCookie::operator!=(class QNetworkCookie const &) const
	?rawHeaderList@QNetworkRequest@@QBE?AV?$QList@VQByteArray@@@@XZ @ 708 NONAME ; class QList<class QByteArray> QNetworkRequest::rawHeaderList(void) const
	?setPeerPort@QAbstractSocketEngine@@IAEXG@Z @ 709 NONAME ; void QAbstractSocketEngine::setPeerPort(unsigned short)
	?trUtf8@QTcpSocket@@SA?AVQString@@PBD0@Z @ 710 NONAME ; class QString QTcpSocket::trUtf8(char const *, char const *)
	?getStaticMetaObject@QAbstractNetworkCache@@SAABUQMetaObject@@XZ @ 711 NONAME ; struct QMetaObject const & QAbstractNetworkCache::getStaticMetaObject(void)
	?trUtf8@QNativeSocketEngine@@SA?AVQString@@PBD0@Z @ 712 NONAME ; class QString QNativeSocketEngine::trUtf8(char const *, char const *)
	?responseHeaderReceived@QHttp@@IAEXABVQHttpResponseHeader@@@Z @ 713 NONAME ; void QHttp::responseHeaderReceived(class QHttpResponseHeader const &)
	?readDatagram@QNativeSocketEngine@@UAE_JPAD_JPAVQHostAddress@@PAG@Z @ 714 NONAME ; long long QNativeSocketEngine::readDatagram(char *, long long, class QHostAddress *, unsigned short *)
	?setCache@QNetworkAccessManager@@QAEXPAVQAbstractNetworkCache@@@Z @ 715 NONAME ; void QNetworkAccessManager::setCache(class QAbstractNetworkCache *)
	?isNull@QSslConfiguration@@QBE_NXZ @ 716 NONAME ; bool QSslConfiguration::isNull(void) const
	?tr@QHttpSocketEngine@@SA?AVQString@@PBD0@Z @ 717 NONAME ; class QString QHttpSocketEngine::tr(char const *, char const *)
	?staticMetaObject@QLocalSocket@@2UQMetaObject@@B @ 718 NONAME ; struct QMetaObject const QLocalSocket::staticMetaObject
	?metaObject@QAbstractSocket@@UBEPBUQMetaObject@@XZ @ 719 NONAME ; struct QMetaObject const * QAbstractSocket::metaObject(void) const
	?hasContentLength@QHttpHeader@@QBE_NXZ @ 720 NONAME ; bool QHttpHeader::hasContentLength(void) const
	?waitForConnected@QSslSocket@@QAE_NH@Z @ 721 NONAME ; bool QSslSocket::waitForConnected(int)
	?lastModified@QUrlInfo@@QBE?AVQDateTime@@XZ @ 722 NONAME ; class QDateTime QUrlInfo::lastModified(void) const
	?metaObject@QLocalSocket@@UBEPBUQMetaObject@@XZ @ 723 NONAME ; struct QMetaObject const * QLocalSocket::metaObject(void) const
	??1QSocks5SocketEngine@@UAE@XZ @ 724 NONAME ; QSocks5SocketEngine::~QSocks5SocketEngine(void)
	?metaObject@QAbstractSocketEngine@@UBEPBUQMetaObject@@XZ @ 725 NONAME ; struct QMetaObject const * QAbstractSocketEngine::metaObject(void) const
	?error@QAbstractSocket@@QBE?AW4SocketError@1@XZ @ 726 NONAME ; enum QAbstractSocket::SocketError QAbstractSocket::error(void) const
	?hasContentType@QHttpHeader@@QBE_NXZ @ 727 NONAME ; bool QHttpHeader::hasContentType(void) const
	??9QSslCertificate@@QBE_NABV0@@Z @ 728 NONAME ; bool QSslCertificate::operator!=(class QSslCertificate const &) const
	?setPassword@QAuthenticator@@QAEXABVQString@@@Z @ 729 NONAME ; void QAuthenticator::setPassword(class QString const &)
	?tr@QAbstractNetworkCache@@SA?AVQString@@PBD0@Z @ 730 NONAME ; class QString QAbstractNetworkCache::tr(char const *, char const *)
	??1QNetworkCookie@@QAE@XZ @ 731 NONAME ; QNetworkCookie::~QNetworkCookie(void)
	?algorithm@QSslKey@@QBE?AW4KeyAlgorithm@QSsl@@XZ @ 732 NONAME ; enum QSsl::KeyAlgorithm QSslKey::algorithm(void) const
	?getStaticMetaObject@QTcpServer@@SAABUQMetaObject@@XZ @ 733 NONAME ; struct QMetaObject const & QTcpServer::getStaticMetaObject(void)
	?connectToHost@QAbstractSocket@@QAEXABVQHostAddress@@GV?$QFlags@W4OpenModeFlag@QIODevice@@@@@Z @ 734 NONAME ; void QAbstractSocket::connectToHost(class QHostAddress const &, unsigned short, class QFlags<enum QIODevice::OpenModeFlag>)
	?hasPendingCommands@QFtp@@QBE_NXZ @ 735 NONAME ; bool QFtp::hasPendingCommands(void) const
	?hostFound@QAbstractSocket@@IAEXXZ @ 736 NONAME ; void QAbstractSocket::hostFound(void)
	?setCaCertificates@QSslConfiguration@@QAEXABV?$QList@VQSslCertificate@@@@@Z @ 737 NONAME ; void QSslConfiguration::setCaCertificates(class QList<class QSslCertificate> const &)
	?isPipeliningUsed@QHttpNetworkReply@@QBE_NXZ @ 738 NONAME ; bool QHttpNetworkReply::isPipeliningUsed(void) const
	?closeConnection@QHttp@@QAEHXZ @ 739 NONAME ; int QHttp::closeConnection(void)
	?setProtocol@QAbstractSocketEngine@@IAEXW4NetworkLayerProtocol@QAbstractSocket@@@Z @ 740 NONAME ; void QAbstractSocketEngine::setProtocol(enum QAbstractSocket::NetworkLayerProtocol)
	?protocolTag@QNetworkProxyQuery@@QBE?AVQString@@XZ @ 741 NONAME ; class QString QNetworkProxyQuery::protocolTag(void) const
	?staticMetaObject@QSocks5SocketEngine@@2UQMetaObject@@B @ 742 NONAME ; struct QMetaObject const QSocks5SocketEngine::staticMetaObject
	?addDefaultCaCertificate@QSslSocket@@SAXABVQSslCertificate@@@Z @ 743 NONAME ; void QSslSocket::addDefaultCaCertificate(class QSslCertificate const &)
	?isWriteNotificationEnabled@QHttpSocketEngine@@UBE_NXZ @ 744 NONAME ; bool QHttpSocketEngine::isWriteNotificationEnabled(void) const
	?peerPort@QAbstractSocket@@QBEGXZ @ 745 NONAME ; unsigned short QAbstractSocket::peerPort(void) const
	??8QHostAddress@@QBE_NW4SpecialAddress@0@@Z @ 746 NONAME ; bool QHostAddress::operator==(enum QHostAddress::SpecialAddress) const
	?readBufferSize@QAbstractSocket@@QBE_JXZ @ 747 NONAME ; long long QAbstractSocket::readBufferSize(void) const
	?tr@QUdpSocket@@SA?AVQString@@PBD0H@Z @ 748 NONAME ; class QString QUdpSocket::tr(char const *, char const *, int)
	??1QHttpNetworkReply@@UAE@XZ @ 749 NONAME ; QHttpNetworkReply::~QHttpNetworkReply(void)
	?remove@QFtp@@QAEHABVQString@@@Z @ 750 NONAME ; int QFtp::remove(class QString const &)
	??8QSslError@@QBE_NABV0@@Z @ 751 NONAME ; bool QSslError::operator==(class QSslError const &) const
	?headerChanged@QHttpNetworkReply@@IAEXXZ @ 752 NONAME ; void QHttpNetworkReply::headerChanged(void)
	?peerHostName@QNetworkProxyQuery@@QBE?AVQString@@XZ @ 753 NONAME ; class QString QNetworkProxyQuery::peerHostName(void) const
	??0QHttpResponseHeader@@QAE@HABVQString@@HH@Z @ 754 NONAME ; QHttpResponseHeader::QHttpResponseHeader(int, class QString const &, int, int)
	?setPermissions@QUrlInfo@@UAEXH@Z @ 755 NONAME ; void QUrlInfo::setPermissions(int)
	?staticMetaObject@QHttpNetworkReply@@2UQMetaObject@@B @ 756 NONAME ; struct QMetaObject const QHttpNetworkReply::staticMetaObject
	?serverAddress@QTcpServer@@QBE?AVQHostAddress@@XZ @ 757 NONAME ; class QHostAddress QTcpServer::serverAddress(void) const
	?setSocketError@QAbstractSocket@@IAEXW4SocketError@1@@Z @ 758 NONAME ; void QAbstractSocket::setSocketError(enum QAbstractSocket::SocketError)
	??4QAuthenticator@@QAEAAV0@ABV0@@Z @ 759 NONAME ; class QAuthenticator & QAuthenticator::operator=(class QAuthenticator const &)
	??_EQHttpNetworkConnection@@UAE@I@Z @ 760 NONAME ; QHttpNetworkConnection::~QHttpNetworkConnection(unsigned int)
	?tr@QNetworkReply@@SA?AVQString@@PBD0H@Z @ 761 NONAME ; class QString QNetworkReply::tr(char const *, char const *, int)
	?setExceptionNotificationEnabled@QSocks5SocketEngine@@UAEX_N@Z @ 762 NONAME ; void QSocks5SocketEngine::setExceptionNotificationEnabled(bool)
	?tr@QAbstractSocket@@SA?AVQString@@PBD0@Z @ 763 NONAME ; class QString QAbstractSocket::tr(char const *, char const *)
	?metaObject@QNativeSocketEngine@@UBEPBUQMetaObject@@XZ @ 764 NONAME ; struct QMetaObject const * QNativeSocketEngine::metaObject(void) const
	?qt_metacast@QSocks5SocketEngine@@UAEPAXPBD@Z @ 765 NONAME ; void * QSocks5SocketEngine::qt_metacast(char const *)
	?d_func@QHttpResponseHeader@@AAEPAVQHttpResponseHeaderPrivate@@XZ @ 766 NONAME ; class QHttpResponseHeaderPrivate * QHttpResponseHeader::d_func(void)
	?setStatusLine@QHttpResponseHeader@@QAEXHABVQString@@HH@Z @ 767 NONAME ; void QHttpResponseHeader::setStatusLine(int, class QString const &, int, int)
	?method@QHttpRequestHeader@@QBE?AVQString@@XZ @ 768 NONAME ; class QString QHttpRequestHeader::method(void) const
	??0QHttpResponseHeader@@QAE@XZ @ 769 NONAME ; QHttpResponseHeader::QHttpResponseHeader(void)
	?proxyAuthenticationRequired@QHttpNetworkConnection@@IAEXABVQNetworkProxy@@PAVQAuthenticator@@PBV1@@Z @ 770 NONAME ; void QHttpNetworkConnection::proxyAuthenticationRequired(class QNetworkProxy const &, class QAuthenticator *, class QHttpNetworkConnection const *)
	?tr@QHttp@@SA?AVQString@@PBD0@Z @ 771 NONAME ; class QString QHttp::tr(char const *, char const *)
	?option@QNativeSocketEngine@@UBEHW4SocketOption@QAbstractSocketEngine@@@Z @ 772 NONAME ; int QNativeSocketEngine::option(enum QAbstractSocketEngine::SocketOption) const
	?d_func@QNetworkDiskCache@@ABEPBVQNetworkDiskCachePrivate@@XZ @ 773 NONAME ; class QNetworkDiskCachePrivate const * QNetworkDiskCache::d_func(void) const
	?transparentProxy@QHttpNetworkConnection@@QBE?AVQNetworkProxy@@XZ @ 774 NONAME ; class QNetworkProxy QHttpNetworkConnection::transparentProxy(void) const
	?trUtf8@QUdpSocket@@SA?AVQString@@PBD0H@Z @ 775 NONAME ; class QString QUdpSocket::trUtf8(char const *, char const *, int)
	?qt_metacall@QHttpNetworkConnection@@UAEHW4Call@QMetaObject@@HPAPAX@Z @ 776 NONAME ; int QHttpNetworkConnection::qt_metacall(enum QMetaObject::Call, int, void * *)
	??9QNetworkRequest@@QBE_NABV0@@Z @ 777 NONAME ; bool QNetworkRequest::operator!=(class QNetworkRequest const &) const
	?disconnectFromHostImplementation@QAbstractSocket@@IAEXXZ @ 778 NONAME ; void QAbstractSocket::disconnectFromHostImplementation(void)
	?supportedBits@QSslCipher@@QBEHXZ @ 779 NONAME ; int QSslCipher::supportedBits(void) const
	?isSymLink@QUrlInfo@@QBE_NXZ @ 780 NONAME ; bool QUrlInfo::isSymLink(void) const
	??_EQNetworkDiskCache@@UAE@I@Z @ 781 NONAME ; QNetworkDiskCache::~QNetworkDiskCache(unsigned int)
	??0QUdpSocket@@QAE@PAVQObject@@@Z @ 782 NONAME ; QUdpSocket::QUdpSocket(class QObject *)
	??4QNetworkProxy@@QAEAAV0@ABV0@@Z @ 783 NONAME ; class QNetworkProxy & QNetworkProxy::operator=(class QNetworkProxy const &)
	?d_func@QTcpSocket@@AAEPAVQTcpSocketPrivate@@XZ @ 784 NONAME ; class QTcpSocketPrivate * QTcpSocket::d_func(void)
	?waitForEncrypted@QSslSocket@@QAE_NH@Z @ 785 NONAME ; bool QSslSocket::waitForEncrypted(int)
	?d_func@QTcpServer@@AAEPAVQTcpServerPrivate@@XZ @ 786 NONAME ; class QTcpServerPrivate * QTcpServer::d_func(void)
	?peerAddress@QAbstractSocket@@QBE?AVQHostAddress@@XZ @ 787 NONAME ; class QHostAddress QAbstractSocket::peerAddress(void) const
	?setLastRead@QUrlInfo@@QAEXABVQDateTime@@@Z @ 788 NONAME ; void QUrlInfo::setLastRead(class QDateTime const &)
	?setUrl@QNetworkRequest@@QAEXABVQUrl@@@Z @ 789 NONAME ; void QNetworkRequest::setUrl(class QUrl const &)
	?header@QNetworkRequest@@QBE?AVQVariant@@W4KnownHeaders@1@@Z @ 790 NONAME ; class QVariant QNetworkRequest::header(enum QNetworkRequest::KnownHeaders) const
	?receiveBufferSize@QNativeSocketEngine@@QBE_JXZ @ 791 NONAME ; long long QNativeSocketEngine::receiveBufferSize(void) const
	??_EQHttpHeader@@UAE@I@Z @ 792 NONAME ; QHttpHeader::~QHttpHeader(unsigned int)
	??0QHostAddress@@QAE@XZ @ 793 NONAME ; QHostAddress::QHostAddress(void)
	?trUtf8@QAbstractSocketEngine@@SA?AVQString@@PBD0@Z @ 794 NONAME ; class QString QAbstractSocketEngine::trUtf8(char const *, char const *)
	?errorString@QHostInfo@@QBE?AVQString@@XZ @ 795 NONAME ; class QString QHostInfo::errorString(void) const
	?waitForDisconnected@QSslSocket@@QAE_NH@Z @ 796 NONAME ; bool QSslSocket::waitForDisconnected(int)
	?encryptedBytesWritten@QSslSocket@@IAEX_J@Z @ 797 NONAME ; void QSslSocket::encryptedBytesWritten(long long)
	?tr@QAbstractNetworkCache@@SA?AVQString@@PBD0H@Z @ 798 NONAME ; class QString QAbstractNetworkCache::tr(char const *, char const *, int)
	??0QAuthenticator@@QAE@ABV0@@Z @ 799 NONAME ; QAuthenticator::QAuthenticator(class QAuthenticator const &)
	?cacheDirectory@QNetworkDiskCache@@QBE?AVQString@@XZ @ 800 NONAME ; class QString QNetworkDiskCache::cacheDirectory(void) const
	??4QHostAddress@@QAEAAV0@ABV0@@Z @ 801 NONAME ; class QHostAddress & QHostAddress::operator=(class QHostAddress const &)
	?socketDescriptor@QSocks5SocketEngine@@UBEHXZ @ 802 NONAME ; int QSocks5SocketEngine::socketDescriptor(void) const
	?setPrivateKey@QSslSocket@@QAEXABVQSslKey@@@Z @ 803 NONAME ; void QSslSocket::setPrivateKey(class QSslKey const &)
	?cookiesForUrl@QNetworkCookieJar@@UBE?AV?$QList@VQNetworkCookie@@@@ABVQUrl@@@Z @ 804 NONAME ; class QList<class QNetworkCookie> QNetworkCookieJar::cookiesForUrl(class QUrl const &) const
	?d_func@QSocks5SocketEngine@@AAEPAVQSocks5SocketEnginePrivate@@XZ @ 805 NONAME ; class QSocks5SocketEnginePrivate * QSocks5SocketEngine::d_func(void)
	?createSocketEngine@QAbstractSocketEngine@@SAPAV1@W4SocketType@QAbstractSocket@@ABVQNetworkProxy@@PAVQObject@@@Z @ 806 NONAME ; class QAbstractSocketEngine * QAbstractSocketEngine::createSocketEngine(enum QAbstractSocket::SocketType, class QNetworkProxy const &, class QObject *)
	?hasPendingDatagrams@QUdpSocket@@QBE_NXZ @ 807 NONAME ; bool QUdpSocket::hasPendingDatagrams(void) const
	?listen@QHttpSocketEngine@@UAE_NXZ @ 808 NONAME ; bool QHttpSocketEngine::listen(void)
	??0QAbstractSocketEngine@@IAE@AAVQAbstractSocketEnginePrivate@@PAVQObject@@@Z @ 809 NONAME ; QAbstractSocketEngine::QAbstractSocketEngine(class QAbstractSocketEnginePrivate &, class QObject *)
	?setLocalPort@QAbstractSocketEngine@@IAEXG@Z @ 810 NONAME ; void QAbstractSocketEngine::setLocalPort(unsigned short)
	?hasPendingDatagrams@QHttpSocketEngine@@UBE_NXZ @ 811 NONAME ; bool QHttpSocketEngine::hasPendingDatagrams(void) const
	??0QNetworkAddressEntry@@QAE@ABV0@@Z @ 812 NONAME ; QNetworkAddressEntry::QNetworkAddressEntry(class QNetworkAddressEntry const &)
	?setReadNotificationEnabled@QNativeSocketEngine@@UAEX_N@Z @ 813 NONAME ; void QNativeSocketEngine::setReadNotificationEnabled(bool)
	?pendingDatagramSize@QNativeSocketEngine@@UBE_JXZ @ 814 NONAME ; long long QNativeSocketEngine::pendingDatagramSize(void) const
	?supportsSsl@QSslSocket@@SA_NXZ @ 815 NONAME ; bool QSslSocket::supportsSsl(void)
	?post@QHttp@@QAEHABVQString@@ABVQByteArray@@PAVQIODevice@@@Z @ 816 NONAME ; int QHttp::post(class QString const &, class QByteArray const &, class QIODevice *)
	?metaObject@QHttpSocketEngine@@UBEPBUQMetaObject@@XZ @ 817 NONAME ; struct QMetaObject const * QHttpSocketEngine::metaObject(void) const
	?slotSocketError@QHttpSocketEngine@@QAEXW4SocketError@QAbstractSocket@@@Z @ 818 NONAME ; void QHttpSocketEngine::slotSocketError(enum QAbstractSocket::SocketError)
	??0QNetworkCookieJar@@QAE@PAVQObject@@@Z @ 819 NONAME ; QNetworkCookieJar::QNetworkCookieJar(class QObject *)
	?qt_metacall@QLocalServer@@UAEHW4Call@QMetaObject@@HPAPAX@Z @ 820 NONAME ; int QLocalServer::qt_metacall(enum QMetaObject::Call, int, void * *)
	?writeData@QNetworkReply@@MAE_JPBD_J@Z @ 821 NONAME ; long long QNetworkReply::writeData(char const *, long long)
	??1QSslCipher@@QAE@XZ @ 822 NONAME ; QSslCipher::~QSslCipher(void)
	??6@YA?AVQDebug@@V0@ABW4SslError@QSslError@@@Z @ 823 NONAME ; class QDebug operator<<(class QDebug, enum QSslError::SslError const &)
	?metaObject@QTcpSocket@@UBEPBUQMetaObject@@XZ @ 824 NONAME ; struct QMetaObject const * QTcpSocket::metaObject(void) const
	?handle@QSslCertificate@@QBEKXZ @ 825 NONAME ; unsigned long QSslCertificate::handle(void) const
	?flags@QNetworkInterface@@QBE?AV?$QFlags@W4InterfaceFlag@QNetworkInterface@@@@XZ @ 826 NONAME ; class QFlags<enum QNetworkInterface::InterfaceFlag> QNetworkInterface::flags(void) const
	?error@QHttp@@QBE?AW4Error@1@XZ @ 827 NONAME ; enum QHttp::Error QHttp::error(void) const
	??0QHttpRequestHeader@@QAE@ABVQString@@0HH@Z @ 828 NONAME ; QHttpRequestHeader::QHttpRequestHeader(class QString const &, class QString const &, int, int)
	?qt_metacall@QNetworkDiskCache@@UAEHW4Call@QMetaObject@@HPAPAX@Z @ 829 NONAME ; int QNetworkDiskCache::qt_metacall(enum QMetaObject::Call, int, void * *)
	?setCiphers@QSslConfiguration@@QAEXABV?$QList@VQSslCipher@@@@@Z @ 830 NONAME ; void QSslConfiguration::setCiphers(class QList<class QSslCipher> const &)
	?setType@QNetworkProxy@@QAEXW4ProxyType@1@@Z @ 831 NONAME ; void QNetworkProxy::setType(enum QNetworkProxy::ProxyType)
	?abort@QHttp@@QAEXXZ @ 832 NONAME ; void QHttp::abort(void)
	?setUrl@QNetworkProxyQuery@@QAEXABVQUrl@@@Z @ 833 NONAME ; void QNetworkProxyQuery::setUrl(class QUrl const &)
	?waitForDisconnected@QAbstractSocket@@QAE_NH@Z @ 834 NONAME ; bool QAbstractSocket::waitForDisconnected(int)
	??9QUrlInfo@@QBE_NABV0@@Z @ 835 NONAME ; bool QUrlInfo::operator!=(class QUrlInfo const &) const
	?exceptionNotification@QAbstractSocketEngine@@QAEXXZ @ 836 NONAME ; void QAbstractSocketEngine::exceptionNotification(void)
	?toIPv6Address@QHostAddress@@QBE?AVQIPv6Address@@XZ @ 837 NONAME ; class QIPv6Address QHostAddress::toIPv6Address(void) const
	?staticMetaObject@QUdpSocket@@2UQMetaObject@@B @ 838 NONAME ; struct QMetaObject const QUdpSocket::staticMetaObject
	??0QNetworkInterface@@QAE@ABV0@@Z @ 839 NONAME ; QNetworkInterface::QNetworkInterface(class QNetworkInterface const &)
	?prefixLength@QNetworkAddressEntry@@QBEHXZ @ 840 NONAME ; int QNetworkAddressEntry::prefixLength(void) const
	??4QSslKey@@QAEAAV0@ABV0@@Z @ 841 NONAME ; class QSslKey & QSslKey::operator=(class QSslKey const &)
	?connectInternal@QSocks5SocketEngine@@QAE_NXZ @ 842 NONAME ; bool QSocks5SocketEngine::connectInternal(void)
	?waitForBytesWritten@QAbstractSocket@@UAE_NH@Z @ 843 NONAME ; bool QAbstractSocket::waitForBytesWritten(int)
	??1QSslCertificate@@QAE@XZ @ 844 NONAME ; QSslCertificate::~QSslCertificate(void)
	?peerVerifyMode@QSslSocket@@QBE?AW4PeerVerifyMode@1@XZ @ 845 NONAME ; enum QSslSocket::PeerVerifyMode QSslSocket::peerVerifyMode(void) const
	?isCachingProxy@QNetworkProxy@@QBE_NXZ @ 846 NONAME ; bool QNetworkProxy::isCachingProxy(void) const
	?serialNumber@QSslCertificate@@QBE?AVQByteArray@@XZ @ 847 NONAME ; class QByteArray QSslCertificate::serialNumber(void) const
	?accept@QSocks5SocketEngine@@UAEHXZ @ 848 NONAME ; int QSocks5SocketEngine::accept(void)
	?option@QSocks5SocketEngine@@UBEHW4SocketOption@QAbstractSocketEngine@@@Z @ 849 NONAME ; int QSocks5SocketEngine::option(enum QAbstractSocketEngine::SocketOption) const
	?fromPath@QSslCertificate@@SA?AV?$QList@VQSslCertificate@@@@ABVQString@@W4EncodingFormat@QSsl@@W4PatternSyntax@QRegExp@@@Z @ 850 NONAME ; class QList<class QSslCertificate> QSslCertificate::fromPath(class QString const &, enum QSsl::EncodingFormat, enum QRegExp::PatternSyntax)
	??1QNetworkRequest@@QAE@XZ @ 851 NONAME ; QNetworkRequest::~QNetworkRequest(void)
	?qt_metacall@QTcpSocket@@UAEHW4Call@QMetaObject@@HPAPAX@Z @ 852 NONAME ; int QTcpSocket::qt_metacall(enum QMetaObject::Call, int, void * *)
	?insert@QNetworkDiskCache@@UAEXPAVQIODevice@@@Z @ 853 NONAME ; void QNetworkDiskCache::insert(class QIODevice *)
	?setLocalAddress@QAbstractSocketEngine@@IAEXABVQHostAddress@@@Z @ 854 NONAME ; void QAbstractSocketEngine::setLocalAddress(class QHostAddress const &)
	?serverError@QLocalServer@@QBE?AW4SocketError@QAbstractSocket@@XZ @ 855 NONAME ; enum QAbstractSocket::SocketError QLocalServer::serverError(void) const
	?trUtf8@QLocalServer@@SA?AVQString@@PBD0@Z @ 856 NONAME ; class QString QLocalServer::trUtf8(char const *, char const *)
	?abortHostLookup@QHostInfo@@SAXH@Z @ 857 NONAME ; void QHostInfo::abortHostLookup(int)
	?errorString@QAbstractSocketEngine@@QBE?AVQString@@XZ @ 858 NONAME ; class QString QAbstractSocketEngine::errorString(void) const
	?tr@QLocalServer@@SA?AVQString@@PBD0H@Z @ 859 NONAME ; class QString QLocalServer::tr(char const *, char const *, int)
	?setSslConfiguration@QNetworkRequest@@QAEXABVQSslConfiguration@@@Z @ 860 NONAME ; void QNetworkRequest::setSslConfiguration(class QSslConfiguration const &)
	?addValue@QHttpHeader@@QAEXABVQString@@0@Z @ 861 NONAME ; void QHttpHeader::addValue(class QString const &, class QString const &)
	?cache@QNetworkAccessManager@@QBEPAVQAbstractNetworkCache@@XZ @ 862 NONAME ; class QAbstractNetworkCache * QNetworkAccessManager::cache(void) const
	?toPem@QSslKey@@QBE?AVQByteArray@@ABV2@@Z @ 863 NONAME ; class QByteArray QSslKey::toPem(class QByteArray const &) const
	??1QSocks5SocketEngineHandler@@UAE@XZ @ 864 NONAME ; QSocks5SocketEngineHandler::~QSocks5SocketEngineHandler(void)
	??4QHttpNetworkRequest@@QAEAAV0@ABV0@@Z @ 865 NONAME ; class QHttpNetworkRequest & QHttpNetworkRequest::operator=(class QHttpNetworkRequest const &)
	?isWriteNotificationEnabled@QSocks5SocketEngine@@UBE_NXZ @ 866 NONAME ; bool QSocks5SocketEngine::isWriteNotificationEnabled(void) const
	??5@YAAAVQDataStream@@AAV0@AAVQNetworkCacheMetaData@@@Z @ 867 NONAME ; class QDataStream & operator>>(class QDataStream &, class QNetworkCacheMetaData &)
	?header@QHttpNetworkReply@@UBE?AV?$QList@U?$QPair@VQByteArray@@V1@@@@@XZ @ 868 NONAME ; class QList<struct QPair<class QByteArray, class QByteArray> > QHttpNetworkReply::header(void) const
	?subjectInfo@QSslCertificate@@QBE?AVQString@@W4SubjectInfo@1@@Z @ 869 NONAME ; class QString QSslCertificate::subjectInfo(enum QSslCertificate::SubjectInfo) const
	?isValid@QAbstractSocket@@QBE_NXZ @ 870 NONAME ; bool QAbstractSocket::isValid(void) const
	?state@QFtp@@QBE?AW4State@1@XZ @ 871 NONAME ; enum QFtp::State QFtp::state(void) const
	?clear@QSslKey@@QAEXXZ @ 872 NONAME ; void QSslKey::clear(void)
	?contentLength@QHttpHeader@@QBEIXZ @ 873 NONAME ; unsigned int QHttpHeader::contentLength(void) const
	?sslErrors@QSslSocket@@IAEXABV?$QList@VQSslError@@@@@Z @ 874 NONAME ; void QSslSocket::sslErrors(class QList<class QSslError> const &)
	?trUtf8@QHttpNetworkConnection@@SA?AVQString@@PBD0@Z @ 875 NONAME ; class QString QHttpNetworkConnection::trUtf8(char const *, char const *)
	?write@QNativeSocketEngine@@UAE_JPBD_J@Z @ 876 NONAME ; long long QNativeSocketEngine::write(char const *, long long)
	?d_func@QHttpSocketEngine@@AAEPAVQHttpSocketEnginePrivate@@XZ @ 877 NONAME ; class QHttpSocketEnginePrivate * QHttpSocketEngine::d_func(void)
	?greaterThan@QUrlInfo@@SA_NABV1@0H@Z @ 878 NONAME ; bool QUrlInfo::greaterThan(class QUrlInfo const &, class QUrlInfo const &, int)
	?isSecure@QNetworkCookie@@QBE_NXZ @ 879 NONAME ; bool QNetworkCookie::isSecure(void) const
	?protocolString@QSslCipher@@QBE?AVQString@@XZ @ 880 NONAME ; class QString QSslCipher::protocolString(void) const
	?readNotification@QAbstractSocketEngine@@QAEXXZ @ 881 NONAME ; void QAbstractSocketEngine::readNotification(void)
	?metaObject@QLocalServer@@UBEPBUQMetaObject@@XZ @ 882 NONAME ; struct QMetaObject const * QLocalServer::metaObject(void) const
	?setOriginatingObject@QNetworkRequest@@QAEXPAVQObject@@@Z @ 883 NONAME ; void QNetworkRequest::setOriginatingObject(class QObject *)
	?trUtf8@QNetworkAccessManager@@SA?AVQString@@PBD0H@Z @ 884 NONAME ; class QString QNetworkAccessManager::trUtf8(char const *, char const *, int)
	?d_func@QHttpRequestHeader@@AAEPAVQHttpRequestHeaderPrivate@@XZ @ 885 NONAME ; class QHttpRequestHeaderPrivate * QHttpRequestHeader::d_func(void)
	?connectToHostByName@QSocks5SocketEngine@@UAE_NABVQString@@G@Z @ 886 NONAME ; bool QSocks5SocketEngine::connectToHostByName(class QString const &, unsigned short)
	?proxyAuthenticationRequired@QNetworkAccessManager@@IAEXABVQNetworkProxy@@PAVQAuthenticator@@@Z @ 887 NONAME ; void QNetworkAccessManager::proxyAuthenticationRequired(class QNetworkProxy const &, class QAuthenticator *)
	??0QSslConfiguration@@QAE@XZ @ 888 NONAME ; QSslConfiguration::QSslConfiguration(void)
	?createSocketEngine@QAbstractSocketEngine@@SAPAV1@HPAVQObject@@@Z @ 889 NONAME ; class QAbstractSocketEngine * QAbstractSocketEngine::createSocketEngine(int, class QObject *)
	?isValid@QUrlInfo@@QBE_NXZ @ 890 NONAME ; bool QUrlInfo::isValid(void) const
	?type@QNetworkProxy@@QBE?AW4ProxyType@1@XZ @ 891 NONAME ; enum QNetworkProxy::ProxyType QNetworkProxy::type(void) const
	?hasPendingConnections@QLocalServer@@UBE_NXZ @ 892 NONAME ; bool QLocalServer::hasPendingConnections(void) const
	?peerPort@QAbstractSocketEngine@@QBEGXZ @ 893 NONAME ; unsigned short QAbstractSocketEngine::peerPort(void) const
	?digest@QSslCertificate@@QBE?AVQByteArray@@W4Algorithm@QCryptographicHash@@@Z @ 894 NONAME ; class QByteArray QSslCertificate::digest(enum QCryptographicHash::Algorithm) const
	?applicationProxy@QNetworkProxy@@SA?AV1@XZ @ 895 NONAME ; class QNetworkProxy QNetworkProxy::applicationProxy(void)
	?get@QNetworkAccessManager@@QAEPAVQNetworkReply@@ABVQNetworkRequest@@@Z @ 896 NONAME ; class QNetworkReply * QNetworkAccessManager::get(class QNetworkRequest const &)
	?socketDescriptor@QHttpSocketEngine@@UBEHXZ @ 897 NONAME ; int QHttpSocketEngine::socketDescriptor(void) const
	??1QLocalServer@@UAE@XZ @ 898 NONAME ; QLocalServer::~QLocalServer(void)
	??0QHostAddress@@QAE@PBUsockaddr@@@Z @ 899 NONAME ; QHostAddress::QHostAddress(struct sockaddr const *)
	?d_func@QNetworkCookieJar@@AAEPAVQNetworkCookieJarPrivate@@XZ @ 900 NONAME ; class QNetworkCookieJarPrivate * QNetworkCookieJar::d_func(void)
	?serverName@QLocalServer@@QBE?AVQString@@XZ @ 901 NONAME ; class QString QLocalServer::serverName(void) const
	??0QNetworkProxy@@QAE@ABV0@@Z @ 902 NONAME ; QNetworkProxy::QNetworkProxy(class QNetworkProxy const &)
	?setRawHeader@QNetworkReply@@IAEXABVQByteArray@@0@Z @ 903 NONAME ; void QNetworkReply::setRawHeader(class QByteArray const &, class QByteArray const &)
	?connectToHost@QFtp@@QAEHABVQString@@G@Z @ 904 NONAME ; int QFtp::connectToHost(class QString const &, unsigned short)
	?initialize@QSocks5SocketEngine@@UAE_NHW4SocketState@QAbstractSocket@@@Z @ 905 NONAME ; bool QSocks5SocketEngine::initialize(int, enum QAbstractSocket::SocketState)
	?type@QSslKey@@QBE?AW4KeyType@QSsl@@XZ @ 906 NONAME ; enum QSsl::KeyType QSslKey::type(void) const
	??1QFtp@@UAE@XZ @ 907 NONAME ; QFtp::~QFtp(void)
	??0QSslCertificate@@QAE@ABVQByteArray@@W4EncodingFormat@QSsl@@@Z @ 908 NONAME ; QSslCertificate::QSslCertificate(class QByteArray const &, enum QSsl::EncodingFormat)
	??0QHttpNetworkConnection@@QAE@GABVQString@@G_NPAVQObject@@@Z @ 909 NONAME ; QHttpNetworkConnection::QHttpNetworkConnection(unsigned short, class QString const &, unsigned short, bool, class QObject *)
	??0QSslSocket@@QAE@PAVQObject@@@Z @ 910 NONAME ; QSslSocket::QSslSocket(class QObject *)
	?close@QNetworkReply@@UAEXXZ @ 911 NONAME ; void QNetworkReply::close(void)
	??8QSslConfiguration@@QBE_NABV0@@Z @ 912 NONAME ; bool QSslConfiguration::operator==(class QSslConfiguration const &) const
	?socketOption@QSslSocket@@QAE?AVQVariant@@W4SocketOption@QAbstractSocket@@@Z @ 913 NONAME ; class QVariant QSslSocket::socketOption(enum QAbstractSocket::SocketOption)
	?write@QSocks5SocketEngine@@UAE_JPBD_J@Z @ 914 NONAME ; long long QSocks5SocketEngine::write(char const *, long long)
	??0QHostInfo@@QAE@H@Z @ 915 NONAME ; QHostInfo::QHostInfo(int)
	?connectToHostImplementation@QSslSocket@@IAEXABVQString@@GV?$QFlags@W4OpenModeFlag@QIODevice@@@@@Z @ 916 NONAME ; void QSslSocket::connectToHostImplementation(class QString const &, unsigned short, class QFlags<enum QIODevice::OpenModeFlag>)
	?isFinished@QNetworkReply@@QBE_NXZ @ 917 NONAME ; bool QNetworkReply::isFinished(void) const
	??0QNetworkProxyQuery@@QAE@ABVQString@@H0W4QueryType@0@@Z @ 918 NONAME ; QNetworkProxyQuery::QNetworkProxyQuery(class QString const &, int, class QString const &, enum QNetworkProxyQuery::QueryType)
	?cacheSize@QNetworkDiskCache@@UBE_JXZ @ 919 NONAME ; long long QNetworkDiskCache::cacheSize(void) const
	?trUtf8@QTcpServer@@SA?AVQString@@PBD0@Z @ 920 NONAME ; class QString QTcpServer::trUtf8(char const *, char const *)
	?lessThan@QUrlInfo@@SA_NABV1@0H@Z @ 921 NONAME ; bool QUrlInfo::lessThan(class QUrlInfo const &, class QUrlInfo const &, int)
	?connected@QAbstractSocket@@IAEXXZ @ 922 NONAME ; void QAbstractSocket::connected(void)
	?readDatagram@QHttpSocketEngine@@UAE_JPAD_JPAVQHostAddress@@PAG@Z @ 923 NONAME ; long long QHttpSocketEngine::readDatagram(char *, long long, class QHostAddress *, unsigned short *)
	?name@QNetworkInterface@@QBE?AVQString@@XZ @ 924 NONAME ; class QString QNetworkInterface::name(void) const
	?setLastModified@QUrlInfo@@UAEXABVQDateTime@@@Z @ 925 NONAME ; void QUrlInfo::setLastModified(class QDateTime const &)
	?waitForReadOrWrite@QSocks5SocketEngine@@UAE_NPA_N0_N1H0@Z @ 926 NONAME ; bool QSocks5SocketEngine::waitForReadOrWrite(bool *, bool *, bool, bool, int, bool *)
	?sslErrors@QHttpNetworkReply@@IAEXABV?$QList@VQSslError@@@@@Z @ 927 NONAME ; void QHttpNetworkReply::sslErrors(class QList<class QSslError> const &)
	?hasPendingConnections@QTcpServer@@UBE_NXZ @ 928 NONAME ; bool QTcpServer::hasPendingConnections(void) const
	??0QNetworkCookie@@QAE@ABVQByteArray@@0@Z @ 929 NONAME ; QNetworkCookie::QNetworkCookie(class QByteArray const &, class QByteArray const &)
	?caCertificates@QSslConfiguration@@QBE?AV?$QList@VQSslCertificate@@@@XZ @ 930 NONAME ; class QList<class QSslCertificate> QSslConfiguration::caCertificates(void) const
	?getStaticMetaObject@QNativeSocketEngine@@SAABUQMetaObject@@XZ @ 931 NONAME ; struct QMetaObject const & QNativeSocketEngine::getStaticMetaObject(void)
	?d_func@QHttpHeader@@AAEPAVQHttpHeaderPrivate@@XZ @ 932 NONAME ; class QHttpHeaderPrivate * QHttpHeader::d_func(void)
	?tr@QSslSocket@@SA?AVQString@@PBD0@Z @ 933 NONAME ; class QString QSslSocket::tr(char const *, char const *)
	?issuerInfo@QSslCertificate@@QBE?AVQString@@W4SubjectInfo@1@@Z @ 934 NONAME ; class QString QSslCertificate::issuerInfo(enum QSslCertificate::SubjectInfo) const
	??0QTcpServer@@QAE@PAVQObject@@@Z @ 935 NONAME ; QTcpServer::QTcpServer(class QObject *)
	??4QNetworkProxyQuery@@QAEAAV0@ABV0@@Z @ 936 NONAME ; class QNetworkProxyQuery & QNetworkProxyQuery::operator=(class QNetworkProxyQuery const &)
	?slotSocketBytesWritten@QHttpSocketEngine@@QAEXXZ @ 937 NONAME ; void QHttpSocketEngine::slotSocketBytesWritten(void)
	?disconnected@QAbstractSocket@@IAEXXZ @ 938 NONAME ; void QAbstractSocket::disconnected(void)
	?privateKey@QSslSocket@@QBE?AVQSslKey@@XZ @ 939 NONAME ; class QSslKey QSslSocket::privateKey(void) const
	?readAny@QHttpNetworkReply@@QAE?AVQByteArray@@XZ @ 940 NONAME ; class QByteArray QHttpNetworkReply::readAny(void)
	?fileMetaData@QNetworkDiskCache@@QBE?AVQNetworkCacheMetaData@@ABVQString@@@Z @ 941 NONAME ; class QNetworkCacheMetaData QNetworkDiskCache::fileMetaData(class QString const &) const
	?readDatagram@QSocks5SocketEngine@@UAE_JPAD_JPAVQHostAddress@@PAG@Z @ 942 NONAME ; long long QSocks5SocketEngine::readDatagram(char *, long long, class QHostAddress *, unsigned short *)
	?majorVersion@QHttpNetworkRequest@@UBEHXZ @ 943 NONAME ; int QHttpNetworkRequest::majorVersion(void) const
	??_EQHttpNetworkHeader@@UAE@I@Z @ 944 NONAME ; QHttpNetworkHeader::~QHttpNetworkHeader(unsigned int)
	?protocol@QSslConfiguration@@QBE?AW4SslProtocol@QSsl@@XZ @ 945 NONAME ; enum QSsl::SslProtocol QSslConfiguration::protocol(void) const
	?incomingConnection@QLocalServer@@MAEXI@Z @ 946 NONAME ; void QLocalServer::incomingConnection(unsigned int)
	?setBroadcast@QNetworkAddressEntry@@QAEXABVQHostAddress@@@Z @ 947 NONAME ; void QNetworkAddressEntry::setBroadcast(class QHostAddress const &)
	??0QNetworkDiskCache@@QAE@PAVQObject@@@Z @ 948 NONAME ; QNetworkDiskCache::QNetworkDiskCache(class QObject *)
	?currentId@QHttp@@QBEHXZ @ 949 NONAME ; int QHttp::currentId(void) const
	?ignoreSslErrors@QHttpNetworkConnection@@QAEXH@Z @ 950 NONAME ; void QHttpNetworkConnection::ignoreSslErrors(int)
	?trUtf8@QHttpNetworkReply@@SA?AVQString@@PBD0H@Z @ 951 NONAME ; class QString QHttpNetworkReply::trUtf8(char const *, char const *, int)
	??_EQSocks5SocketEngineHandler@@UAE@I@Z @ 952 NONAME ; QSocks5SocketEngineHandler::~QSocks5SocketEngineHandler(unsigned int)
	?isValid@QLocalSocket@@QBE_NXZ @ 953 NONAME ; bool QLocalSocket::isValid(void) const
	?qt_metacast@QAbstractNetworkCache@@UAEPAXPBD@Z @ 954 NONAME ; void * QAbstractNetworkCache::qt_metacast(char const *)
	?sslErrors@QNetworkReply@@IAEXABV?$QList@VQSslError@@@@@Z @ 955 NONAME ; void QNetworkReply::sslErrors(class QList<class QSslError> const &)
	?setWriteNotificationEnabled@QNativeSocketEngine@@UAEX_N@Z @ 956 NONAME ; void QNativeSocketEngine::setWriteNotificationEnabled(bool)
	?metaObject@QTcpServer@@UBEPBUQMetaObject@@XZ @ 957 NONAME ; struct QMetaObject const * QTcpServer::metaObject(void) const
	?d_func@QHttpSocketEngine@@ABEPBVQHttpSocketEnginePrivate@@XZ @ 958 NONAME ; class QHttpSocketEnginePrivate const * QHttpSocketEngine::d_func(void) const
	?headerField@QHttpNetworkReply@@UBE?AVQByteArray@@ABV2@0@Z @ 959 NONAME ; class QByteArray QHttpNetworkReply::headerField(class QByteArray const &, class QByteArray const &) const
	?isSessionCookie@QNetworkCookie@@QBE_NXZ @ 960 NONAME ; bool QNetworkCookie::isSessionCookie(void) const
	?tr@QNetworkCookieJar@@SA?AVQString@@PBD0@Z @ 961 NONAME ; class QString QNetworkCookieJar::tr(char const *, char const *)
	?localHostName@QHostInfo@@SA?AVQString@@XZ @ 962 NONAME ; class QString QHostInfo::localHostName(void)
	??1QNativeSocketEngine@@UAE@XZ @ 963 NONAME ; QNativeSocketEngine::~QNativeSocketEngine(void)
	??1QNetworkProxy@@QAE@XZ @ 964 NONAME ; QNetworkProxy::~QNetworkProxy(void)
	?d_func@QAbstractSocketEngine@@ABEPBVQAbstractSocketEnginePrivate@@XZ @ 965 NONAME ; class QAbstractSocketEnginePrivate const * QAbstractSocketEngine::d_func(void) const
	?d_func@QUdpSocket@@ABEPBVQUdpSocketPrivate@@XZ @ 966 NONAME ; class QUdpSocketPrivate const * QUdpSocket::d_func(void) const
	??_EQNetworkProxyFactory@@UAE@I@Z @ 967 NONAME ; QNetworkProxyFactory::~QNetworkProxyFactory(unsigned int)
	?interfaceFromName@QNetworkInterface@@SA?AV1@ABVQString@@@Z @ 968 NONAME ; class QNetworkInterface QNetworkInterface::interfaceFromName(class QString const &)
	?writeDatagram@QUdpSocket@@QAE_JPBD_JABVQHostAddress@@G@Z @ 969 NONAME ; long long QUdpSocket::writeDatagram(char const *, long long, class QHostAddress const &, unsigned short)
	?setUrl@QNetworkReply@@IAEXABVQUrl@@@Z @ 970 NONAME ; void QNetworkReply::setUrl(class QUrl const &)
	?qt_metacall@QUdpSocket@@UAEHW4Call@QMetaObject@@HPAPAX@Z @ 971 NONAME ; int QUdpSocket::qt_metacall(enum QMetaObject::Call, int, void * *)
	?setPeerVerifyMode@QSslConfiguration@@QAEXW4PeerVerifyMode@QSslSocket@@@Z @ 972 NONAME ; void QSslConfiguration::setPeerVerifyMode(enum QSslSocket::PeerVerifyMode)
	??0QNetworkProxyQuery@@QAE@ABV0@@Z @ 973 NONAME ; QNetworkProxyQuery::QNetworkProxyQuery(class QNetworkProxyQuery const &)
	??8QSslCertificate@@QBE_NABV0@@Z @ 974 NONAME ; bool QSslCertificate::operator==(class QSslCertificate const &) const
	?setAttribute@QNetworkRequest@@QAEXW4Attribute@1@ABVQVariant@@@Z @ 975 NONAME ; void QNetworkRequest::setAttribute(enum QNetworkRequest::Attribute, class QVariant const &)
	??8QHttpNetworkRequest@@QBE_NABV0@@Z @ 976 NONAME ; bool QHttpNetworkRequest::operator==(class QHttpNetworkRequest const &) const
	??1QSocketEngineHandler@@MAE@XZ @ 977 NONAME ; QSocketEngineHandler::~QSocketEngineHandler(void)
	?setHost@QHttp@@QAEHABVQString@@W4ConnectionMode@1@G@Z @ 978 NONAME ; int QHttp::setHost(class QString const &, enum QHttp::ConnectionMode, unsigned short)
	??1QNetworkProxyQuery@@QAE@XZ @ 979 NONAME ; QNetworkProxyQuery::~QNetworkProxyQuery(void)
	?close@QTcpServer@@QAEXXZ @ 980 NONAME ; void QTcpServer::close(void)
	?setPath@QNetworkCookie@@QAEXABVQString@@@Z @ 981 NONAME ; void QNetworkCookie::setPath(class QString const &)
	??0QHttpNetworkConnection@@QAE@ABVQString@@G_NPAVQObject@@@Z @ 982 NONAME ; QHttpNetworkConnection::QHttpNetworkConnection(class QString const &, unsigned short, bool, class QObject *)
	??0QNetworkProxyQuery@@QAE@XZ @ 983 NONAME ; QNetworkProxyQuery::QNetworkProxyQuery(void)
	?maxPendingConnections@QLocalServer@@QBEHXZ @ 984 NONAME ; int QLocalServer::maxPendingConnections(void) const
	?qt_metacall@QTcpServer@@UAEHW4Call@QMetaObject@@HPAPAX@Z @ 985 NONAME ; int QTcpServer::qt_metacall(enum QMetaObject::Call, int, void * *)
	?parse@QHttpHeader@@IAE_NABVQString@@@Z @ 986 NONAME ; bool QHttpHeader::parse(class QString const &)
	?staticMetaObject@QHttp@@2UQMetaObject@@B @ 987 NONAME ; struct QMetaObject const QHttp::staticMetaObject
	?fromData@QSslCertificate@@SA?AV?$QList@VQSslCertificate@@@@ABVQByteArray@@W4EncodingFormat@QSsl@@@Z @ 988 NONAME ; class QList<class QSslCertificate> QSslCertificate::fromData(class QByteArray const &, enum QSsl::EncodingFormat)
	?trUtf8@QNetworkDiskCache@@SA?AVQString@@PBD0H@Z @ 989 NONAME ; class QString QNetworkDiskCache::trUtf8(char const *, char const *, int)
	?currentDevice@QFtp@@QBEPAVQIODevice@@XZ @ 990 NONAME ; class QIODevice * QFtp::currentDevice(void) const
	?protocol@QHostAddress@@QBE?AW4NetworkLayerProtocol@QAbstractSocket@@XZ @ 991 NONAME ; enum QAbstractSocket::NetworkLayerProtocol QHostAddress::protocol(void) const
	?setApplicationProxy@QNetworkProxy@@SAXABV1@@Z @ 992 NONAME ; void QNetworkProxy::setApplicationProxy(class QNetworkProxy const &)
	?bind@QSocks5SocketEngine@@UAE_NABVQHostAddress@@G@Z @ 993 NONAME ; bool QSocks5SocketEngine::bind(class QHostAddress const &, unsigned short)
	?d_func@QNetworkCookieJar@@ABEPBVQNetworkCookieJarPrivate@@XZ @ 994 NONAME ; class QNetworkCookieJarPrivate const * QNetworkCookieJar::d_func(void) const
	??1QSslConfiguration@@QAE@XZ @ 995 NONAME ; QSslConfiguration::~QSslConfiguration(void)
	?d_func@QLocalSocket@@ABEPBVQLocalSocketPrivate@@XZ @ 996 NONAME ; class QLocalSocketPrivate const * QLocalSocket::d_func(void) const
	?setProxyAuthentication@QHttpNetworkConnection@@QAEXPAVQAuthenticator@@@Z @ 997 NONAME ; void QHttpNetworkConnection::setProxyAuthentication(class QAuthenticator *)
	?abort@QFtp@@QAEXXZ @ 998 NONAME ; void QFtp::abort(void)
	?readData@QLocalSocket@@MAE_JPAD_J@Z @ 999 NONAME ; long long QLocalSocket::readData(char *, long long)
	??6@YA?AVQDebug@@V0@ABVQNetworkCookie@@@Z @ 1000 NONAME ; class QDebug operator<<(class QDebug, class QNetworkCookie const &)
	?qHash@@YAIABVQHostAddress@@@Z @ 1001 NONAME ; unsigned int qHash(class QHostAddress const &)
	?setProxy@QSocks5SocketEngine@@QAEXABVQNetworkProxy@@@Z @ 1002 NONAME ; void QSocks5SocketEngine::setProxy(class QNetworkProxy const &)
	?setExceptionNotificationEnabled@QHttpSocketEngine@@UAEX_N@Z @ 1003 NONAME ; void QHttpSocketEngine::setExceptionNotificationEnabled(bool)
	?tr@QFtp@@SA?AVQString@@PBD0@Z @ 1004 NONAME ; class QString QFtp::tr(char const *, char const *)
	?readAll@QHttp@@QAE?AVQByteArray@@XZ @ 1005 NONAME ; class QByteArray QHttp::readAll(void)
	?hardwareAddress@QNetworkInterface@@QBE?AVQString@@XZ @ 1006 NONAME ; class QString QNetworkInterface::hardwareAddress(void) const
	?isTransparentProxy@QNetworkProxy@@QBE_NXZ @ 1007 NONAME ; bool QNetworkProxy::isTransparentProxy(void) const
	?setReadNotificationEnabled@QSocks5SocketEngine@@UAEX_N@Z @ 1008 NONAME ; void QSocks5SocketEngine::setReadNotificationEnabled(bool)
	?trUtf8@QNetworkAccessManager@@SA?AVQString@@PBD0@Z @ 1009 NONAME ; class QString QNetworkAccessManager::trUtf8(char const *, char const *)
	?qt_metacall@QNativeSocketEngine@@UAEHW4Call@QMetaObject@@HPAPAX@Z @ 1010 NONAME ; int QNativeSocketEngine::qt_metacall(enum QMetaObject::Call, int, void * *)
	?bytesAvailableNextBlock@QHttpNetworkReply@@QBE_JXZ @ 1011 NONAME ; long long QHttpNetworkReply::bytesAvailableNextBlock(void) const
	??8QNetworkRequest@@QBE_NABV0@@Z @ 1012 NONAME ; bool QNetworkRequest::operator==(class QNetworkRequest const &) const
	?tr@QHttpNetworkReply@@SA?AVQString@@PBD0H@Z @ 1013 NONAME ; class QString QHttpNetworkReply::tr(char const *, char const *, int)
	?setReceiver@QAbstractSocketEngine@@QAEXPAVQAbstractSocketEngineReceiver@@@Z @ 1014 NONAME ; void QAbstractSocketEngine::setReceiver(class QAbstractSocketEngineReceiver *)
	??9QNetworkCacheMetaData@@QBE_NABV0@@Z @ 1015 NONAME ; bool QNetworkCacheMetaData::operator!=(class QNetworkCacheMetaData const &) const
	??0QNetworkProxy@@QAE@W4ProxyType@0@ABVQString@@G11@Z @ 1016 NONAME ; QNetworkProxy::QNetworkProxy(enum QNetworkProxy::ProxyType, class QString const &, unsigned short, class QString const &, class QString const &)
	??0QNetworkRequest@@QAE@ABVQUrl@@@Z @ 1017 NONAME ; QNetworkRequest::QNetworkRequest(class QUrl const &)
	?setAddress@QHostAddress@@QAEXABVQIPv6Address@@@Z @ 1018 NONAME ; void QHostAddress::setAddress(class QIPv6Address const &)
	?getStaticMetaObject@QAbstractSocket@@SAABUQMetaObject@@XZ @ 1019 NONAME ; struct QMetaObject const & QAbstractSocket::getStaticMetaObject(void)
	?setCacheDirectory@QNetworkDiskCache@@QAEXABVQString@@@Z @ 1020 NONAME ; void QNetworkDiskCache::setCacheDirectory(class QString const &)
	?error@QFtp@@QBE?AW4Error@1@XZ @ 1021 NONAME ; enum QFtp::Error QFtp::error(void) const
	?toString@QHttpHeader@@UBE?AVQString@@XZ @ 1022 NONAME ; class QString QHttpHeader::toString(void) const
	??_EQTcpSocket@@UAE@I@Z @ 1023 NONAME ; QTcpSocket::~QTcpSocket(unsigned int)
	?sessionCipher@QSslSocket@@QBE?AVQSslCipher@@XZ @ 1024 NONAME ; class QSslCipher QSslSocket::sessionCipher(void) const
	?bind@QUdpSocket@@QAE_NABVQHostAddress@@GV?$QFlags@W4BindFlag@QUdpSocket@@@@@Z @ 1025 NONAME ; bool QUdpSocket::bind(class QHostAddress const &, unsigned short, class QFlags<enum QUdpSocket::BindFlag>)
	?setMaxPendingConnections@QTcpServer@@QAEXH@Z @ 1026 NONAME ; void QTcpServer::setMaxPendingConnections(int)
	?socketDescriptor@QNativeSocketEngine@@UBEHXZ @ 1027 NONAME ; int QNativeSocketEngine::socketDescriptor(void) const
	?minorVersion@QHttpResponseHeader@@UBEHXZ @ 1028 NONAME ; int QHttpResponseHeader::minorVersion(void) const
	??0QAbstractSocketEngine@@QAE@PAVQObject@@@Z @ 1029 NONAME ; QAbstractSocketEngine::QAbstractSocketEngine(class QObject *)
	?setLocalPort@QAbstractSocket@@IAEXG@Z @ 1030 NONAME ; void QAbstractSocket::setLocalPort(unsigned short)
	??4QHttpRequestHeader@@QAEAAV0@ABV0@@Z @ 1031 NONAME ; class QHttpRequestHeader & QHttpRequestHeader::operator=(class QHttpRequestHeader const &)
	?isWriteNotificationEnabled@QNativeSocketEngine@@UBE_NXZ @ 1032 NONAME ; bool QNativeSocketEngine::isWriteNotificationEnabled(void) const
	?setErrorString@QHostInfo@@QAEXABVQString@@@Z @ 1033 NONAME ; void QHostInfo::setErrorString(class QString const &)
	?setPeerAddress@QAbstractSocketEngine@@IAEXABVQHostAddress@@@Z @ 1034 NONAME ; void QAbstractSocketEngine::setPeerAddress(class QHostAddress const &)
	?staticMetaObject@QNetworkAccessManager@@2UQMetaObject@@B @ 1035 NONAME ; struct QMetaObject const QNetworkAccessManager::staticMetaObject
	?setPassword@QNetworkProxy@@QAEXABVQString@@@Z @ 1036 NONAME ; void QNetworkProxy::setPassword(class QString const &)
	?isExceptionNotificationEnabled@QHttpSocketEngine@@UBE_NXZ @ 1037 NONAME ; bool QHttpSocketEngine::isExceptionNotificationEnabled(void) const
	?majorVersion@QHttpRequestHeader@@UBEHXZ @ 1038 NONAME ; int QHttpRequestHeader::majorVersion(void) const
	?setPrivateKey@QSslConfiguration@@QAEXABVQSslKey@@@Z @ 1039 NONAME ; void QSslConfiguration::setPrivateKey(class QSslKey const &)
	?d_func@QAbstractSocket@@ABEPBVQAbstractSocketPrivate@@XZ @ 1040 NONAME ; class QAbstractSocketPrivate const * QAbstractSocket::d_func(void) const
	??_EQSocketEngineHandler@@UAE@I@Z @ 1041 NONAME ; QSocketEngineHandler::~QSocketEngineHandler(unsigned int)
	?isFinished@QHttpNetworkReply@@QBE_NXZ @ 1042 NONAME ; bool QHttpNetworkReply::isFinished(void) const
	?emitReadNotification@QHttpSocketEngine@@AAEXXZ @ 1043 NONAME ; void QHttpSocketEngine::emitReadNotification(void)
	?contentLength@QHttpNetworkReply@@UBE_JXZ @ 1044 NONAME ; long long QHttpNetworkReply::contentLength(void) const
	??0QHttpNetworkReply@@QAE@ABVQUrl@@PAVQObject@@@Z @ 1045 NONAME ; QHttpNetworkReply::QHttpNetworkReply(class QUrl const &, class QObject *)
	?defaultCiphers@QSslSocket@@SA?AV?$QList@VQSslCipher@@@@XZ @ 1046 NONAME ; class QList<class QSslCipher> QSslSocket::defaultCiphers(void)
	??1QHttpSocketEngineHandler@@UAE@XZ @ 1047 NONAME ; QHttpSocketEngineHandler::~QHttpSocketEngineHandler(void)
	??8QSslCipher@@QBE_NABV0@@Z @ 1048 NONAME ; bool QSslCipher::operator==(class QSslCipher const &) const
	?ignoreSslErrors@QNetworkReply@@QAEXABV?$QList@VQSslError@@@@@Z @ 1049 NONAME ; void QNetworkReply::ignoreSslErrors(class QList<class QSslError> const &)
	??1QSslError@@QAE@XZ @ 1050 NONAME ; QSslError::~QSslError(void)
	?listen@QSocks5SocketEngine@@UAE_NXZ @ 1051 NONAME ; bool QSocks5SocketEngine::listen(void)
	??1QAbstractSocketEngine@@UAE@XZ @ 1052 NONAME ; QAbstractSocketEngine::~QAbstractSocketEngine(void)
	?setReadBufferSize@QSslSocket@@QAEX_J@Z @ 1053 NONAME ; void QSslSocket::setReadBufferSize(long long)
	?trUtf8@QNetworkDiskCache@@SA?AVQString@@PBD0@Z @ 1054 NONAME ; class QString QNetworkDiskCache::trUtf8(char const *, char const *)
	??0QLocalServer@@QAE@PAVQObject@@@Z @ 1055 NONAME ; QLocalServer::QLocalServer(class QObject *)
	?setProxy@QHttpSocketEngine@@QAEXABVQNetworkProxy@@@Z @ 1056 NONAME ; void QHttpSocketEngine::setProxy(class QNetworkProxy const &)
	?tr@QNetworkDiskCache@@SA?AVQString@@PBD0H@Z @ 1057 NONAME ; class QString QNetworkDiskCache::tr(char const *, char const *, int)
	??6@YA?AVQDebug@@V0@ABVQSslCipher@@@Z @ 1058 NONAME ; class QDebug operator<<(class QDebug, class QSslCipher const &)
	?setAddresses@QHostInfo@@QAEXABV?$QList@VQHostAddress@@@@@Z @ 1059 NONAME ; void QHostInfo::setAddresses(class QList<class QHostAddress> const &)
	?commandStarted@QFtp@@IAEXH@Z @ 1060 NONAME ; void QFtp::commandStarted(int)
	?toPem@QSslCertificate@@QBE?AVQByteArray@@XZ @ 1061 NONAME ; class QByteArray QSslCertificate::toPem(void) const
	?cacheProxy@QHttpNetworkConnection@@QBE?AVQNetworkProxy@@XZ @ 1062 NONAME ; class QNetworkProxy QHttpNetworkConnection::cacheProxy(void) const
	?d_func@QSslSocket@@ABEPBVQSslSocketPrivate@@XZ @ 1063 NONAME ; class QSslSocketPrivate const * QSslSocket::d_func(void) const
	?setSocketOption@QAbstractSocket@@QAEXW4SocketOption@1@ABVQVariant@@@Z @ 1064 NONAME ; void QAbstractSocket::setSocketOption(enum QAbstractSocket::SocketOption, class QVariant const &)
	?trUtf8@QHttpSocketEngine@@SA?AVQString@@PBD0@Z @ 1065 NONAME ; class QString QHttpSocketEngine::trUtf8(char const *, char const *)
	?connectToHostImplementation@QAbstractSocket@@IAEXABVQString@@GV?$QFlags@W4OpenModeFlag@QIODevice@@@@@Z @ 1066 NONAME ; void QAbstractSocket::connectToHostImplementation(class QString const &, unsigned short, class QFlags<enum QIODevice::OpenModeFlag>)
	??0QHttp@@QAE@ABVQString@@W4ConnectionMode@0@GPAVQObject@@@Z @ 1067 NONAME ; QHttp::QHttp(class QString const &, enum QHttp::ConnectionMode, unsigned short, class QObject *)
	?sslConfiguration@QNetworkReply@@QBE?AVQSslConfiguration@@XZ @ 1068 NONAME ; class QSslConfiguration QNetworkReply::sslConfiguration(void) const
	??AQIPv6Address@@QAEAAEH@Z @ 1069 NONAME ; unsigned char & QIPv6Address::operator[](int)
	?getStaticMetaObject@QHttp@@SAABUQMetaObject@@XZ @ 1070 NONAME ; struct QMetaObject const & QHttp::getStaticMetaObject(void)
	?setPeerName@QAbstractSocket@@IAEXABVQString@@@Z @ 1071 NONAME ; void QAbstractSocket::setPeerName(class QString const &)
	??0QNetworkProxyFactory@@QAE@XZ @ 1072 NONAME ; QNetworkProxyFactory::QNetworkProxyFactory(void)
	?interfaceFromIndex@QNetworkInterface@@SA?AV1@H@Z @ 1073 NONAME ; class QNetworkInterface QNetworkInterface::interfaceFromIndex(int)
	?accept@QNativeSocketEngine@@UAEHXZ @ 1074 NONAME ; int QNativeSocketEngine::accept(void)
	?staticMetaObject@QFtp@@2UQMetaObject@@B @ 1075 NONAME ; struct QMetaObject const QFtp::staticMetaObject
	?peerVerifyDepth@QSslConfiguration@@QBEHXZ @ 1076 NONAME ; int QSslConfiguration::peerVerifyDepth(void) const
	?bytesAvailable@QAbstractSocket@@UBE_JXZ @ 1077 NONAME ; long long QAbstractSocket::bytesAvailable(void) const
	?qt_metacast@QLocalServer@@UAEPAXPBD@Z @ 1078 NONAME ; void * QLocalServer::qt_metacast(char const *)
	?toString@QHttpRequestHeader@@UBE?AVQString@@XZ @ 1079 NONAME ; class QString QHttpRequestHeader::toString(void) const
	?startClientEncryption@QSslSocket@@QAEXXZ @ 1080 NONAME ; void QSslSocket::startClientEncryption(void)
	?caCertificates@QSslSocket@@QBE?AV?$QList@VQSslCertificate@@@@XZ @ 1081 NONAME ; class QList<class QSslCertificate> QSslSocket::caCertificates(void) const
	??1QNetworkCookieJar@@UAE@XZ @ 1082 NONAME ; QNetworkCookieJar::~QNetworkCookieJar(void)
	??4QSslCertificate@@QAEAAV0@ABV0@@Z @ 1083 NONAME ; class QSslCertificate & QSslCertificate::operator=(class QSslCertificate const &)
	?setStatusCode@QHttpNetworkReply@@QAEXH@Z @ 1084 NONAME ; void QHttpNetworkReply::setStatusCode(int)
	?setProxy@QFtp@@QAEHABVQString@@G@Z @ 1085 NONAME ; int QFtp::setProxy(class QString const &, unsigned short)
	?tr@QNetworkReply@@SA?AVQString@@PBD0@Z @ 1086 NONAME ; class QString QNetworkReply::tr(char const *, char const *)
	?metaObject@QFtp@@UBEPBUQMetaObject@@XZ @ 1087 NONAME ; struct QMetaObject const * QFtp::metaObject(void) const
	?d_func@QNativeSocketEngine@@AAEPAVQNativeSocketEnginePrivate@@XZ @ 1088 NONAME ; class QNativeSocketEnginePrivate * QNativeSocketEngine::d_func(void)
	?trUtf8@QHttpNetworkConnection@@SA?AVQString@@PBD0H@Z @ 1089 NONAME ; class QString QHttpNetworkConnection::trUtf8(char const *, char const *, int)
	?keys@QHttpHeader@@QBE?AVQStringList@@XZ @ 1090 NONAME ; class QStringList QHttpHeader::keys(void) const
	?toString@QHostAddress@@QBE?AVQString@@XZ @ 1091 NONAME ; class QString QHostAddress::toString(void) const
	?close@QFtp@@QAEHXZ @ 1092 NONAME ; int QFtp::close(void)
	?d_func@QLocalServer@@AAEPAVQLocalServerPrivate@@XZ @ 1093 NONAME ; class QLocalServerPrivate * QLocalServer::d_func(void)
	?setUser@QNetworkProxy@@QAEXABVQString@@@Z @ 1094 NONAME ; void QNetworkProxy::setUser(class QString const &)
	?detach@QAuthenticator@@QAEXXZ @ 1095 NONAME ; void QAuthenticator::detach(void)
	?read@QFtp@@QAE_JPAD_J@Z @ 1096 NONAME ; long long QFtp::read(char *, long long)
	?remove@QNetworkDiskCache@@UAE_NABVQUrl@@@Z @ 1097 NONAME ; bool QNetworkDiskCache::remove(class QUrl const &)
	?request@QHttp@@QAEHABVQHttpRequestHeader@@ABVQByteArray@@PAVQIODevice@@@Z @ 1098 NONAME ; int QHttp::request(class QHttpRequestHeader const &, class QByteArray const &, class QIODevice *)
	?waitForDisconnected@QLocalSocket@@QAE_NH@Z @ 1099 NONAME ; bool QLocalSocket::waitForDisconnected(int)
	?name@QSslCipher@@QBE?AVQString@@XZ @ 1100 NONAME ; class QString QSslCipher::name(void) const
	?metaData@QNetworkDiskCache@@UAE?AVQNetworkCacheMetaData@@ABVQUrl@@@Z @ 1101 NONAME ; class QNetworkCacheMetaData QNetworkDiskCache::metaData(class QUrl const &)
	?abort@QLocalSocket@@QAEXXZ @ 1102 NONAME ; void QLocalSocket::abort(void)
	?setDir@QUrlInfo@@UAEX_N@Z @ 1103 NONAME ; void QUrlInfo::setDir(bool)
	?tr@QSocks5SocketEngine@@SA?AVQString@@PBD0@Z @ 1104 NONAME ; class QString QSocks5SocketEngine::tr(char const *, char const *)
	?systemCaCertificates@QSslSocket@@SA?AV?$QList@VQSslCertificate@@@@XZ @ 1105 NONAME ; class QList<class QSslCertificate> QSslSocket::systemCaCertificates(void)
	?emitPendingConnectionNotification@QHttpSocketEngine@@AAEXXZ @ 1106 NONAME ; void QHttpSocketEngine::emitPendingConnectionNotification(void)
	?localDomainName@QHostInfo@@SA?AVQString@@XZ @ 1107 NONAME ; class QString QHostInfo::localDomainName(void)
	??0QSslKey@@QAE@ABV0@@Z @ 1108 NONAME ; QSslKey::QSslKey(class QSslKey const &)
	?lookupHost@QHostInfo@@SAHABVQString@@PAVQObject@@PBD@Z @ 1109 NONAME ; int QHostInfo::lookupHost(class QString const &, class QObject *, char const *)
	??4QHostAddress@@QAEAAV0@ABVQString@@@Z @ 1110 NONAME ; class QHostAddress & QHostAddress::operator=(class QString const &)
	?d_func@QNetworkAccessManager@@AAEPAVQNetworkAccessManagerPrivate@@XZ @ 1111 NONAME ; class QNetworkAccessManagerPrivate * QNetworkAccessManager::d_func(void)
	?qt_metacast@QHttpNetworkConnection@@UAEPAXPBD@Z @ 1112 NONAME ; void * QHttpNetworkConnection::qt_metacast(char const *)
	?localCertificate@QSslSocket@@QBE?AVQSslCertificate@@XZ @ 1113 NONAME ; class QSslCertificate QSslSocket::localCertificate(void) const
	?qt_metacast@QNetworkCookieJar@@UAEPAXPBD@Z @ 1114 NONAME ; void * QNetworkCookieJar::qt_metacast(char const *)
	?writeDatagram@QUdpSocket@@QAE_JABVQByteArray@@ABVQHostAddress@@G@Z @ 1115 NONAME ; long long QUdpSocket::writeDatagram(class QByteArray const &, class QHostAddress const &, unsigned short)
	?get@QFtp@@QAEHABVQString@@PAVQIODevice@@W4TransferType@1@@Z @ 1116 NONAME ; int QFtp::get(class QString const &, class QIODevice *, enum QFtp::TransferType)
	?setNetmask@QNetworkAddressEntry@@QAEXABVQHostAddress@@@Z @ 1117 NONAME ; void QNetworkAddressEntry::setNetmask(class QHostAddress const &)
	??_EQHttpResponseHeader@@UAE@I@Z @ 1118 NONAME ; QHttpResponseHeader::~QHttpResponseHeader(unsigned int)
	?alternateSubjectNames@QSslCertificate@@QBE?AV?$QMultiMap@W4AlternateNameEntryType@QSsl@@VQString@@@@XZ @ 1119 NONAME ; class QMultiMap<enum QSsl::AlternateNameEntryType, class QString> QSslCertificate::alternateSubjectNames(void) const
	?localPort@QNetworkProxyQuery@@QBEHXZ @ 1120 NONAME ; int QNetworkProxyQuery::localPort(void) const
	?priority@QHttpNetworkRequest@@QBE?AW4Priority@1@XZ @ 1121 NONAME ; enum QHttpNetworkRequest::Priority QHttpNetworkRequest::priority(void) const
	??4QSslCipher@@QAEAAV0@ABV0@@Z @ 1122 NONAME ; class QSslCipher & QSslCipher::operator=(class QSslCipher const &)
	?parseLine@QHttpRequestHeader@@MAE_NABVQString@@H@Z @ 1123 NONAME ; bool QHttpRequestHeader::parseLine(class QString const &, int)
	?close@QHttp@@QAEHXZ @ 1124 NONAME ; int QHttp::close(void)
	?setPeerVerifyDepth@QSslSocket@@QAEXH@Z @ 1125 NONAME ; void QSslSocket::setPeerVerifyDepth(int)
	?request@QHttpNetworkReply@@QBE?AVQHttpNetworkRequest@@XZ @ 1126 NONAME ; class QHttpNetworkRequest QHttpNetworkReply::request(void) const
	??_EQTcpServer@@UAE@I@Z @ 1127 NONAME ; QTcpServer::~QTcpServer(unsigned int)
	?bytesAvailable@QLocalSocket@@UBE_JXZ @ 1128 NONAME ; long long QLocalSocket::bytesAvailable(void) const
	?metaObject@QAbstractNetworkCache@@UBEPBUQMetaObject@@XZ @ 1129 NONAME ; struct QMetaObject const * QAbstractNetworkCache::metaObject(void) const
	??1QAuthenticator@@QAE@XZ @ 1130 NONAME ; QAuthenticator::~QAuthenticator(void)
	??_EQHttpSocketEngine@@UAE@I@Z @ 1131 NONAME ; QHttpSocketEngine::~QHttpSocketEngine(unsigned int)
	?port@QNetworkProxy@@QBEGXZ @ 1132 NONAME ; unsigned short QNetworkProxy::port(void) const
	?encryptedBytesAvailable@QSslSocket@@QBE_JXZ @ 1133 NONAME ; long long QSslSocket::encryptedBytesAvailable(void) const
	?isValid@QSocks5SocketEngine@@UBE_NXZ @ 1134 NONAME ; bool QSocks5SocketEngine::isValid(void) const
	?hasKey@QHttpHeader@@QBE_NABVQString@@@Z @ 1135 NONAME ; bool QHttpHeader::hasKey(class QString const &) const
	?setContentLength@QHttpHeader@@QAEXH@Z @ 1136 NONAME ; void QHttpHeader::setContentLength(int)
	?updateMetaData@QNetworkDiskCache@@UAEXABVQNetworkCacheMetaData@@@Z @ 1137 NONAME ; void QNetworkDiskCache::updateMetaData(class QNetworkCacheMetaData const &)
	?errorString@QSslError@@QBE?AVQString@@XZ @ 1138 NONAME ; class QString QSslError::errorString(void) const
	?finished@QHttpNetworkReply@@IAEXXZ @ 1139 NONAME ; void QHttpNetworkReply::finished(void)
	?errorString@QFtp@@QBE?AVQString@@XZ @ 1140 NONAME ; class QString QFtp::errorString(void) const
	?pendingDatagramSize@QHttpSocketEngine@@UBE_JXZ @ 1141 NONAME ; long long QHttpSocketEngine::pendingDatagramSize(void) const
	?uploadProgress@QNetworkReply@@IAEX_J0@Z @ 1142 NONAME ; void QNetworkReply::uploadProgress(long long, long long)
	??0QHttpRequestHeader@@QAE@ABVQString@@@Z @ 1143 NONAME ; QHttpRequestHeader::QHttpRequestHeader(class QString const &)
	?cookieJar@QNetworkAccessManager@@QBEPAVQNetworkCookieJar@@XZ @ 1144 NONAME ; class QNetworkCookieJar * QNetworkAccessManager::cookieJar(void) const
	?connectToHost@QSocks5SocketEngine@@UAE_NABVQHostAddress@@G@Z @ 1145 NONAME ; bool QSocks5SocketEngine::connectToHost(class QHostAddress const &, unsigned short)
	?staticMetaObject@QAbstractSocketEngine@@2UQMetaObject@@B @ 1146 NONAME ; struct QMetaObject const QAbstractSocketEngine::staticMetaObject
	??0QSslConfiguration@@QAE@ABV0@@Z @ 1147 NONAME ; QSslConfiguration::QSslConfiguration(class QSslConfiguration const &)
	?parseSubnet@QHostAddress@@SA?AU?$QPair@VQHostAddress@@H@@ABVQString@@@Z @ 1148 NONAME ; struct QPair<class QHostAddress, int> QHostAddress::parseSubnet(class QString const &)
	?metaObject@QNetworkCookieJar@@UBEPBUQMetaObject@@XZ @ 1149 NONAME ; struct QMetaObject const * QNetworkCookieJar::metaObject(void) const
	?fullServerName@QLocalServer@@QBE?AVQString@@XZ @ 1150 NONAME ; class QString QLocalServer::fullServerName(void) const
	?removeAllValues@QHttpHeader@@QAEXABVQString@@@Z @ 1151 NONAME ; void QHttpHeader::removeAllValues(class QString const &)
	??5@YAAAVQDataStream@@AAV0@AAVQHostAddress@@@Z @ 1152 NONAME ; class QDataStream & operator>>(class QDataStream &, class QHostAddress &)
	?setWriteNotificationEnabled@QSocks5SocketEngine@@UAEX_N@Z @ 1153 NONAME ; void QSocks5SocketEngine::setWriteNotificationEnabled(bool)
	??1QHostAddress@@QAE@XZ @ 1154 NONAME ; QHostAddress::~QHostAddress(void)
	?attribute@QNetworkReply@@QBE?AVQVariant@@W4Attribute@QNetworkRequest@@@Z @ 1155 NONAME ; class QVariant QNetworkReply::attribute(enum QNetworkRequest::Attribute) const
	?setExpirationDate@QNetworkCookie@@QAEXABVQDateTime@@@Z @ 1156 NONAME ; void QNetworkCookie::setExpirationDate(class QDateTime const &)
	??0QSslError@@QAE@ABV0@@Z @ 1157 NONAME ; QSslError::QSslError(class QSslError const &)
	??9QSslError@@QBE_NABV0@@Z @ 1158 NONAME ; bool QSslError::operator!=(class QSslError const &) const
	??1QNetworkCacheMetaData@@QAE@XZ @ 1159 NONAME ; QNetworkCacheMetaData::~QNetworkCacheMetaData(void)
	?proxyAuthenticationRequired@QAbstractSocketEngine@@QAEXABVQNetworkProxy@@PAVQAuthenticator@@@Z @ 1160 NONAME ; void QAbstractSocketEngine::proxyAuthenticationRequired(class QNetworkProxy const &, class QAuthenticator *)
	?readBufferSize@QNetworkReply@@QBE_JXZ @ 1161 NONAME ; long long QNetworkReply::readBufferSize(void) const
	?request@QNetworkReply@@QBE?AVQNetworkRequest@@XZ @ 1162 NONAME ; class QNetworkRequest QNetworkReply::request(void) const
	?isWritable@QUrlInfo@@QBE_NXZ @ 1163 NONAME ; bool QUrlInfo::isWritable(void) const
	?disconnected@QLocalSocket@@IAEXXZ @ 1164 NONAME ; void QLocalSocket::disconnected(void)
	?isValid@QHttpHeader@@QBE_NXZ @ 1165 NONAME ; bool QHttpHeader::isValid(void) const
	?statusCode@QHttpNetworkReply@@QBEHXZ @ 1166 NONAME ; int QHttpNetworkReply::statusCode(void) const
	?d_func@QHttp@@ABEPBVQHttpPrivate@@XZ @ 1167 NONAME ; class QHttpPrivate const * QHttp::d_func(void) const
	??1QHttpNetworkConnection@@UAE@XZ @ 1168 NONAME ; QHttpNetworkConnection::~QHttpNetworkConnection(void)
	?requestStarted@QHttp@@IAEXH@Z @ 1169 NONAME ; void QHttp::requestStarted(int)
	?setUploadByteDevice@QHttpNetworkRequest@@QAEXPAVQNonContiguousByteDevice@@@Z @ 1170 NONAME ; void QHttpNetworkRequest::setUploadByteDevice(class QNonContiguousByteDevice *)
	?setUrl@QNetworkCacheMetaData@@QAEXABVQUrl@@@Z @ 1171 NONAME ; void QNetworkCacheMetaData::setUrl(class QUrl const &)
	?localPort@QAbstractSocketEngine@@QBEGXZ @ 1172 NONAME ; unsigned short QAbstractSocketEngine::localPort(void) const
	?readData@QAbstractSocket@@MAE_JPAD_J@Z @ 1173 NONAME ; long long QAbstractSocket::readData(char *, long long)
	?close@QSslSocket@@UAEXXZ @ 1174 NONAME ; void QSslSocket::close(void)
	?path@QHttpRequestHeader@@QBE?AVQString@@XZ @ 1175 NONAME ; class QString QHttpRequestHeader::path(void) const
	?qt_metacast@QNativeSocketEngine@@UAEPAXPBD@Z @ 1176 NONAME ; void * QNativeSocketEngine::qt_metacast(char const *)
	?trUtf8@QSocks5SocketEngine@@SA?AVQString@@PBD0H@Z @ 1177 NONAME ; class QString QSocks5SocketEngine::trUtf8(char const *, char const *, int)
	?toDer@QSslKey@@QBE?AVQByteArray@@ABV2@@Z @ 1178 NONAME ; class QByteArray QSslKey::toDer(class QByteArray const &) const
	?isListening@QTcpServer@@QBE_NXZ @ 1179 NONAME ; bool QTcpServer::isListening(void) const
	?tr@QHttpNetworkConnection@@SA?AVQString@@PBD0@Z @ 1180 NONAME ; class QString QHttpNetworkConnection::tr(char const *, char const *)
	?password@QNetworkProxy@@QBE?AVQString@@XZ @ 1181 NONAME ; class QString QNetworkProxy::password(void) const
	?setOption@QNativeSocketEngine@@UAE_NW4SocketOption@QAbstractSocketEngine@@H@Z @ 1182 NONAME ; bool QNativeSocketEngine::setOption(enum QAbstractSocketEngine::SocketOption, int)
	?saveToDisk@QNetworkCacheMetaData@@QBE_NXZ @ 1183 NONAME ; bool QNetworkCacheMetaData::saveToDisk(void) const
	?writeData@QLocalSocket@@MAE_JPBD_J@Z @ 1184 NONAME ; long long QLocalSocket::writeData(char const *, long long)
	?setProxy@QHttp@@QAEHABVQNetworkProxy@@@Z @ 1185 NONAME ; int QHttp::setProxy(class QNetworkProxy const &)
	?d_func@QAbstractNetworkCache@@AAEPAVQAbstractNetworkCachePrivate@@XZ @ 1186 NONAME ; class QAbstractNetworkCachePrivate * QAbstractNetworkCache::d_func(void)
	?systemProxyForQuery@QNetworkProxyFactory@@SA?AV?$QList@VQNetworkProxy@@@@ABVQNetworkProxyQuery@@@Z @ 1187 NONAME ; class QList<class QNetworkProxy> QNetworkProxyFactory::systemProxyForQuery(class QNetworkProxyQuery const &)
	?qt_metacast@QHttpNetworkReply@@UAEPAXPBD@Z @ 1188 NONAME ; void * QHttpNetworkReply::qt_metacast(char const *)
	??8QNetworkCacheMetaData@@QBE_NABV0@@Z @ 1189 NONAME ; bool QNetworkCacheMetaData::operator==(class QNetworkCacheMetaData const &) const
	?localAddress@QAbstractSocket@@QBE?AVQHostAddress@@XZ @ 1190 NONAME ; class QHostAddress QAbstractSocket::localAddress(void) const
	??_EQAbstractSocket@@UAE@I@Z @ 1191 NONAME ; QAbstractSocket::~QAbstractSocket(unsigned int)
	?connectToHostEncrypted@QSslSocket@@QAEXABVQString@@G0V?$QFlags@W4OpenModeFlag@QIODevice@@@@@Z @ 1192 NONAME ; void QSslSocket::connectToHostEncrypted(class QString const &, unsigned short, class QString const &, class QFlags<enum QIODevice::OpenModeFlag>)
	?proxyFactory@QNetworkAccessManager@@QBEPAVQNetworkProxyFactory@@XZ @ 1193 NONAME ; class QNetworkProxyFactory * QNetworkAccessManager::proxyFactory(void) const
	?tr@QNetworkAccessManager@@SA?AVQString@@PBD0H@Z @ 1194 NONAME ; class QString QNetworkAccessManager::tr(char const *, char const *, int)
	?setState@QAbstractSocketEngine@@IAEXW4SocketState@QAbstractSocket@@@Z @ 1195 NONAME ; void QAbstractSocketEngine::setState(enum QAbstractSocket::SocketState)
	?peerCertificateChain@QSslConfiguration@@QBE?AV?$QList@VQSslCertificate@@@@XZ @ 1196 NONAME ; class QList<class QSslCertificate> QSslConfiguration::peerCertificateChain(void) const
	?errorString@QHttp@@QBE?AVQString@@XZ @ 1197 NONAME ; class QString QHttp::errorString(void) const
	?proxyAuthenticationRequired@QAbstractSocket@@IAEXABVQNetworkProxy@@PAVQAuthenticator@@@Z @ 1198 NONAME ; void QAbstractSocket::proxyAuthenticationRequired(class QNetworkProxy const &, class QAuthenticator *)
	??9QNetworkAddressEntry@@QBE_NABV0@@Z @ 1199 NONAME ; bool QNetworkAddressEntry::operator!=(class QNetworkAddressEntry const &) const
	?header@QHttpNetworkRequest@@UBE?AV?$QList@U?$QPair@VQByteArray@@V1@@@@@XZ @ 1200 NONAME ; class QList<struct QPair<class QByteArray, class QByteArray> > QHttpNetworkRequest::header(void) const
	?bytesAvailable@QHttpNetworkReply@@QBE_JXZ @ 1201 NONAME ; long long QHttpNetworkReply::bytesAvailable(void) const
	??_EQHttpNetworkReply@@UAE@I@Z @ 1202 NONAME ; QHttpNetworkReply::~QHttpNetworkReply(unsigned int)
	?minorVersion@QHttpNetworkReply@@UBEHXZ @ 1203 NONAME ; int QHttpNetworkReply::minorVersion(void) const
	?readDatagram@QUdpSocket@@QAE_JPAD_JPAVQHostAddress@@PAG@Z @ 1204 NONAME ; long long QUdpSocket::readDatagram(char *, long long, class QHostAddress *, unsigned short *)
	??0QNetworkProxyQuery@@QAE@ABVQUrl@@W4QueryType@0@@Z @ 1205 NONAME ; QNetworkProxyQuery::QNetworkProxyQuery(class QUrl const &, enum QNetworkProxyQuery::QueryType)
	?manager@QNetworkReply@@QBEPAVQNetworkAccessManager@@XZ @ 1206 NONAME ; class QNetworkAccessManager * QNetworkReply::manager(void) const
	?isReadNotificationEnabled@QSocks5SocketEngine@@UBE_NXZ @ 1207 NONAME ; bool QSocks5SocketEngine::isReadNotificationEnabled(void) const
	?tr@QTcpSocket@@SA?AVQString@@PBD0@Z @ 1208 NONAME ; class QString QTcpSocket::tr(char const *, char const *)
	?getStaticMetaObject@QHttpNetworkReply@@SAABUQMetaObject@@XZ @ 1209 NONAME ; struct QMetaObject const & QHttpNetworkReply::getStaticMetaObject(void)
	??0QSslError@@QAE@W4SslError@0@@Z @ 1210 NONAME ; QSslError::QSslError(enum QSslError::SslError)
	?expirationDate@QNetworkCacheMetaData@@QBE?AVQDateTime@@XZ @ 1211 NONAME ; class QDateTime QNetworkCacheMetaData::expirationDate(void) const
	?flush@QSslSocket@@QAE_NXZ @ 1212 NONAME ; bool QSslSocket::flush(void)
	?waitForReadyRead@QAbstractSocket@@UAE_NH@Z @ 1213 NONAME ; bool QAbstractSocket::waitForReadyRead(int)
	?d_func@QNetworkReply@@ABEPBVQNetworkReplyPrivate@@XZ @ 1214 NONAME ; class QNetworkReplyPrivate const * QNetworkReply::d_func(void) const
	?qt_metacall@QSocks5SocketEngine@@UAEHW4Call@QMetaObject@@HPAPAX@Z @ 1215 NONAME ; int QSocks5SocketEngine::qt_metacall(enum QMetaObject::Call, int, void * *)
	??4QNetworkCookie@@QAEAAV0@ABV0@@Z @ 1216 NONAME ; class QNetworkCookie & QNetworkCookie::operator=(class QNetworkCookie const &)
	?getStaticMetaObject@QHttpNetworkConnection@@SAABUQMetaObject@@XZ @ 1217 NONAME ; struct QMetaObject const & QHttpNetworkConnection::getStaticMetaObject(void)
	??1QNetworkAccessManager@@UAE@XZ @ 1218 NONAME ; QNetworkAccessManager::~QNetworkAccessManager(void)
	?tr@QLocalSocket@@SA?AVQString@@PBD0@Z @ 1219 NONAME ; class QString QLocalSocket::tr(char const *, char const *)
	?listen@QNativeSocketEngine@@UAE_NXZ @ 1220 NONAME ; bool QNativeSocketEngine::listen(void)
	?user@QAuthenticator@@QBE?AVQString@@XZ @ 1221 NONAME ; class QString QAuthenticator::user(void) const
	?qt_metacall@QHttpSocketEngine@@UAEHW4Call@QMetaObject@@HPAPAX@Z @ 1222 NONAME ; int QHttpSocketEngine::qt_metacall(enum QMetaObject::Call, int, void * *)
	??_EQFtp@@UAE@I@Z @ 1223 NONAME ; QFtp::~QFtp(unsigned int)
	?setLastModified@QNetworkCacheMetaData@@QAEXABVQDateTime@@@Z @ 1224 NONAME ; void QNetworkCacheMetaData::setLastModified(class QDateTime const &)
	?setProtocol@QSslConfiguration@@QAEXW4SslProtocol@QSsl@@@Z @ 1225 NONAME ; void QSslConfiguration::setProtocol(enum QSsl::SslProtocol)
	??1QHttp@@UAE@XZ @ 1226 NONAME ; QHttp::~QHttp(void)
	??4QNetworkRequest@@QAEAAV0@ABV0@@Z @ 1227 NONAME ; class QNetworkRequest & QNetworkRequest::operator=(class QNetworkRequest const &)
	?qt_metacast@QTcpServer@@UAEPAXPBD@Z @ 1228 NONAME ; void * QTcpServer::qt_metacast(char const *)
	?ignoreSslErrors@QHttp@@QAEXXZ @ 1229 NONAME ; void QHttp::ignoreSslErrors(void)
	?read@QHttpSocketEngine@@UAE_JPAD_J@Z @ 1230 NONAME ; long long QHttpSocketEngine::read(char *, long long)
	?setPeerPort@QAbstractSocket@@IAEXG@Z @ 1231 NONAME ; void QAbstractSocket::setPeerPort(unsigned short)
	?setApplicationProxyFactory@QNetworkProxyFactory@@SAXPAV1@@Z @ 1232 NONAME ; void QNetworkProxyFactory::setApplicationProxyFactory(class QNetworkProxyFactory *)
	?isNull@QHostAddress@@QBE_NXZ @ 1233 NONAME ; bool QHostAddress::isNull(void) const
	?getStaticMetaObject@QAbstractSocketEngine@@SAABUQMetaObject@@XZ @ 1234 NONAME ; struct QMetaObject const & QAbstractSocketEngine::getStaticMetaObject(void)
	??0QHttpNetworkRequest@@QAE@ABVQUrl@@W4Operation@0@W4Priority@0@@Z @ 1235 NONAME ; QHttpNetworkRequest::QHttpNetworkRequest(class QUrl const &, enum QHttpNetworkRequest::Operation, enum QHttpNetworkRequest::Priority)
	??_EQUrlInfo@@UAE@I@Z @ 1236 NONAME ; QUrlInfo::~QUrlInfo(unsigned int)
	?setContentLength@QHttpNetworkReply@@UAEX_J@Z @ 1237 NONAME ; void QHttpNetworkReply::setContentLength(long long)
	??1QSslKey@@QAE@XZ @ 1238 NONAME ; QSslKey::~QSslKey(void)
	??1QHttpSocketEngine@@UAE@XZ @ 1239 NONAME ; QHttpSocketEngine::~QHttpSocketEngine(void)
	?hasRawHeader@QNetworkReply@@QBE_NABVQByteArray@@@Z @ 1240 NONAME ; bool QNetworkReply::hasRawHeader(class QByteArray const &) const
	?qt_metacast@QLocalSocket@@UAEPAXPBD@Z @ 1241 NONAME ; void * QLocalSocket::qt_metacast(char const *)
	?finished@QNetworkAccessManager@@IAEXPAVQNetworkReply@@@Z @ 1242 NONAME ; void QNetworkAccessManager::finished(class QNetworkReply *)
	?peerVerifyMode@QSslConfiguration@@QBE?AW4PeerVerifyMode@QSslSocket@@XZ @ 1243 NONAME ; enum QSslSocket::PeerVerifyMode QSslConfiguration::peerVerifyMode(void) const
	?keyExchangeMethod@QSslCipher@@QBE?AVQString@@XZ @ 1244 NONAME ; class QString QSslCipher::keyExchangeMethod(void) const
	?encrypted@QSslSocket@@IAEXXZ @ 1245 NONAME ; void QSslSocket::encrypted(void)
	?tr@QAbstractSocketEngine@@SA?AVQString@@PBD0@Z @ 1246 NONAME ; class QString QAbstractSocketEngine::tr(char const *, char const *)
	?maxPendingConnections@QTcpServer@@QBEHXZ @ 1247 NONAME ; int QTcpServer::maxPendingConnections(void) const
	??1QAbstractNetworkCache@@UAE@XZ @ 1248 NONAME ; QAbstractNetworkCache::~QAbstractNetworkCache(void)
	?setLocalAddress@QAbstractSocket@@IAEXABVQHostAddress@@@Z @ 1249 NONAME ; void QAbstractSocket::setLocalAddress(class QHostAddress const &)
	?url@QNetworkProxyQuery@@QBE?AVQUrl@@XZ @ 1250 NONAME ; class QUrl QNetworkProxyQuery::url(void) const
	?error@QAbstractSocket@@IAEXW4SocketError@1@@Z @ 1251 NONAME ; void QAbstractSocket::error(enum QAbstractSocket::SocketError)
	??0QNetworkAddressEntry@@QAE@XZ @ 1252 NONAME ; QNetworkAddressEntry::QNetworkAddressEntry(void)
	?list@QFtp@@QAEHABVQString@@@Z @ 1253 NONAME ; int QFtp::list(class QString const &)
	?readLineData@QAbstractSocket@@MAE_JPAD_J@Z @ 1254 NONAME ; long long QAbstractSocket::readLineData(char *, long long)
	?error@QHttpNetworkConnection@@IAEXW4NetworkError@QNetworkReply@@ABVQString@@@Z @ 1255 NONAME ; void QHttpNetworkConnection::error(enum QNetworkReply::NetworkError, class QString const &)
	??_EQHttpRequestHeader@@UAE@I@Z @ 1256 NONAME ; QHttpRequestHeader::~QHttpRequestHeader(unsigned int)
	?isValid@QHttpSocketEngine@@UBE_NXZ @ 1257 NONAME ; bool QHttpSocketEngine::isValid(void) const
	?value@QNetworkCookie@@QBE?AVQByteArray@@XZ @ 1258 NONAME ; class QByteArray QNetworkCookie::value(void) const
	?sendBufferSize@QNativeSocketEngine@@QBE_JXZ @ 1259 NONAME ; long long QNativeSocketEngine::sendBufferSize(void) const
	?name@QNetworkCookie@@QBE?AVQByteArray@@XZ @ 1260 NONAME ; class QByteArray QNetworkCookie::name(void) const
	??0QHttpSocketEngine@@QAE@PAVQObject@@@Z @ 1261 NONAME ; QHttpSocketEngine::QHttpSocketEngine(class QObject *)
	??_EQSslSocket@@UAE@I@Z @ 1262 NONAME ; QSslSocket::~QSslSocket(unsigned int)
	?post@QNetworkAccessManager@@QAEPAVQNetworkReply@@ABVQNetworkRequest@@PAVQIODevice@@@Z @ 1263 NONAME ; class QNetworkReply * QNetworkAccessManager::post(class QNetworkRequest const &, class QIODevice *)
	?qt_metacall@QNetworkReply@@UAEHW4Call@QMetaObject@@HPAPAX@Z @ 1264 NONAME ; int QNetworkReply::qt_metacall(enum QMetaObject::Call, int, void * *)
	?abort@QAbstractSocket@@QAEXXZ @ 1265 NONAME ; void QAbstractSocket::abort(void)
	?setProxy@QTcpServer@@QAEXABVQNetworkProxy@@@Z @ 1266 NONAME ; void QTcpServer::setProxy(class QNetworkProxy const &)
	?sslConfiguration@QHttpNetworkReply@@QBE?AVQSslConfiguration@@XZ @ 1267 NONAME ; class QSslConfiguration QHttpNetworkReply::sslConfiguration(void) const

