EXPORTS
	?viewportEvent@QAbstractScrollAreaPrivate@@QAE_NPAVQEvent@@@Z @ 1 NONAME ; bool QAbstractScrollAreaPrivate::viewportEvent(class QEvent *)
	?load@QSvgRenderer@@QAE_NABVQString@@@Z @ 2 NONAME ; bool QSvgRenderer::load(class QString const &)
	?beginEditBlock@QTextDocumentPrivate@@QAEXXZ @ 3 NONAME ; void QTextDocumentPrivate::beginEditBlock(void)
	?redo@QTextDocumentPrivate@@QAEXXZ @ 4 NONAME ; void QTextDocumentPrivate::redo(void)
	?namedNode@QSvgTinyDocument@@QBEPAVQSvgNode@@ABVQString@@@Z @ 5 NONAME ; class QSvgNode * QSvgTinyDocument::namedNode(class QString const &) const
	?addCursor@QTextDocumentPrivate@@QAEXPAVQTextCursorPrivate@@@Z @ 6 NONAME ; void QTextDocumentPrivate::addCursor(class QTextCursorPrivate *)
	?setMaximumCacheSize@QGraphicsSvgItem@@QAEXABVQSize@@@Z @ 7 NONAME ; void QGraphicsSvgItem::setMaximumCacheSize(class QSize const &)
	?isUndoRedoEnabled@QTextDocumentPrivate@@QBE_NXZ @ 8 NONAME ; bool QTextDocumentPrivate::isUndoRedoEnabled(void) const
	??1QSvgWidget@@UAE@XZ @ 9 NONAME ; QSvgWidget::~QSvgWidget(void)
	?setDefaultFont@QTextDocumentPrivate@@QAEXABVQFont@@@Z @ 10 NONAME ; void QTextDocumentPrivate::setDefaultFont(class QFont const &)
	?height@QSvgTinyDocument@@QBEHXZ @ 11 NONAME ; int QSvgTinyDocument::height(void) const
	?load@QSvgWidget@@QAEXABVQString@@@Z @ 12 NONAME ; void QSvgWidget::load(class QString const &)
	?d_func@QGraphicsSvgItem@@ABEPBVQGraphicsSvgItemPrivate@@XZ @ 13 NONAME ; class QGraphicsSvgItemPrivate const * QGraphicsSvgItem::d_func(void) const
	?d_func@QGraphicsSvgItem@@AAEPAVQGraphicsSvgItemPrivate@@XZ @ 14 NONAME ; class QGraphicsSvgItemPrivate * QGraphicsSvgItem::d_func(void)
	?render@QSvgRenderer@@QAEXPAVQPainter@@ABVQString@@ABVQRectF@@@Z @ 15 NONAME ; void QSvgRenderer::render(class QPainter *, class QString const &, class QRectF const &)
	?trUtf8@QGraphicsSvgItem@@SA?AVQString@@PBD0@Z @ 16 NONAME ; class QString QGraphicsSvgItem::trUtf8(char const *, char const *)
	?removeCursor@QTextDocumentPrivate@@QAEXPAVQTextCursorPrivate@@@Z @ 17 NONAME ; void QTextDocumentPrivate::removeCursor(class QTextCursorPrivate *)
	?draw@QSvgTinyDocument@@UAEXPAVQPainter@@AAUQSvgExtraStates@@@Z @ 18 NONAME ; void QSvgTinyDocument::draw(class QPainter *, struct QSvgExtraStates &)
	?tr@QSvgRenderer@@SA?AVQString@@PBD0@Z @ 19 NONAME ; class QString QSvgRenderer::tr(char const *, char const *)
	?elementExists@QSvgRenderer@@QBE_NABVQString@@@Z @ 20 NONAME ; bool QSvgRenderer::elementExists(class QString const &) const
	?repaintNeeded@QSvgRenderer@@IAEXXZ @ 21 NONAME ; void QSvgRenderer::repaintNeeded(void)
	?isRedoAvailable@QTextDocumentPrivate@@QBE_NXZ @ 22 NONAME ; bool QTextDocumentPrivate::isRedoAvailable(void) const
	?qt_metacast@QSvgWidget@@UAEPAXPBD@Z @ 23 NONAME ; void * QSvgWidget::qt_metacast(char const *)
	??_EQSvgRenderer@@UAE@I@Z @ 24 NONAME ; QSvgRenderer::~QSvgRenderer(unsigned int)
	?d_func@QSvgGenerator@@ABEPBVQSvgGeneratorPrivate@@XZ @ 25 NONAME ; class QSvgGeneratorPrivate const * QSvgGenerator::d_func(void) const
	?animationDuration@QSvgTinyDocument@@QBEHXZ @ 26 NONAME ; int QSvgTinyDocument::animationDuration(void) const
	?begin@QTextDocumentPrivate@@QBE?AVConstIterator@?$QFragmentMap@VQTextFragmentData@@@@XZ @ 27 NONAME ; class QFragmentMap<class QTextFragmentData>::ConstIterator QTextDocumentPrivate::begin(void) const
	??0QSvgGenerator@@QAE@XZ @ 28 NONAME ; QSvgGenerator::QSvgGenerator(void)
	?load@QSvgRenderer@@QAE_NPAVQXmlStreamReader@@@Z @ 29 NONAME ; bool QSvgRenderer::load(class QXmlStreamReader *)
	?d_func@QSvgWidget@@ABEPBVQSvgWidgetPrivate@@XZ @ 30 NONAME ; class QSvgWidgetPrivate const * QSvgWidget::d_func(void) const
	?fileName@QSvgGenerator@@QBE?AVQString@@XZ @ 31 NONAME ; class QString QSvgGenerator::fileName(void) const
	?outputDevice@QSvgGenerator@@QBEPAVQIODevice@@XZ @ 32 NONAME ; class QIODevice * QSvgGenerator::outputDevice(void) const
	?document@QTextDocumentPrivate@@QAEPAVQTextDocument@@XZ @ 33 NONAME ; class QTextDocument * QTextDocumentPrivate::document(void)
	?svgFont@QSvgTinyDocument@@QBEPAVQSvgFont@@ABVQString@@@Z @ 34 NONAME ; class QSvgFont * QSvgTinyDocument::svgFont(class QString const &) const
	?paintEvent@QSvgWidget@@MAEXPAVQPaintEvent@@@Z @ 35 NONAME ; void QSvgWidget::paintEvent(class QPaintEvent *)
	?paint@QGraphicsSvgItem@@UAEXPAVQPainter@@PBVQStyleOptionGraphicsItem@@PAVQWidget@@@Z @ 36 NONAME ; void QGraphicsSvgItem::paint(class QPainter *, class QStyleOptionGraphicsItem const *, class QWidget *)
	?qt_metacall@QSvgRenderer@@UAEHW4Call@QMetaObject@@HPAPAX@Z @ 37 NONAME ; int QSvgRenderer::qt_metacall(enum QMetaObject::Call, int, void * *)
	?height@QScriptItem@@QBE?AUQFixed@@XZ @ 38 NONAME ; struct QFixed QScriptItem::height(void) const
	?qt_metacast@QGraphicsSvgItem@@UAEPAXPBD@Z @ 39 NONAME ; void * QGraphicsSvgItem::qt_metacast(char const *)
	??_EQGraphicsSvgItem@@UAE@I@Z @ 40 NONAME ; QGraphicsSvgItem::~QGraphicsSvgItem(unsigned int)
	?render@QSvgRenderer@@QAEXPAVQPainter@@ABVQRectF@@@Z @ 41 NONAME ; void QSvgRenderer::render(class QPainter *, class QRectF const &)
	?q_func@QAbstractScrollAreaPrivate@@ABEPBVQAbstractScrollArea@@XZ @ 42 NONAME ; class QAbstractScrollArea const * QAbstractScrollAreaPrivate::q_func(void) const
	?setFramesPerSecond@QSvgRenderer@@QAEXH@Z @ 43 NONAME ; void QSvgRenderer::setFramesPerSecond(int)
	??0QScriptItem@@QAE@XZ @ 44 NONAME ; QScriptItem::QScriptItem(void)
	??0QSvgRenderer@@QAE@ABVQByteArray@@PAVQObject@@@Z @ 45 NONAME ; QSvgRenderer::QSvgRenderer(class QByteArray const &, class QObject *)
	?boundsOnElement@QSvgRenderer@@QBE?AVQRectF@@ABVQString@@@Z @ 46 NONAME ; class QRectF QSvgRenderer::boundsOnElement(class QString const &) const
	?draw@QSvgTinyDocument@@QAEXPAVQPainter@@ABVQRectF@@@Z @ 47 NONAME ; void QSvgTinyDocument::draw(class QPainter *, class QRectF const &)
	?currentElapsed@QSvgTinyDocument@@QBEHXZ @ 48 NONAME ; int QSvgTinyDocument::currentElapsed(void) const
	?setFramesPerSecond@QSvgTinyDocument@@QAEXH@Z @ 49 NONAME ; void QSvgTinyDocument::setFramesPerSecond(int)
	?formatCollection@QTextDocumentPrivate@@QBEPBVQTextFormatCollection@@XZ @ 50 NONAME ; class QTextFormatCollection const * QTextDocumentPrivate::formatCollection(void) const
	??0QSvgRenderer@@QAE@PAVQXmlStreamReader@@PAVQObject@@@Z @ 51 NONAME ; QSvgRenderer::QSvgRenderer(class QXmlStreamReader *, class QObject *)
	?addNamedStyle@QSvgTinyDocument@@QAEXABVQString@@PAVQSvgFillStyleProperty@@@Z @ 52 NONAME ; void QSvgTinyDocument::addNamedStyle(class QString const &, class QSvgFillStyleProperty *)
	?q_func@QAbstractScrollAreaPrivate@@AAEPAVQAbstractScrollArea@@XZ @ 53 NONAME ; class QAbstractScrollArea * QAbstractScrollAreaPrivate::q_func(void)
	??0QGraphicsSvgItem@@QAE@ABVQString@@PAVQGraphicsItem@@@Z @ 54 NONAME ; QGraphicsSvgItem::QGraphicsSvgItem(class QString const &, class QGraphicsItem *)
	??_EQSvgGenerator@@UAE@I@Z @ 55 NONAME ; QSvgGenerator::~QSvgGenerator(unsigned int)
	?staticMetaObject@QGraphicsSvgItem@@2UQMetaObject@@B @ 56 NONAME ; struct QMetaObject const QGraphicsSvgItem::staticMetaObject
	?height@QScriptLine@@QBE?AUQFixed@@XZ @ 57 NONAME ; struct QFixed QScriptLine::height(void) const
	?blockMap@QTextDocumentPrivate@@QAEAAV?$QFragmentMap@VQTextBlockData@@@@XZ @ 58 NONAME ; class QFragmentMap<class QTextBlockData> & QTextDocumentPrivate::blockMap(void)
	?render@QSvgRenderer@@QAEXPAVQPainter@@@Z @ 59 NONAME ; void QSvgRenderer::render(class QPainter *)
	??1QSvgRenderer@@UAE@XZ @ 60 NONAME ; QSvgRenderer::~QSvgRenderer(void)
	??0QSvgRenderer@@QAE@PAVQObject@@@Z @ 61 NONAME ; QSvgRenderer::QSvgRenderer(class QObject *)
	??8QScriptAnalysis@@QBE_NABU0@@Z @ 62 NONAME ; bool QScriptAnalysis::operator==(struct QScriptAnalysis const &) const
	?viewBox@QSvgRenderer@@QBE?AVQRect@@XZ @ 63 NONAME ; class QRect QSvgRenderer::viewBox(void) const
	?isModified@QTextDocumentPrivate@@QBE_NXZ @ 64 NONAME ; bool QTextDocumentPrivate::isModified(void) const
	?resolution@QSvgGenerator@@QBEHXZ @ 65 NONAME ; int QSvgGenerator::resolution(void) const
	?staticMetaObject@QSvgRenderer@@2UQMetaObject@@B @ 66 NONAME ; struct QMetaObject const QSvgRenderer::staticMetaObject
	?setViewBox@QSvgRenderer@@QAEXABVQRectF@@@Z @ 67 NONAME ; void QSvgRenderer::setViewBox(class QRectF const &)
	?q_func@QGraphicsViewPrivate@@AAEPAVQGraphicsView@@XZ @ 68 NONAME ; class QGraphicsView * QGraphicsViewPrivate::q_func(void)
	?setDescription@QSvgGenerator@@QAEXABVQString@@@Z @ 69 NONAME ; void QSvgGenerator::setDescription(class QString const &)
	?dispatchPendingUpdateRequests@QGraphicsViewPrivate@@QAEXXZ @ 70 NONAME ; void QGraphicsViewPrivate::dispatchPendingUpdateRequests(void)
	?isUndoAvailable@QTextDocumentPrivate@@QBE_NXZ @ 71 NONAME ; bool QTextDocumentPrivate::isUndoAvailable(void) const
	?type@QGraphicsSvgItem@@UBEHXZ @ 72 NONAME ; int QGraphicsSvgItem::type(void) const
	?size@QSvgTinyDocument@@QBE?AVQSize@@XZ @ 73 NONAME ; class QSize QSvgTinyDocument::size(void) const
	?setResolution@QSvgGenerator@@QAEXH@Z @ 74 NONAME ; void QSvgGenerator::setResolution(int)
	?setViewBox@QSvgTinyDocument@@QAEXABVQRectF@@@Z @ 75 NONAME ; void QSvgTinyDocument::setViewBox(class QRectF const &)
	??0QScriptItem@@QAE@HABUQScriptAnalysis@@@Z @ 76 NONAME ; QScriptItem::QScriptItem(int, struct QScriptAnalysis const &)
	?type@QSvgTinyDocument@@UBE?AW4Type@QSvgNode@@XZ @ 77 NONAME ; enum QSvgNode::Type QSvgTinyDocument::type(void) const
	?renderer@QSvgWidget@@QBEPAVQSvgRenderer@@XZ @ 78 NONAME ; class QSvgRenderer * QSvgWidget::renderer(void) const
	?trUtf8@QSvgRenderer@@SA?AVQString@@PBD0@Z @ 79 NONAME ; class QString QSvgRenderer::trUtf8(char const *, char const *)
	?setSize@QSvgGenerator@@QAEXABVQSize@@@Z @ 80 NONAME ; void QSvgGenerator::setSize(class QSize const &)
	?numBlocks@QTextDocumentPrivate@@QBEHXZ @ 81 NONAME ; int QTextDocumentPrivate::numBlocks(void) const
	?elementExists@QSvgTinyDocument@@QBE_NABVQString@@@Z @ 82 NONAME ; bool QSvgTinyDocument::elementExists(class QString const &) const
	?fragmentMap@QTextDocumentPrivate@@QAEAAV?$QFragmentMap@VQTextFragmentData@@@@XZ @ 83 NONAME ; class QFragmentMap<class QTextFragmentData> & QTextDocumentPrivate::fragmentMap(void)
	?description@QSvgGenerator@@QBE?AVQString@@XZ @ 84 NONAME ; class QString QSvgGenerator::description(void) const
	?setCurrentFrame@QSvgRenderer@@QAEXH@Z @ 85 NONAME ; void QSvgRenderer::setCurrentFrame(int)
	?load@QSvgRenderer@@QAE_NABVQByteArray@@@Z @ 86 NONAME ; bool QSvgRenderer::load(class QByteArray const &)
	?currentFrame@QSvgRenderer@@QBEHXZ @ 87 NONAME ; int QSvgRenderer::currentFrame(void) const
	?tr@QGraphicsSvgItem@@SA?AVQString@@PBD0@Z @ 88 NONAME ; class QString QGraphicsSvgItem::tr(char const *, char const *)
	?getStaticMetaObject@QGraphicsSvgItem@@SAABUQMetaObject@@XZ @ 89 NONAME ; struct QMetaObject const & QGraphicsSvgItem::getStaticMetaObject(void)
	?setHeight@QSvgTinyDocument@@QAEXH_N@Z @ 90 NONAME ; void QSvgTinyDocument::setHeight(int, bool)
	?boundsOnElement@QSvgTinyDocument@@QBE?AVQRectF@@ABVQString@@@Z @ 91 NONAME ; class QRectF QSvgTinyDocument::boundsOnElement(class QString const &) const
	?draw@QSvgTinyDocument@@QAEXPAVQPainter@@@Z @ 92 NONAME ; void QSvgTinyDocument::draw(class QPainter *)
	?qt_metacall@QGraphicsSvgItem@@UAEHW4Call@QMetaObject@@HPAPAX@Z @ 93 NONAME ; int QGraphicsSvgItem::qt_metacall(enum QMetaObject::Call, int, void * *)
	?fragmentMap@QTextDocumentPrivate@@QBEABV?$QFragmentMap@VQTextFragmentData@@@@XZ @ 94 NONAME ; class QFragmentMap<class QTextFragmentData> const & QTextDocumentPrivate::fragmentMap(void) const
	?metaObject@QSvgWidget@@UBEPBUQMetaObject@@XZ @ 95 NONAME ; struct QMetaObject const * QSvgWidget::metaObject(void) const
	??_EQSvgTinyDocument@@UAE@I@Z @ 96 NONAME ; QSvgTinyDocument::~QSvgTinyDocument(unsigned int)
	?getStaticMetaObject@QSvgWidget@@SAABUQMetaObject@@XZ @ 97 NONAME ; struct QMetaObject const & QSvgWidget::getStaticMetaObject(void)
	??0QSvgTinyDocument@@QAE@XZ @ 98 NONAME ; QSvgTinyDocument::QSvgTinyDocument(void)
	?paintEngine@QSvgGenerator@@MBEPAVQPaintEngine@@XZ @ 99 NONAME ; class QPaintEngine * QSvgGenerator::paintEngine(void) const
	?animated@QSvgTinyDocument@@QBE_NXZ @ 100 NONAME ; bool QSvgTinyDocument::animated(void) const
	?staticMetaObject@QSvgWidget@@2UQMetaObject@@B @ 101 NONAME ; struct QMetaObject const QSvgWidget::staticMetaObject
	?buffer@QTextDocumentPrivate@@QBE?AVQString@@XZ @ 102 NONAME ; class QString QTextDocumentPrivate::buffer(void) const
	?length@QTextDocumentPrivate@@QBEHXZ @ 103 NONAME ; int QTextDocumentPrivate::length(void) const
	?sizeHint@QSvgWidget@@UBE?AVQSize@@XZ @ 104 NONAME ; class QSize QSvgWidget::sizeHint(void) const
	?undo@QTextDocumentPrivate@@QAEXXZ @ 105 NONAME ; void QTextDocumentPrivate::undo(void)
	?tr@QSvgRenderer@@SA?AVQString@@PBD0H@Z @ 106 NONAME ; class QString QSvgRenderer::tr(char const *, char const *, int)
	?d_func@QSvgGenerator@@AAEPAVQSvgGeneratorPrivate@@XZ @ 107 NONAME ; class QSvgGeneratorPrivate * QSvgGenerator::d_func(void)
	?q_func@QTextDocumentPrivate@@AAEPAVQTextDocument@@XZ @ 108 NONAME ; class QTextDocument * QTextDocumentPrivate::q_func(void)
	?widthPercent@QSvgTinyDocument@@QBE_NXZ @ 109 NONAME ; bool QSvgTinyDocument::widthPercent(void) const
	?qt_metacall@QSvgWidget@@UAEHW4Call@QMetaObject@@HPAPAX@Z @ 110 NONAME ; int QSvgWidget::qt_metacall(enum QMetaObject::Call, int, void * *)
	?blocksFind@QTextDocumentPrivate@@QBE?AVQTextBlock@@H@Z @ 111 NONAME ; class QTextBlock QTextDocumentPrivate::blocksFind(int) const
	?isInEditBlock@QTextDocumentPrivate@@QBE_NXZ @ 112 NONAME ; bool QTextDocumentPrivate::isInEditBlock(void) const
	?document@QTextDocumentPrivate@@QBEPBVQTextDocument@@XZ @ 113 NONAME ; class QTextDocument const * QTextDocumentPrivate::document(void) const
	?setWidth@QSvgTinyDocument@@QAEXH_N@Z @ 114 NONAME ; void QSvgTinyDocument::setWidth(int, bool)
	?updateAll@QGraphicsViewPrivate@@QAEXXZ @ 115 NONAME ; void QGraphicsViewPrivate::updateAll(void)
	?block@QTextDocumentPrivate@@SAPBVQTextBlockData@@ABVQTextBlock@@@Z @ 116 NONAME ; class QTextBlockData const * QTextDocumentPrivate::block(class QTextBlock const &)
	?blocksEnd@QTextDocumentPrivate@@QBE?AVQTextBlock@@XZ @ 117 NONAME ; class QTextBlock QTextDocumentPrivate::blocksEnd(void) const
	?trUtf8@QSvgWidget@@SA?AVQString@@PBD0@Z @ 118 NONAME ; class QString QSvgWidget::trUtf8(char const *, char const *)
	??0QSvgRenderer@@QAE@ABVQString@@PAVQObject@@@Z @ 119 NONAME ; QSvgRenderer::QSvgRenderer(class QString const &, class QObject *)
	?matrixForElement@QSvgTinyDocument@@QBE?AVQMatrix@@ABVQString@@@Z @ 120 NONAME ; class QMatrix QSvgTinyDocument::matrixForElement(class QString const &) const
	?getStaticMetaObject@QSvgRenderer@@SAABUQMetaObject@@XZ @ 121 NONAME ; struct QMetaObject const & QSvgRenderer::getStaticMetaObject(void)
	?title@QSvgGenerator@@QBE?AVQString@@XZ @ 122 NONAME ; class QString QSvgGenerator::title(void) const
	?size@QSvgGenerator@@QBE?AVQSize@@XZ @ 123 NONAME ; class QSize QSvgGenerator::size(void) const
	?end@QTextDocumentPrivate@@QBE?AVConstIterator@?$QFragmentMap@VQTextFragmentData@@@@XZ @ 124 NONAME ; class QFragmentMap<class QTextFragmentData>::ConstIterator QTextDocumentPrivate::end(void) const
	?viewBoxF@QSvgRenderer@@QBE?AVQRectF@@XZ @ 125 NONAME ; class QRectF QSvgRenderer::viewBoxF(void) const
	?isCachingEnabled@QGraphicsSvgItem@@QBE_NXZ @ 126 NONAME ; bool QGraphicsSvgItem::isCachingEnabled(void) const
	?defaultSize@QSvgRenderer@@QBE?AVQSize@@XZ @ 127 NONAME ; class QSize QSvgRenderer::defaultSize(void) const
	?setTitle@QSvgGenerator@@QAEXABVQString@@@Z @ 128 NONAME ; void QSvgGenerator::setTitle(class QString const &)
	?load@QSvgTinyDocument@@SAPAV1@PAVQXmlStreamReader@@@Z @ 129 NONAME ; class QSvgTinyDocument * QSvgTinyDocument::load(class QXmlStreamReader *)
	??_EQSvgWidget@@UAE@I@Z @ 130 NONAME ; QSvgWidget::~QSvgWidget(unsigned int)
	?d_func@QSvgRenderer@@ABEPBVQSvgRendererPrivate@@XZ @ 131 NONAME ; class QSvgRendererPrivate const * QSvgRenderer::d_func(void) const
	?animated@QSvgRenderer@@QBE_NXZ @ 132 NONAME ; bool QSvgRenderer::animated(void) const
	?metric@QSvgGenerator@@MBEHW4PaintDeviceMetric@QPaintDevice@@@Z @ 133 NONAME ; int QSvgGenerator::metric(enum QPaintDevice::PaintDeviceMetric) const
	?matrixForElement@QSvgRenderer@@QBE?AVQMatrix@@ABVQString@@@Z @ 134 NONAME ; class QMatrix QSvgRenderer::matrixForElement(class QString const &) const
	?layout@QTextDocumentPrivate@@QBEPAVQAbstractTextDocumentLayout@@XZ @ 135 NONAME ; class QAbstractTextDocumentLayout * QTextDocumentPrivate::layout(void) const
	??1QGraphicsSvgItem@@UAE@XZ @ 136 NONAME ; QGraphicsSvgItem::~QGraphicsSvgItem(void)
	?d_func@QSvgRenderer@@AAEPAVQSvgRendererPrivate@@XZ @ 137 NONAME ; class QSvgRendererPrivate * QSvgRenderer::d_func(void)
	?qt_metacast@QSvgRenderer@@UAEPAXPBD@Z @ 138 NONAME ; void * QSvgRenderer::qt_metacast(char const *)
	??1QSvgGenerator@@UAE@XZ @ 139 NONAME ; QSvgGenerator::~QSvgGenerator(void)
	??1QSvgTinyDocument@@UAE@XZ @ 140 NONAME ; QSvgTinyDocument::~QSvgTinyDocument(void)
	?load@QSvgTinyDocument@@SAPAV1@ABVQByteArray@@@Z @ 141 NONAME ; class QSvgTinyDocument * QSvgTinyDocument::load(class QByteArray const &)
	?d_func@QSvgWidget@@AAEPAVQSvgWidgetPrivate@@XZ @ 142 NONAME ; class QSvgWidgetPrivate * QSvgWidget::d_func(void)
	?isValid@QSvgRenderer@@QBE_NXZ @ 143 NONAME ; bool QSvgRenderer::isValid(void) const
	?metaObject@QSvgRenderer@@UBEPBUQMetaObject@@XZ @ 144 NONAME ; struct QMetaObject const * QSvgRenderer::metaObject(void) const
	?addSvgFont@QSvgTinyDocument@@QAEXPAVQSvgFont@@@Z @ 145 NONAME ; void QSvgTinyDocument::addSvgFont(class QSvgFont *)
	??0QScriptLine@@QAE@XZ @ 146 NONAME ; QScriptLine::QScriptLine(void)
	?viewBoxF@QSvgGenerator@@QBE?AVQRectF@@XZ @ 147 NONAME ; class QRectF QSvgGenerator::viewBoxF(void) const
	?tr@QSvgWidget@@SA?AVQString@@PBD0H@Z @ 148 NONAME ; class QString QSvgWidget::tr(char const *, char const *, int)
	?addNamedNode@QSvgTinyDocument@@QAEXABVQString@@PAVQSvgNode@@@Z @ 149 NONAME ; void QSvgTinyDocument::addNamedNode(class QString const &, class QSvgNode *)
	?tr@QSvgWidget@@SA?AVQString@@PBD0@Z @ 150 NONAME ; class QString QSvgWidget::tr(char const *, char const *)
	?q_func@QGraphicsViewPrivate@@ABEPBVQGraphicsView@@XZ @ 151 NONAME ; class QGraphicsView const * QGraphicsViewPrivate::q_func(void) const
	??0QSvgWidget@@QAE@PAVQWidget@@@Z @ 152 NONAME ; QSvgWidget::QSvgWidget(class QWidget *)
	?namedStyle@QSvgTinyDocument@@QBEPAVQSvgFillStyleProperty@@ABVQString@@@Z @ 153 NONAME ; class QSvgFillStyleProperty * QSvgTinyDocument::namedStyle(class QString const &) const
	?preserveAspectRatio@QSvgTinyDocument@@QBE_NXZ @ 154 NONAME ; bool QSvgTinyDocument::preserveAspectRatio(void) const
	?boundingRect@QGraphicsSvgItem@@UBE?AVQRectF@@XZ @ 155 NONAME ; class QRectF QGraphicsSvgItem::boundingRect(void) const
	?maximumCacheSize@QGraphicsSvgItem@@QBE?AVQSize@@XZ @ 156 NONAME ; class QSize QGraphicsSvgItem::maximumCacheSize(void) const
	?setSharedRenderer@QGraphicsSvgItem@@QAEXPAVQSvgRenderer@@@Z @ 157 NONAME ; void QGraphicsSvgItem::setSharedRenderer(class QSvgRenderer *)
	?setViewBox@QSvgRenderer@@QAEXABVQRect@@@Z @ 158 NONAME ; void QSvgRenderer::setViewBox(class QRect const &)
	?framesPerSecond@QSvgRenderer@@QBEHXZ @ 159 NONAME ; int QSvgRenderer::framesPerSecond(void) const
	?formatCollection@QTextDocumentPrivate@@QAEPAVQTextFormatCollection@@XZ @ 160 NONAME ; class QTextFormatCollection * QTextDocumentPrivate::formatCollection(void)
	?tr@QGraphicsSvgItem@@SA?AVQString@@PBD0H@Z @ 161 NONAME ; class QString QGraphicsSvgItem::tr(char const *, char const *, int)
	?restartAnimation@QSvgTinyDocument@@QAEXXZ @ 162 NONAME ; void QSvgTinyDocument::restartAnimation(void)
	?currentFrame@QSvgTinyDocument@@QBEHXZ @ 163 NONAME ; int QSvgTinyDocument::currentFrame(void) const
	?qt_inflateGZipDataFrom@@YA?AVQByteArray@@PAVQIODevice@@@Z @ 164 NONAME ; class QByteArray qt_inflateGZipDataFrom(class QIODevice *)
	?setFileName@QSvgGenerator@@QAEXABVQString@@@Z @ 165 NONAME ; void QSvgGenerator::setFileName(class QString const &)
	?renderer@QGraphicsSvgItem@@QBEPAVQSvgRenderer@@XZ @ 166 NONAME ; class QSvgRenderer * QGraphicsSvgItem::renderer(void) const
	?find@QTextDocumentPrivate@@QBE?AVConstIterator@?$QFragmentMap@VQTextFragmentData@@@@H@Z @ 167 NONAME ; class QFragmentMap<class QTextFragmentData>::ConstIterator QTextDocumentPrivate::find(int) const
	?draw@QSvgTinyDocument@@QAEXPAVQPainter@@ABVQString@@ABVQRectF@@@Z @ 168 NONAME ; void QSvgTinyDocument::draw(class QPainter *, class QString const &, class QRectF const &)
	??0Declaration@QCss@@QAE@XZ @ 169 NONAME ; QCss::Declaration::Declaration(void)
	?viewBox@QSvgGenerator@@QBE?AVQRect@@XZ @ 170 NONAME ; class QRect QSvgGenerator::viewBox(void) const
	?trUtf8@QSvgRenderer@@SA?AVQString@@PBD0H@Z @ 171 NONAME ; class QString QSvgRenderer::trUtf8(char const *, char const *, int)
	?metaObject@QGraphicsSvgItem@@UBEPBUQMetaObject@@XZ @ 172 NONAME ; struct QMetaObject const * QGraphicsSvgItem::metaObject(void) const
	?trUtf8@QSvgWidget@@SA?AVQString@@PBD0H@Z @ 173 NONAME ; class QString QSvgWidget::trUtf8(char const *, char const *, int)
	?setOutputDevice@QSvgGenerator@@QAEXPAVQIODevice@@@Z @ 174 NONAME ; void QSvgGenerator::setOutputDevice(class QIODevice *)
	?elementId@QGraphicsSvgItem@@QBE?AVQString@@XZ @ 175 NONAME ; class QString QGraphicsSvgItem::elementId(void) const
	?scrollBarPolicyChanged@QAbstractScrollAreaPrivate@@UAEXW4Orientation@Qt@@W4ScrollBarPolicy@3@@Z @ 176 NONAME ; void QAbstractScrollAreaPrivate::scrollBarPolicyChanged(enum Qt::Orientation, enum Qt::ScrollBarPolicy)
	?load@QSvgWidget@@QAEXABVQByteArray@@@Z @ 177 NONAME ; void QSvgWidget::load(class QByteArray const &)
	?viewBox@QSvgTinyDocument@@QBE?AVQRectF@@XZ @ 178 NONAME ; class QRectF QSvgTinyDocument::viewBox(void) const
	?isEmpty@Declaration@QCss@@QBE_NXZ @ 179 NONAME ; bool QCss::Declaration::isEmpty(void) const
	?setElementId@QGraphicsSvgItem@@QAEXABVQString@@@Z @ 180 NONAME ; void QGraphicsSvgItem::setElementId(class QString const &)
	?setAnimated@QSvgTinyDocument@@QAEX_N@Z @ 181 NONAME ; void QSvgTinyDocument::setAnimated(bool)
	?width@QSvgTinyDocument@@QBEHXZ @ 182 NONAME ; int QSvgTinyDocument::width(void) const
	?setCurrentFrame@QSvgTinyDocument@@QAEXH@Z @ 183 NONAME ; void QSvgTinyDocument::setCurrentFrame(int)
	?animationDuration@QSvgRenderer@@QBEHXZ @ 184 NONAME ; int QSvgRenderer::animationDuration(void) const
	?mapSourceToTarget@QSvgTinyDocument@@AAEXPAVQPainter@@ABVQRectF@@1@Z @ 185 NONAME ; void QSvgTinyDocument::mapSourceToTarget(class QPainter *, class QRectF const &, class QRectF const &)
	?setViewBox@QSvgGenerator@@QAEXABVQRectF@@@Z @ 186 NONAME ; void QSvgGenerator::setViewBox(class QRectF const &)
	??0QSvgWidget@@QAE@ABVQString@@PAVQWidget@@@Z @ 187 NONAME ; QSvgWidget::QSvgWidget(class QString const &, class QWidget *)
	??0QGraphicsSvgItem@@QAE@PAVQGraphicsItem@@@Z @ 188 NONAME ; QGraphicsSvgItem::QGraphicsSvgItem(class QGraphicsItem *)
	?load@QSvgTinyDocument@@SAPAV1@ABVQString@@@Z @ 189 NONAME ; class QSvgTinyDocument * QSvgTinyDocument::load(class QString const &)
	?setViewBox@QSvgGenerator@@QAEXABVQRect@@@Z @ 190 NONAME ; void QSvgGenerator::setViewBox(class QRect const &)
	?setCachingEnabled@QGraphicsSvgItem@@QAEX_N@Z @ 191 NONAME ; void QGraphicsSvgItem::setCachingEnabled(bool)
	??YQScriptLine@@QAEXABU0@@Z @ 192 NONAME ; void QScriptLine::operator+=(struct QScriptLine const &)
	?q_func@QTextDocumentPrivate@@ABEPBVQTextDocument@@XZ @ 193 NONAME ; class QTextDocument const * QTextDocumentPrivate::q_func(void) const
	?trUtf8@QGraphicsSvgItem@@SA?AVQString@@PBD0H@Z @ 194 NONAME ; class QString QGraphicsSvgItem::trUtf8(char const *, char const *, int)
	?defaultFont@QTextDocumentPrivate@@QBE?AVQFont@@XZ @ 195 NONAME ; class QFont QTextDocumentPrivate::defaultFont(void) const
	?blocksBegin@QTextDocumentPrivate@@QBE?AVQTextBlock@@XZ @ 196 NONAME ; class QTextBlock QTextDocumentPrivate::blocksBegin(void) const
	?blockMap@QTextDocumentPrivate@@QBEABV?$QFragmentMap@VQTextBlockData@@@@XZ @ 197 NONAME ; class QFragmentMap<class QTextBlockData> const & QTextDocumentPrivate::blockMap(void) const
	?heightPercent@QSvgTinyDocument@@QBE_NXZ @ 198 NONAME ; bool QSvgTinyDocument::heightPercent(void) const

