EXPORTS
	_Z22qt_inflateGZipDataFromP9QIODevice @ 1 NONAME
	_ZN10QSvgWidget10paintEventEP11QPaintEvent @ 2 NONAME
	_ZN10QSvgWidget11qt_metacallEN11QMetaObject4CallEiPPv @ 3 NONAME
	_ZN10QSvgWidget11qt_metacastEPKc @ 4 NONAME
	_ZN10QSvgWidget16staticMetaObjectE @ 5 NONAME DATA 16
	_ZN10QSvgWidget19getStaticMetaObjectEv @ 6 NONAME
	_ZN10QSvgWidget4loadERK10QByteArray @ 7 NONAME
	_ZN10QSvgWidget4loadERK7QString @ 8 NONAME
	_ZN10QSvgWidgetC1EP7QWidget @ 9 NONAME
	_ZN10QSvgWidgetC1ERK7QStringP7QWidget @ 10 NONAME
	_ZN10QSvgWidgetC2EP7QWidget @ 11 NONAME
	_ZN10QSvgWidgetC2ERK7QStringP7QWidget @ 12 NONAME
	_ZN10QSvgWidgetD0Ev @ 13 NONAME
	_ZN10QSvgWidgetD1Ev @ 14 NONAME
	_ZN10QSvgWidgetD2Ev @ 15 NONAME
	_ZN12QSvgRenderer10setViewBoxERK5QRect @ 16 NONAME
	_ZN12QSvgRenderer10setViewBoxERK6QRectF @ 17 NONAME
	_ZN12QSvgRenderer11qt_metacallEN11QMetaObject4CallEiPPv @ 18 NONAME
	_ZN12QSvgRenderer11qt_metacastEPKc @ 19 NONAME
	_ZN12QSvgRenderer13repaintNeededEv @ 20 NONAME
	_ZN12QSvgRenderer15setCurrentFrameEi @ 21 NONAME
	_ZN12QSvgRenderer16staticMetaObjectE @ 22 NONAME DATA 16
	_ZN12QSvgRenderer18setFramesPerSecondEi @ 23 NONAME
	_ZN12QSvgRenderer19getStaticMetaObjectEv @ 24 NONAME
	_ZN12QSvgRenderer4loadEP16QXmlStreamReader @ 25 NONAME
	_ZN12QSvgRenderer4loadERK10QByteArray @ 26 NONAME
	_ZN12QSvgRenderer4loadERK7QString @ 27 NONAME
	_ZN12QSvgRenderer6renderEP8QPainter @ 28 NONAME
	_ZN12QSvgRenderer6renderEP8QPainterRK6QRectF @ 29 NONAME
	_ZN12QSvgRenderer6renderEP8QPainterRK7QStringRK6QRectF @ 30 NONAME
	_ZN12QSvgRendererC1EP16QXmlStreamReaderP7QObject @ 31 NONAME
	_ZN12QSvgRendererC1EP7QObject @ 32 NONAME
	_ZN12QSvgRendererC1ERK10QByteArrayP7QObject @ 33 NONAME
	_ZN12QSvgRendererC1ERK7QStringP7QObject @ 34 NONAME
	_ZN12QSvgRendererC2EP16QXmlStreamReaderP7QObject @ 35 NONAME
	_ZN12QSvgRendererC2EP7QObject @ 36 NONAME
	_ZN12QSvgRendererC2ERK10QByteArrayP7QObject @ 37 NONAME
	_ZN12QSvgRendererC2ERK7QStringP7QObject @ 38 NONAME
	_ZN12QSvgRendererD0Ev @ 39 NONAME
	_ZN12QSvgRendererD1Ev @ 40 NONAME
	_ZN12QSvgRendererD2Ev @ 41 NONAME
	_ZN13QSvgGenerator10setViewBoxERK5QRect @ 42 NONAME
	_ZN13QSvgGenerator10setViewBoxERK6QRectF @ 43 NONAME
	_ZN13QSvgGenerator11setFileNameERK7QString @ 44 NONAME
	_ZN13QSvgGenerator13setResolutionEi @ 45 NONAME
	_ZN13QSvgGenerator14setDescriptionERK7QString @ 46 NONAME
	_ZN13QSvgGenerator15setOutputDeviceEP9QIODevice @ 47 NONAME
	_ZN13QSvgGenerator7setSizeERK5QSize @ 48 NONAME
	_ZN13QSvgGenerator8setTitleERK7QString @ 49 NONAME
	_ZN13QSvgGeneratorC1Ev @ 50 NONAME
	_ZN13QSvgGeneratorC2Ev @ 51 NONAME
	_ZN13QSvgGeneratorD0Ev @ 52 NONAME
	_ZN13QSvgGeneratorD1Ev @ 53 NONAME
	_ZN13QSvgGeneratorD2Ev @ 54 NONAME
	_ZN16QGraphicsSvgItem11qt_metacallEN11QMetaObject4CallEiPPv @ 55 NONAME
	_ZN16QGraphicsSvgItem11qt_metacastEPKc @ 56 NONAME
	_ZN16QGraphicsSvgItem12setElementIdERK7QString @ 57 NONAME
	_ZN16QGraphicsSvgItem16staticMetaObjectE @ 58 NONAME DATA 16
	_ZN16QGraphicsSvgItem17setCachingEnabledEb @ 59 NONAME
	_ZN16QGraphicsSvgItem17setSharedRendererEP12QSvgRenderer @ 60 NONAME
	_ZN16QGraphicsSvgItem19getStaticMetaObjectEv @ 61 NONAME
	_ZN16QGraphicsSvgItem19setMaximumCacheSizeERK5QSize @ 62 NONAME
	_ZN16QGraphicsSvgItem5paintEP8QPainterPK24QStyleOptionGraphicsItemP7QWidget @ 63 NONAME
	_ZN16QGraphicsSvgItemC1EP13QGraphicsItem @ 64 NONAME
	_ZN16QGraphicsSvgItemC1ERK7QStringP13QGraphicsItem @ 65 NONAME
	_ZN16QGraphicsSvgItemC2EP13QGraphicsItem @ 66 NONAME
	_ZN16QGraphicsSvgItemC2ERK7QStringP13QGraphicsItem @ 67 NONAME
	_ZN16QSvgTinyDocument10addSvgFontEP8QSvgFont @ 68 NONAME
	_ZN16QSvgTinyDocument10setViewBoxERK6QRectF @ 69 NONAME
	_ZN16QSvgTinyDocument11setAnimatedEb @ 70 NONAME
	_ZN16QSvgTinyDocument12addNamedNodeERK7QStringP8QSvgNode @ 71 NONAME
	_ZN16QSvgTinyDocument13addNamedStyleERK7QStringP21QSvgFillStyleProperty @ 72 NONAME
	_ZN16QSvgTinyDocument15setCurrentFrameEi @ 73 NONAME
	_ZN16QSvgTinyDocument16restartAnimationEv @ 74 NONAME
	_ZN16QSvgTinyDocument17mapSourceToTargetEP8QPainterRK6QRectFS4_ @ 75 NONAME
	_ZN16QSvgTinyDocument18setFramesPerSecondEi @ 76 NONAME
	_ZN16QSvgTinyDocument4drawEP8QPainter @ 77 NONAME
	_ZN16QSvgTinyDocument4drawEP8QPainterR15QSvgExtraStates @ 78 NONAME
	_ZN16QSvgTinyDocument4drawEP8QPainterRK6QRectF @ 79 NONAME
	_ZN16QSvgTinyDocument4drawEP8QPainterRK7QStringRK6QRectF @ 80 NONAME
	_ZN16QSvgTinyDocument4loadEP16QXmlStreamReader @ 81 NONAME
	_ZN16QSvgTinyDocument4loadERK10QByteArray @ 82 NONAME
	_ZN16QSvgTinyDocument4loadERK7QString @ 83 NONAME
	_ZN16QSvgTinyDocument8setWidthEib @ 84 NONAME
	_ZN16QSvgTinyDocument9setHeightEib @ 85 NONAME
	_ZN16QSvgTinyDocumentC1Ev @ 86 NONAME
	_ZN16QSvgTinyDocumentC2Ev @ 87 NONAME
	_ZN16QSvgTinyDocumentD0Ev @ 88 NONAME
	_ZN16QSvgTinyDocumentD1Ev @ 89 NONAME
	_ZN16QSvgTinyDocumentD2Ev @ 90 NONAME
	_ZNK10QSvgWidget10metaObjectEv @ 91 NONAME
	_ZNK10QSvgWidget8rendererEv @ 92 NONAME
	_ZNK10QSvgWidget8sizeHintEv @ 93 NONAME
	_ZNK12QSvgRenderer10metaObjectEv @ 94 NONAME
	_ZNK12QSvgRenderer11defaultSizeEv @ 95 NONAME
	_ZNK12QSvgRenderer12currentFrameEv @ 96 NONAME
	_ZNK12QSvgRenderer13elementExistsERK7QString @ 97 NONAME
	_ZNK12QSvgRenderer15boundsOnElementERK7QString @ 98 NONAME
	_ZNK12QSvgRenderer15framesPerSecondEv @ 99 NONAME
	_ZNK12QSvgRenderer16matrixForElementERK7QString @ 100 NONAME
	_ZNK12QSvgRenderer17animationDurationEv @ 101 NONAME
	_ZNK12QSvgRenderer7isValidEv @ 102 NONAME
	_ZNK12QSvgRenderer7viewBoxEv @ 103 NONAME
	_ZNK12QSvgRenderer8animatedEv @ 104 NONAME
	_ZNK12QSvgRenderer8viewBoxFEv @ 105 NONAME
	_ZNK13QSvgGenerator10resolutionEv @ 106 NONAME
	_ZNK13QSvgGenerator11descriptionEv @ 107 NONAME
	_ZNK13QSvgGenerator11paintEngineEv @ 108 NONAME
	_ZNK13QSvgGenerator12outputDeviceEv @ 109 NONAME
	_ZNK13QSvgGenerator4sizeEv @ 110 NONAME
	_ZNK13QSvgGenerator5titleEv @ 111 NONAME
	_ZNK13QSvgGenerator6metricEN12QPaintDevice17PaintDeviceMetricE @ 112 NONAME
	_ZNK13QSvgGenerator7viewBoxEv @ 113 NONAME
	_ZNK13QSvgGenerator8fileNameEv @ 114 NONAME
	_ZNK13QSvgGenerator8viewBoxFEv @ 115 NONAME
	_ZNK16QGraphicsSvgItem10metaObjectEv @ 116 NONAME
	_ZNK16QGraphicsSvgItem12boundingRectEv @ 117 NONAME
	_ZNK16QGraphicsSvgItem16isCachingEnabledEv @ 118 NONAME
	_ZNK16QGraphicsSvgItem16maximumCacheSizeEv @ 119 NONAME
	_ZNK16QGraphicsSvgItem4typeEv @ 120 NONAME
	_ZNK16QGraphicsSvgItem8rendererEv @ 121 NONAME
	_ZNK16QGraphicsSvgItem9elementIdEv @ 122 NONAME
	_ZNK16QSvgTinyDocument10namedStyleERK7QString @ 123 NONAME
	_ZNK16QSvgTinyDocument12currentFrameEv @ 124 NONAME
	_ZNK16QSvgTinyDocument13elementExistsERK7QString @ 125 NONAME
	_ZNK16QSvgTinyDocument15boundsOnElementERK7QString @ 126 NONAME
	_ZNK16QSvgTinyDocument16matrixForElementERK7QString @ 127 NONAME
	_ZNK16QSvgTinyDocument4typeEv @ 128 NONAME
	_ZNK16QSvgTinyDocument7svgFontERK7QString @ 129 NONAME
	_ZNK16QSvgTinyDocument8animatedEv @ 130 NONAME
	_ZNK16QSvgTinyDocument9namedNodeERK7QString @ 131 NONAME
	_ZTI10QSvgWidget @ 132 NONAME
	_ZTI12QSvgRenderer @ 133 NONAME
	_ZTI13QSvgGenerator @ 134 NONAME
	_ZTI16QGraphicsSvgItem @ 135 NONAME
	_ZTI16QSvgTinyDocument @ 136 NONAME
	_ZTV10QSvgWidget @ 137 NONAME
	_ZTV12QSvgRenderer @ 138 NONAME
	_ZTV13QSvgGenerator @ 139 NONAME
	_ZTV16QGraphicsSvgItem @ 140 NONAME
	_ZTV16QSvgTinyDocument @ 141 NONAME
	_ZThn8_N10QSvgWidgetD0Ev @ 142 NONAME
	_ZThn8_N10QSvgWidgetD1Ev @ 143 NONAME
	_ZThn8_N16QGraphicsSvgItem5paintEP8QPainterPK24QStyleOptionGraphicsItemP7QWidget @ 144 NONAME
	_ZThn8_NK16QGraphicsSvgItem12boundingRectEv @ 145 NONAME
	_ZThn8_NK16QGraphicsSvgItem4typeEv @ 146 NONAME

