EXPORTS
	_Z10qt_drt_runb @ 1 NONAME
	_Z14qWebKitVersionv @ 2 NONAME
	_Z19qWebKitMajorVersionv @ 3 NONAME
	_Z19qWebKitMinorVersionv @ 4 NONAME
	_Z20qt_dump_frame_loaderb @ 5 NONAME
	_Z20qt_webpage_groupNameP8QWebPage @ 6 NONAME
	_Z21qt_drt_clearFrameNameP9QWebFrame @ 7 NONAME
	_Z21qt_drt_pauseAnimationP9QWebFrameRK7QStringdS3_ @ 8 NONAME
	_Z23qt_webpage_setGroupNameP8QWebPageRK7QString @ 9 NONAME
	_Z25qt_dump_editing_callbacksb @ 10 NONAME
	_Z27qt_dump_set_accepts_editingb @ 11 NONAME
	_Z29qt_drt_javaScriptObjectsCountv @ 12 NONAME
	_Z31qt_drt_garbageCollector_collectv @ 13 NONAME
	_Z31qt_drt_numberOfActiveAnimationsP9QWebFrame @ 14 NONAME
	_Z31qt_dump_resource_load_callbacksb @ 15 NONAME
	_Z32qt_drt_pauseTransitionOfPropertyP9QWebFrameRK7QStringdS3_ @ 16 NONAME
	_Z33qt_drt_overwritePluginDirectoriesv @ 17 NONAME
	_Z36qt_drt_setJavaScriptProfilingEnabledP9QWebFrameb @ 18 NONAME
	_Z48qt_drt_garbageCollector_collectOnAlternateThreadb @ 19 NONAME
	_ZN11QWebElement11encloseWithERK7QString @ 20 NONAME
	_ZN11QWebElement11encloseWithERKS_ @ 21 NONAME
	_ZN11QWebElement11removeClassERK7QString @ 22 NONAME
	_ZN11QWebElement11setInnerXmlERK7QString @ 23 NONAME
	_ZN11QWebElement11setOuterXmlERK7QString @ 24 NONAME
	_ZN11QWebElement11toggleClassERK7QString @ 25 NONAME
	_ZN11QWebElement12appendInsideERK7QString @ 26 NONAME
	_ZN11QWebElement12appendInsideERKS_ @ 27 NONAME
	_ZN11QWebElement12setAttributeERK7QStringS2_ @ 28 NONAME
	_ZN11QWebElement12setPlainTextERK7QString @ 29 NONAME
	_ZN11QWebElement13appendOutsideERK7QString @ 30 NONAME
	_ZN11QWebElement13appendOutsideERKS_ @ 31 NONAME
	_ZN11QWebElement13prependInsideERK7QString @ 32 NONAME
	_ZN11QWebElement13prependInsideERKS_ @ 33 NONAME
	_ZN11QWebElement14prependOutsideERK7QString @ 34 NONAME
	_ZN11QWebElement14prependOutsideERKS_ @ 35 NONAME
	_ZN11QWebElement14removeChildrenEv @ 36 NONAME
	_ZN11QWebElement14setAttributeNSERK7QStringS2_S2_ @ 37 NONAME
	_ZN11QWebElement15removeAttributeERK7QString @ 38 NONAME
	_ZN11QWebElement16enclosingElementEPN7WebCore4NodeE @ 39 NONAME
	_ZN11QWebElement16setStylePropertyERK7QStringS2_ @ 40 NONAME
	_ZN11QWebElement16takeFromDocumentEv @ 41 NONAME
	_ZN11QWebElement17removeAttributeNSERK7QStringS2_ @ 42 NONAME
	_ZN11QWebElement18evaluateJavaScriptERK7QString @ 43 NONAME
	_ZN11QWebElement18removeFromDocumentEv @ 44 NONAME
	_ZN11QWebElement19encloseContentsWithERK7QString @ 45 NONAME
	_ZN11QWebElement19encloseContentsWithERKS_ @ 46 NONAME
	_ZN11QWebElement6renderEP8QPainter @ 47 NONAME
	_ZN11QWebElement7replaceERK7QString @ 48 NONAME
	_ZN11QWebElement7replaceERKS_ @ 49 NONAME
	_ZN11QWebElement8addClassERK7QString @ 50 NONAME
	_ZN11QWebElement8setFocusEv @ 51 NONAME
	_ZN11QWebElementC1EPN7WebCore4NodeE @ 52 NONAME
	_ZN11QWebElementC1EPN7WebCore7ElementE @ 53 NONAME
	_ZN11QWebElementC1ERKS_ @ 54 NONAME
	_ZN11QWebElementC1Ev @ 55 NONAME
	_ZN11QWebElementC2EPN7WebCore4NodeE @ 56 NONAME
	_ZN11QWebElementC2EPN7WebCore7ElementE @ 57 NONAME
	_ZN11QWebElementC2ERKS_ @ 58 NONAME
	_ZN11QWebElementC2Ev @ 59 NONAME
	_ZN11QWebElementD1Ev @ 60 NONAME
	_ZN11QWebElementD2Ev @ 61 NONAME
	_ZN11QWebElementaSERKS_ @ 62 NONAME
	_ZN11QWebHistory12restoreStateERK10QByteArray @ 63 NONAME
	_ZN11QWebHistory19setMaximumItemCountEi @ 64 NONAME
	_ZN11QWebHistory4backEv @ 65 NONAME
	_ZN11QWebHistory5clearEv @ 66 NONAME
	_ZN11QWebHistory7forwardEv @ 67 NONAME
	_ZN11QWebHistory8goToItemERK15QWebHistoryItem @ 68 NONAME
	_ZN11QWebHistoryC1Ev @ 69 NONAME
	_ZN11QWebHistoryC2Ev @ 70 NONAME
	_ZN11QWebHistoryD1Ev @ 71 NONAME
	_ZN11QWebHistoryD2Ev @ 72 NONAME
	_ZN12QWebDatabase14removeDatabaseERKS_ @ 73 NONAME
	_ZN12QWebDatabase18removeAllDatabasesEv @ 74 NONAME
	_ZN12QWebDatabaseC1EP19QWebDatabasePrivate @ 75 NONAME
	_ZN12QWebDatabaseC1ERKS_ @ 76 NONAME
	_ZN12QWebDatabaseC2EP19QWebDatabasePrivate @ 77 NONAME
	_ZN12QWebDatabaseC2ERKS_ @ 78 NONAME
	_ZN12QWebDatabaseD1Ev @ 79 NONAME
	_ZN12QWebDatabaseD2Ev @ 80 NONAME
	_ZN12QWebDatabaseaSERKS_ @ 81 NONAME
	_ZN12QWebSettings10iconForUrlERK4QUrl @ 82 NONAME
	_ZN12QWebSettings10webGraphicENS_10WebGraphicE @ 83 NONAME
	_ZN12QWebSettings11setFontSizeENS_8FontSizeEi @ 84 NONAME
	_ZN12QWebSettings12setAttributeENS_12WebAttributeEb @ 85 NONAME
	_ZN12QWebSettings13resetFontSizeENS_8FontSizeE @ 86 NONAME
	_ZN12QWebSettings13setFontFamilyENS_10FontFamilyERK7QString @ 87 NONAME
	_ZN12QWebSettings13setWebGraphicENS_10WebGraphicERK7QPixmap @ 88 NONAME
	_ZN12QWebSettings14globalSettingsEv @ 89 NONAME
	_ZN12QWebSettings14pluginDatabaseEv @ 90 NONAME
	_ZN12QWebSettings14resetAttributeENS_12WebAttributeE @ 91 NONAME
	_ZN12QWebSettings15resetFontFamilyENS_10FontFamilyE @ 92 NONAME
	_ZN12QWebSettings16iconDatabasePathEv @ 93 NONAME
	_ZN12QWebSettings17clearIconDatabaseEv @ 94 NONAME
	_ZN12QWebSettings17clearMemoryCachesEv @ 95 NONAME
	_ZN12QWebSettings18offlineStoragePathEv @ 96 NONAME
	_ZN12QWebSettings19maximumPagesInCacheEv @ 97 NONAME
	_ZN12QWebSettings19setIconDatabasePathERK7QString @ 98 NONAME
	_ZN12QWebSettings19setLocalStoragePathERK7QString @ 99 NONAME
	_ZN12QWebSettings20setUserStyleSheetUrlERK4QUrl @ 100 NONAME
	_ZN12QWebSettings21setOfflineStoragePathERK7QString @ 101 NONAME
	_ZN12QWebSettings22setDefaultTextEncodingERK7QString @ 102 NONAME
	_ZN12QWebSettings22setMaximumPagesInCacheEi @ 103 NONAME
	_ZN12QWebSettings23enablePersistentStorageERK7QString @ 104 NONAME
	_ZN12QWebSettings24setObjectCacheCapacitiesEiii @ 105 NONAME
	_ZN12QWebSettings26offlineStorageDefaultQuotaEv @ 106 NONAME
	_ZN12QWebSettings29setOfflineStorageDefaultQuotaEx @ 107 NONAME
	_ZN12QWebSettings30offlineWebApplicationCachePathEv @ 108 NONAME
	_ZN12QWebSettings30setPrintingMaximumShrinkFactorEf @ 109 NONAME
	_ZN12QWebSettings30setPrintingMinimumShrinkFactorEf @ 110 NONAME
	_ZN12QWebSettings31offlineWebApplicationCacheQuotaEv @ 111 NONAME
	_ZN12QWebSettings33setOfflineWebApplicationCachePathERK7QString @ 112 NONAME
	_ZN12QWebSettings34setOfflineWebApplicationCacheQuotaEx @ 113 NONAME
	_ZN12QWebSettingsC1EPN7WebCore8SettingsE @ 114 NONAME
	_ZN12QWebSettingsC1Ev @ 115 NONAME
	_ZN12QWebSettingsC2EPN7WebCore8SettingsE @ 116 NONAME
	_ZN12QWebSettingsC2Ev @ 117 NONAME
	_ZN12QWebSettingsD1Ev @ 118 NONAME
	_ZN12QWebSettingsD2Ev @ 119 NONAME
	_ZN13QWebInspector11qt_metacallEN11QMetaObject4CallEiPPv @ 120 NONAME
	_ZN13QWebInspector11qt_metacastEPKc @ 121 NONAME
	_ZN13QWebInspector11resizeEventEP12QResizeEvent @ 122 NONAME
	_ZN13QWebInspector16staticMetaObjectE @ 123 NONAME DATA 16
	_ZN13QWebInspector18windowTitleChangedERK7QString @ 124 NONAME
	_ZN13QWebInspector19getStaticMetaObjectEv @ 125 NONAME
	_ZN13QWebInspector5eventEP6QEvent @ 126 NONAME
	_ZN13QWebInspector7setPageEP8QWebPage @ 127 NONAME
	_ZN13QWebInspector9hideEventEP10QHideEvent @ 128 NONAME
	_ZN13QWebInspector9showEventEP10QShowEvent @ 129 NONAME
	_ZN13QWebInspectorC1EP7QWidget @ 130 NONAME
	_ZN13QWebInspectorC2EP7QWidget @ 131 NONAME
	_ZN13QWebInspectorD0Ev @ 132 NONAME
	_ZN13QWebInspectorD1Ev @ 133 NONAME
	_ZN13QWebInspectorD2Ev @ 134 NONAME
	_ZN14QWebPluginInfo10setEnabledEb @ 135 NONAME
	_ZN14QWebPluginInfoC1EPN7WebCore13PluginPackageE @ 136 NONAME
	_ZN14QWebPluginInfoC1ERKS_ @ 137 NONAME
	_ZN14QWebPluginInfoC1Ev @ 138 NONAME
	_ZN14QWebPluginInfoC2EPN7WebCore13PluginPackageE @ 139 NONAME
	_ZN14QWebPluginInfoC2ERKS_ @ 140 NONAME
	_ZN14QWebPluginInfoC2Ev @ 141 NONAME
	_ZN14QWebPluginInfoD1Ev @ 142 NONAME
	_ZN14QWebPluginInfoD2Ev @ 143 NONAME
	_ZN14QWebPluginInfoaSERKS_ @ 144 NONAME
	_ZN15QWebHistoryItem11setUserDataERK8QVariant @ 145 NONAME
	_ZN15QWebHistoryItemC1EP22QWebHistoryItemPrivate @ 146 NONAME
	_ZN15QWebHistoryItemC1ERKS_ @ 147 NONAME
	_ZN15QWebHistoryItemC2EP22QWebHistoryItemPrivate @ 148 NONAME
	_ZN15QWebHistoryItemC2ERKS_ @ 149 NONAME
	_ZN15QWebHistoryItemD1Ev @ 150 NONAME
	_ZN15QWebHistoryItemD2Ev @ 151 NONAME
	_ZN15QWebHistoryItemaSERKS_ @ 152 NONAME
	_ZN16QGraphicsWebView10sceneEventEP6QEvent @ 153 NONAME
	_ZN16QGraphicsWebView10setContentERK10QByteArrayRK7QStringRK4QUrl @ 154 NONAME
	_ZN16QGraphicsWebView10urlChangedERK4QUrl @ 155 NONAME
	_ZN16QGraphicsWebView10wheelEventEP24QGraphicsSceneWheelEvent @ 156 NONAME
	_ZN16QGraphicsWebView11iconChangedEv @ 157 NONAME
	_ZN16QGraphicsWebView11loadStartedEv @ 158 NONAME
	_ZN16QGraphicsWebView11qt_metacallEN11QMetaObject4CallEiPPv @ 159 NONAME
	_ZN16QGraphicsWebView11qt_metacastEPKc @ 160 NONAME
	_ZN16QGraphicsWebView11setGeometryERK6QRectF @ 161 NONAME
	_ZN16QGraphicsWebView12focusInEventEP11QFocusEvent @ 162 NONAME
	_ZN16QGraphicsWebView12loadFinishedEb @ 163 NONAME
	_ZN16QGraphicsWebView12titleChangedERK7QString @ 164 NONAME
	_ZN16QGraphicsWebView13dragMoveEventEP27QGraphicsSceneDragDropEvent @ 165 NONAME
	_ZN16QGraphicsWebView13focusOutEventEP11QFocusEvent @ 166 NONAME
	_ZN16QGraphicsWebView13keyPressEventEP9QKeyEvent @ 167 NONAME
	_ZN16QGraphicsWebView13setZoomFactorEf @ 168 NONAME
	_ZN16QGraphicsWebView13statusChangedEv @ 169 NONAME
	_ZN16QGraphicsWebView14dragEnterEventEP27QGraphicsSceneDragDropEvent @ 170 NONAME
	_ZN16QGraphicsWebView14dragLeaveEventEP27QGraphicsSceneDragDropEvent @ 171 NONAME
	_ZN16QGraphicsWebView14hoverMoveEventEP24QGraphicsSceneHoverEvent @ 172 NONAME
	_ZN16QGraphicsWebView14mouseMoveEventEP24QGraphicsSceneMouseEvent @ 173 NONAME
	_ZN16QGraphicsWebView14setInteractiveEb @ 174 NONAME
	_ZN16QGraphicsWebView14updateGeometryEv @ 175 NONAME
	_ZN16QGraphicsWebView15hoverLeaveEventEP24QGraphicsSceneHoverEvent @ 176 NONAME
	_ZN16QGraphicsWebView15keyReleaseEventEP9QKeyEvent @ 177 NONAME
	_ZN16QGraphicsWebView15mousePressEventEP24QGraphicsSceneMouseEvent @ 178 NONAME
	_ZN16QGraphicsWebView15progressChangedEf @ 179 NONAME
	_ZN16QGraphicsWebView16contextMenuEventEP30QGraphicsSceneContextMenuEvent @ 180 NONAME
	_ZN16QGraphicsWebView16inputMethodEventEP17QInputMethodEvent @ 181 NONAME
	_ZN16QGraphicsWebView16staticMetaObjectE @ 182 NONAME DATA 16
	_ZN16QGraphicsWebView17mouseReleaseEventEP24QGraphicsSceneMouseEvent @ 183 NONAME
	_ZN16QGraphicsWebView17zoomFactorChangedEv @ 184 NONAME
	_ZN16QGraphicsWebView18focusNextPrevChildEb @ 185 NONAME
	_ZN16QGraphicsWebView19getStaticMetaObjectEv @ 186 NONAME
	_ZN16QGraphicsWebView20interactivityChangedEv @ 187 NONAME
	_ZN16QGraphicsWebView21mouseDoubleClickEventEP24QGraphicsSceneMouseEvent @ 188 NONAME
	_ZN16QGraphicsWebView4backEv @ 189 NONAME
	_ZN16QGraphicsWebView4loadERK15QNetworkRequestN21QNetworkAccessManager9OperationERK10QByteArray @ 190 NONAME
	_ZN16QGraphicsWebView4loadERK4QUrl @ 191 NONAME
	_ZN16QGraphicsWebView4stopEv @ 192 NONAME
	_ZN16QGraphicsWebView5eventEP6QEvent @ 193 NONAME
	_ZN16QGraphicsWebView5paintEP8QPainterPK24QStyleOptionGraphicsItemP7QWidget @ 194 NONAME
	_ZN16QGraphicsWebView6reloadEv @ 195 NONAME
	_ZN16QGraphicsWebView6setUrlERK4QUrl @ 196 NONAME
	_ZN16QGraphicsWebView7forwardEv @ 197 NONAME
	_ZN16QGraphicsWebView7setHtmlERK7QStringRK4QUrl @ 198 NONAME
	_ZN16QGraphicsWebView7setPageEP8QWebPage @ 199 NONAME
	_ZN16QGraphicsWebView9dropEventEP27QGraphicsSceneDragDropEvent @ 200 NONAME
	_ZN16QGraphicsWebViewC1EP13QGraphicsItem @ 201 NONAME
	_ZN16QGraphicsWebViewC2EP13QGraphicsItem @ 202 NONAME
	_ZN16QGraphicsWebViewD0Ev @ 203 NONAME
	_ZN16QGraphicsWebViewD1Ev @ 204 NONAME
	_ZN16QGraphicsWebViewD2Ev @ 205 NONAME
	_ZN17QWebHitTestResultC1EP24QWebHitTestResultPrivate @ 206 NONAME
	_ZN17QWebHitTestResultC1ERKS_ @ 207 NONAME
	_ZN17QWebHitTestResultC1Ev @ 208 NONAME
	_ZN17QWebHitTestResultC2EP24QWebHitTestResultPrivate @ 209 NONAME
	_ZN17QWebHitTestResultC2ERKS_ @ 210 NONAME
	_ZN17QWebHitTestResultC2Ev @ 211 NONAME
	_ZN17QWebHitTestResultD1Ev @ 212 NONAME
	_ZN17QWebHitTestResultD2Ev @ 213 NONAME
	_ZN17QWebHitTestResultaSERKS_ @ 214 NONAME
	_ZN17QWebPluginFactory11qt_metacallEN11QMetaObject4CallEiPPv @ 215 NONAME
	_ZN17QWebPluginFactory11qt_metacastEPKc @ 216 NONAME
	_ZN17QWebPluginFactory14refreshPluginsEv @ 217 NONAME
	_ZN17QWebPluginFactory16staticMetaObjectE @ 218 NONAME DATA 16
	_ZN17QWebPluginFactory19getStaticMetaObjectEv @ 219 NONAME
	_ZN17QWebPluginFactory9extensionENS_9ExtensionEPKNS_15ExtensionOptionEPNS_15ExtensionReturnE @ 220 NONAME
	_ZN17QWebPluginFactoryC2EP7QObject @ 221 NONAME
	_ZN17QWebPluginFactoryD0Ev @ 222 NONAME
	_ZN17QWebPluginFactoryD1Ev @ 223 NONAME
	_ZN17QWebPluginFactoryD2Ev @ 224 NONAME
	_ZN18QWebPluginDatabase11qt_metacallEN11QMetaObject4CallEiPPv @ 225 NONAME
	_ZN18QWebPluginDatabase11qt_metacastEPKc @ 226 NONAME
	_ZN18QWebPluginDatabase13addSearchPathERK7QString @ 227 NONAME
	_ZN18QWebPluginDatabase14setSearchPathsERK11QStringList @ 228 NONAME
	_ZN18QWebPluginDatabase16staticMetaObjectE @ 229 NONAME DATA 16
	_ZN18QWebPluginDatabase17pluginForMimeTypeERK7QString @ 230 NONAME
	_ZN18QWebPluginDatabase18defaultSearchPathsEv @ 231 NONAME
	_ZN18QWebPluginDatabase19getStaticMetaObjectEv @ 232 NONAME
	_ZN18QWebPluginDatabase29setPreferredPluginForMimeTypeERK7QStringRK14QWebPluginInfo @ 233 NONAME
	_ZN18QWebPluginDatabase7refreshEv @ 234 NONAME
	_ZN18QWebPluginDatabaseC1EP7QObject @ 235 NONAME
	_ZN18QWebPluginDatabaseC2EP7QObject @ 236 NONAME
	_ZN18QWebPluginDatabaseD0Ev @ 237 NONAME
	_ZN18QWebPluginDatabaseD1Ev @ 238 NONAME
	_ZN18QWebPluginDatabaseD2Ev @ 239 NONAME
	_ZN18QWebSecurityOrigin10allOriginsEv @ 240 NONAME
	_ZN18QWebSecurityOrigin12localSchemesEv @ 241 NONAME
	_ZN18QWebSecurityOrigin14addLocalSchemeERK7QString @ 242 NONAME
	_ZN18QWebSecurityOrigin16setDatabaseQuotaEx @ 243 NONAME
	_ZN18QWebSecurityOrigin17removeLocalSchemeERK7QString @ 244 NONAME
	_ZN18QWebSecurityOrigin25whiteListAccessFromOriginERK7QStringS2_S2_b @ 245 NONAME
	_ZN18QWebSecurityOrigin27resetOriginAccessWhiteListsEv @ 246 NONAME
	_ZN18QWebSecurityOriginC1EP25QWebSecurityOriginPrivate @ 247 NONAME
	_ZN18QWebSecurityOriginC1ERKS_ @ 248 NONAME
	_ZN18QWebSecurityOriginC2EP25QWebSecurityOriginPrivate @ 249 NONAME
	_ZN18QWebSecurityOriginC2ERKS_ @ 250 NONAME
	_ZN18QWebSecurityOriginD1Ev @ 251 NONAME
	_ZN18QWebSecurityOriginD2Ev @ 252 NONAME
	_ZN18QWebSecurityOriginaSERKS_ @ 253 NONAME
	_ZN20QWebHistoryInterface11qt_metacallEN11QMetaObject4CallEiPPv @ 254 NONAME
	_ZN20QWebHistoryInterface11qt_metacastEPKc @ 255 NONAME
	_ZN20QWebHistoryInterface16defaultInterfaceEv @ 256 NONAME
	_ZN20QWebHistoryInterface16staticMetaObjectE @ 257 NONAME DATA 16
	_ZN20QWebHistoryInterface19getStaticMetaObjectEv @ 258 NONAME
	_ZN20QWebHistoryInterface19setDefaultInterfaceEPS_ @ 259 NONAME
	_ZN20QWebHistoryInterfaceC2EP7QObject @ 260 NONAME
	_ZN20QWebHistoryInterfaceD0Ev @ 261 NONAME
	_ZN20QWebHistoryInterfaceD1Ev @ 262 NONAME
	_ZN20QWebHistoryInterfaceD2Ev @ 263 NONAME
	_ZN8QWebPage10chooseFileEP9QWebFrameRK7QString @ 264 NONAME
	_ZN8QWebPage10setPaletteERK8QPalette @ 265 NONAME
	_ZN8QWebPage11linkClickedERK4QUrl @ 266 NONAME
	_ZN8QWebPage11linkHoveredERK7QStringS2_S2_ @ 267 NONAME
	_ZN8QWebPage11loadStartedEv @ 268 NONAME
	_ZN8QWebPage11qt_metacallEN11QMetaObject4CallEiPPv @ 269 NONAME
	_ZN8QWebPage11qt_metacastEPKc @ 270 NONAME
	_ZN8QWebPage12createPluginERK7QStringRK4QUrlRK11QStringListS8_ @ 271 NONAME
	_ZN8QWebPage12createWindowENS_13WebWindowTypeE @ 272 NONAME
	_ZN8QWebPage12frameCreatedEP9QWebFrame @ 273 NONAME
	_ZN8QWebPage12loadFinishedEb @ 274 NONAME
	_ZN8QWebPage12loadProgressEi @ 275 NONAME
	_ZN8QWebPage13triggerActionENS_9WebActionEb @ 276 NONAME
	_ZN8QWebPage14printRequestedEP9QWebFrame @ 277 NONAME
	_ZN8QWebPage15contentsChangedEv @ 278 NONAME
	_ZN8QWebPage15javaScriptAlertEP9QWebFrameRK7QString @ 279 NONAME
	_ZN8QWebPage15scrollRequestedEiiRK5QRect @ 280 NONAME
	_ZN8QWebPage16javaScriptPromptEP9QWebFrameRK7QStringS4_PS2_ @ 281 NONAME
	_ZN8QWebPage16repaintRequestedERK5QRect @ 282 NONAME
	_ZN8QWebPage16selectionChangedEv @ 283 NONAME
	_ZN8QWebPage16setPluginFactoryEP17QWebPluginFactory @ 284 NONAME
	_ZN8QWebPage16staticMetaObjectE @ 285 NONAME DATA 16
	_ZN8QWebPage16statusBarMessageERK7QString @ 286 NONAME
	_ZN8QWebPage17downloadRequestedERK15QNetworkRequest @ 287 NONAME
	_ZN8QWebPage17javaScriptConfirmEP9QWebFrameRK7QString @ 288 NONAME
	_ZN8QWebPage17microFocusChangedEv @ 289 NONAME
	_ZN8QWebPage18focusNextPrevChildEb @ 290 NONAME
	_ZN8QWebPage18setContentEditableEb @ 291 NONAME
	_ZN8QWebPage18unsupportedContentEP13QNetworkReply @ 292 NONAME
	_ZN8QWebPage19getStaticMetaObjectEv @ 293 NONAME
	_ZN8QWebPage20windowCloseRequestedEv @ 294 NONAME
	_ZN8QWebPage21databaseQuotaExceededEP9QWebFrame7QString @ 295 NONAME
	_ZN8QWebPage21networkRequestStartedEP9QWebFrameP15QNetworkRequest @ 296 NONAME
	_ZN8QWebPage21webInspectorTriggeredERK11QWebElement @ 297 NONAME
	_ZN8QWebPage23acceptNavigationRequestEP9QWebFrameRK15QNetworkRequestNS_14NavigationTypeE @ 298 NONAME
	_ZN8QWebPage23geometryChangeRequestedERK5QRect @ 299 NONAME
	_ZN8QWebPage23saveFrameStateRequestedEP9QWebFrameP15QWebHistoryItem @ 300 NONAME
	_ZN8QWebPage23setLinkDelegationPolicyENS_20LinkDelegationPolicyE @ 301 NONAME
	_ZN8QWebPage23setNetworkAccessManagerEP21QNetworkAccessManager @ 302 NONAME
	_ZN8QWebPage23swallowContextMenuEventEP17QContextMenuEvent @ 303 NONAME
	_ZN8QWebPage24javaScriptConsoleMessageERK7QStringiS2_ @ 304 NONAME
	_ZN8QWebPage25createStandardContextMenuEv @ 305 NONAME
	_ZN8QWebPage25shouldInterruptJavaScriptEv @ 306 NONAME
	_ZN8QWebPage26restoreFrameStateRequestedEP9QWebFrame @ 307 NONAME
	_ZN8QWebPage28setForwardUnsupportedContentEb @ 308 NONAME
	_ZN8QWebPage30updatePositionDependentActionsERK6QPoint @ 309 NONAME
	_ZN8QWebPage32menuBarVisibilityChangeRequestedEb @ 310 NONAME
	_ZN8QWebPage32toolBarVisibilityChangeRequestedEb @ 311 NONAME
	_ZN8QWebPage34statusBarVisibilityChangeRequestedEb @ 312 NONAME
	_ZN8QWebPage5eventEP6QEvent @ 313 NONAME
	_ZN8QWebPage7setViewEP7QWidget @ 314 NONAME
	_ZN8QWebPage8findTextERK7QString6QFlagsINS_8FindFlagEE @ 315 NONAME
	_ZN8QWebPage9extensionENS_9ExtensionEPKNS_15ExtensionOptionEPNS_15ExtensionReturnE @ 316 NONAME
	_ZN8QWebPageC1EP7QObject @ 317 NONAME
	_ZN8QWebPageC2EP7QObject @ 318 NONAME
	_ZN8QWebPageD0Ev @ 319 NONAME
	_ZN8QWebPageD1Ev @ 320 NONAME
	_ZN8QWebPageD2Ev @ 321 NONAME
	_ZN8QWebView10paintEventEP11QPaintEvent @ 322 NONAME
	_ZN8QWebView10setContentERK10QByteArrayRK7QStringRK4QUrl @ 323 NONAME
	_ZN8QWebView10urlChangedERK4QUrl @ 324 NONAME
	_ZN8QWebView10wheelEventEP11QWheelEvent @ 325 NONAME
	_ZN8QWebView11changeEventEP6QEvent @ 326 NONAME
	_ZN8QWebView11iconChangedEv @ 327 NONAME
	_ZN8QWebView11linkClickedERK4QUrl @ 328 NONAME
	_ZN8QWebView11loadStartedEv @ 329 NONAME
	_ZN8QWebView11qt_metacallEN11QMetaObject4CallEiPPv @ 330 NONAME
	_ZN8QWebView11qt_metacastEPKc @ 331 NONAME
	_ZN8QWebView11resizeEventEP12QResizeEvent @ 332 NONAME
	_ZN8QWebView12createWindowEN8QWebPage13WebWindowTypeE @ 333 NONAME
	_ZN8QWebView12focusInEventEP11QFocusEvent @ 334 NONAME
	_ZN8QWebView12loadFinishedEb @ 335 NONAME
	_ZN8QWebView12loadProgressEi @ 336 NONAME
	_ZN8QWebView12titleChangedERK7QString @ 337 NONAME
	_ZN8QWebView13dragMoveEventEP14QDragMoveEvent @ 338 NONAME
	_ZN8QWebView13focusOutEventEP11QFocusEvent @ 339 NONAME
	_ZN8QWebView13keyPressEventEP9QKeyEvent @ 340 NONAME
	_ZN8QWebView13setRenderHintEN8QPainter10RenderHintEb @ 341 NONAME
	_ZN8QWebView13setZoomFactorEf @ 342 NONAME
	_ZN8QWebView14dragEnterEventEP15QDragEnterEvent @ 343 NONAME
	_ZN8QWebView14dragLeaveEventEP15QDragLeaveEvent @ 344 NONAME
	_ZN8QWebView14mouseMoveEventEP11QMouseEvent @ 345 NONAME
	_ZN8QWebView14setRenderHintsE6QFlagsIN8QPainter10RenderHintEE @ 346 NONAME
	_ZN8QWebView15keyReleaseEventEP9QKeyEvent @ 347 NONAME
	_ZN8QWebView15mousePressEventEP11QMouseEvent @ 348 NONAME
	_ZN8QWebView16contextMenuEventEP17QContextMenuEvent @ 349 NONAME
	_ZN8QWebView16inputMethodEventEP17QInputMethodEvent @ 350 NONAME
	_ZN8QWebView16selectionChangedEv @ 351 NONAME
	_ZN8QWebView16staticMetaObjectE @ 352 NONAME DATA 16
	_ZN8QWebView16statusBarMessageERK7QString @ 353 NONAME
	_ZN8QWebView17mouseReleaseEventEP11QMouseEvent @ 354 NONAME
	_ZN8QWebView17triggerPageActionEN8QWebPage9WebActionEb @ 355 NONAME
	_ZN8QWebView18focusNextPrevChildEb @ 356 NONAME
	_ZN8QWebView18guessUrlFromStringERK7QString @ 357 NONAME
	_ZN8QWebView19getStaticMetaObjectEv @ 358 NONAME
	_ZN8QWebView21mouseDoubleClickEventEP11QMouseEvent @ 359 NONAME
	_ZN8QWebView21setTextSizeMultiplierEf @ 360 NONAME
	_ZN8QWebView4backEv @ 361 NONAME
	_ZN8QWebView4loadERK15QNetworkRequestN21QNetworkAccessManager9OperationERK10QByteArray @ 362 NONAME
	_ZN8QWebView4loadERK4QUrl @ 363 NONAME
	_ZN8QWebView4stopEv @ 364 NONAME
	_ZN8QWebView5eventEP6QEvent @ 365 NONAME
	_ZN8QWebView6reloadEv @ 366 NONAME
	_ZN8QWebView6setUrlERK4QUrl @ 367 NONAME
	_ZN8QWebView7forwardEv @ 368 NONAME
	_ZN8QWebView7setHtmlERK7QStringRK4QUrl @ 369 NONAME
	_ZN8QWebView7setPageEP8QWebPage @ 370 NONAME
	_ZN8QWebView8findTextERK7QString6QFlagsIN8QWebPage8FindFlagEE @ 371 NONAME
	_ZN8QWebView9dropEventEP10QDropEvent @ 372 NONAME
	_ZN8QWebViewC1EP7QWidget @ 373 NONAME
	_ZN8QWebViewC2EP7QWidget @ 374 NONAME
	_ZN8QWebViewD0Ev @ 375 NONAME
	_ZN8QWebViewD1Ev @ 376 NONAME
	_ZN8QWebViewD2Ev @ 377 NONAME
	_ZN9QWebFrame10setContentERK10QByteArrayRK7QStringRK4QUrl @ 378 NONAME
	_ZN9QWebFrame10urlChangedERK4QUrl @ 379 NONAME
	_ZN9QWebFrame11iconChangedEv @ 380 NONAME
	_ZN9QWebFrame11loadStartedEv @ 381 NONAME
	_ZN9QWebFrame11qt_metacallEN11QMetaObject4CallEiPPv @ 382 NONAME
	_ZN9QWebFrame11qt_metacastEPKc @ 383 NONAME
	_ZN9QWebFrame12loadFinishedEb @ 384 NONAME
	_ZN9QWebFrame12titleChangedERK7QString @ 385 NONAME
	_ZN9QWebFrame13setZoomFactorEf @ 386 NONAME
	_ZN9QWebFrame15provisionalLoadEv @ 387 NONAME
	_ZN9QWebFrame16staticMetaObjectE @ 388 NONAME DATA 16
	_ZN9QWebFrame17setScrollBarValueEN2Qt11OrientationEi @ 389 NONAME
	_ZN9QWebFrame17setScrollPositionERK6QPoint @ 390 NONAME
	_ZN9QWebFrame18evaluateJavaScriptERK7QString @ 391 NONAME
	_ZN9QWebFrame18setScrollBarPolicyEN2Qt11OrientationENS0_15ScrollBarPolicyE @ 392 NONAME
	_ZN9QWebFrame19contentsSizeChangedERK5QSize @ 393 NONAME
	_ZN9QWebFrame19getStaticMetaObjectEv @ 394 NONAME
	_ZN9QWebFrame21setTextSizeMultiplierEf @ 395 NONAME
	_ZN9QWebFrame22initialLayoutCompletedEv @ 396 NONAME
	_ZN9QWebFrame23setClipRenderToViewportEb @ 397 NONAME
	_ZN9QWebFrame27addToJavaScriptWindowObjectERK7QStringP7QObject @ 398 NONAME
	_ZN9QWebFrame27addToJavaScriptWindowObjectERK7QStringP7QObjectN13QScriptEngine14ValueOwnershipE @ 399 NONAME
	_ZN9QWebFrame29javaScriptWindowObjectClearedEv @ 400 NONAME
	_ZN9QWebFrame4loadERK15QNetworkRequestN21QNetworkAccessManager9OperationERK10QByteArray @ 401 NONAME
	_ZN9QWebFrame4loadERK4QUrl @ 402 NONAME
	_ZN9QWebFrame5eventEP6QEvent @ 403 NONAME
	_ZN9QWebFrame6renderEP8QPainter @ 404 NONAME
	_ZN9QWebFrame6renderEP8QPainterRK7QRegion @ 405 NONAME
	_ZN9QWebFrame6scrollEii @ 406 NONAME
	_ZN9QWebFrame6setUrlERK4QUrl @ 407 NONAME
	_ZN9QWebFrame7setHtmlERK7QStringRK4QUrl @ 408 NONAME
	_ZN9QWebFrame8setFocusEv @ 409 NONAME
	_ZN9QWebFrameC1EP8QWebPageP13QWebFrameData @ 410 NONAME
	_ZN9QWebFrameC1EPS_P13QWebFrameData @ 411 NONAME
	_ZN9QWebFrameC2EP8QWebPageP13QWebFrameData @ 412 NONAME
	_ZN9QWebFrameC2EPS_P13QWebFrameData @ 413 NONAME
	_ZN9QWebFrameD0Ev @ 414 NONAME
	_ZN9QWebFrameD1Ev @ 415 NONAME
	_ZN9QWebFrameD2Ev @ 416 NONAME
	_ZNK11QWebElement10firstChildEv @ 417 NONAME
	_ZNK11QWebElement10toInnerXmlEv @ 418 NONAME
	_ZNK11QWebElement10toOuterXmlEv @ 419 NONAME
	_ZNK11QWebElement11attributeNSERK7QStringS2_S2_ @ 420 NONAME
	_ZNK11QWebElement11nextSiblingEv @ 421 NONAME
	_ZNK11QWebElement11toPlainTextEv @ 422 NONAME
	_ZNK11QWebElement12hasAttributeERK7QString @ 423 NONAME
	_ZNK11QWebElement12namespaceUriEv @ 424 NONAME
	_ZNK11QWebElement13hasAttributesEv @ 425 NONAME
	_ZNK11QWebElement13stylePropertyERK7QStringNS_20StyleResolveStrategyE @ 426 NONAME
	_ZNK11QWebElement14hasAttributeNSERK7QStringS2_ @ 427 NONAME
	_ZNK11QWebElement15previousSiblingEv @ 428 NONAME
	_ZNK11QWebElement5cloneEv @ 429 NONAME
	_ZNK11QWebElement6isNullEv @ 430 NONAME
	_ZNK11QWebElement6parentEv @ 431 NONAME
	_ZNK11QWebElement6prefixEv @ 432 NONAME
	_ZNK11QWebElement7classesEv @ 433 NONAME
	_ZNK11QWebElement7findAllERK7QString @ 434 NONAME
	_ZNK11QWebElement7tagNameEv @ 435 NONAME
	_ZNK11QWebElement8documentEv @ 436 NONAME
	_ZNK11QWebElement8geometryEv @ 437 NONAME
	_ZNK11QWebElement8hasClassERK7QString @ 438 NONAME
	_ZNK11QWebElement8hasFocusEv @ 439 NONAME
	_ZNK11QWebElement8webFrameEv @ 440 NONAME
	_ZNK11QWebElement9attributeERK7QStringS2_ @ 441 NONAME
	_ZNK11QWebElement9findFirstERK7QString @ 442 NONAME
	_ZNK11QWebElement9lastChildEv @ 443 NONAME
	_ZNK11QWebElement9localNameEv @ 444 NONAME
	_ZNK11QWebElementeqERKS_ @ 445 NONAME
	_ZNK11QWebElementneERKS_ @ 446 NONAME
	_ZNK11QWebHistory11currentItemEv @ 447 NONAME
	_ZNK11QWebHistory11forwardItemEv @ 448 NONAME
	_ZNK11QWebHistory12canGoForwardEv @ 449 NONAME
	_ZNK11QWebHistory12forwardItemsEi @ 450 NONAME
	_ZNK11QWebHistory16currentItemIndexEv @ 451 NONAME
	_ZNK11QWebHistory16maximumItemCountEv @ 452 NONAME
	_ZNK11QWebHistory5countEv @ 453 NONAME
	_ZNK11QWebHistory5itemsEv @ 454 NONAME
	_ZNK11QWebHistory6itemAtEi @ 455 NONAME
	_ZNK11QWebHistory8backItemEv @ 456 NONAME
	_ZNK11QWebHistory9backItemsEi @ 457 NONAME
	_ZNK11QWebHistory9canGoBackEv @ 458 NONAME
	_ZNK11QWebHistory9saveStateENS_19HistoryStateVersionE @ 459 NONAME
	_ZNK12QWebDatabase11displayNameEv @ 460 NONAME
	_ZNK12QWebDatabase12expectedSizeEv @ 461 NONAME
	_ZNK12QWebDatabase4nameEv @ 462 NONAME
	_ZNK12QWebDatabase4sizeEv @ 463 NONAME
	_ZNK12QWebDatabase6originEv @ 464 NONAME
	_ZNK12QWebDatabase8fileNameEv @ 465 NONAME
	_ZNK12QWebSettings10fontFamilyENS_10FontFamilyE @ 466 NONAME
	_ZNK12QWebSettings13testAttributeENS_12WebAttributeE @ 467 NONAME
	_ZNK12QWebSettings16localStoragePathEv @ 468 NONAME
	_ZNK12QWebSettings17userStyleSheetUrlEv @ 469 NONAME
	_ZNK12QWebSettings19defaultTextEncodingEv @ 470 NONAME
	_ZNK12QWebSettings27printingMaximumShrinkFactorEv @ 471 NONAME
	_ZNK12QWebSettings27printingMinimumShrinkFactorEv @ 472 NONAME
	_ZNK12QWebSettings8fontSizeENS_8FontSizeE @ 473 NONAME
	_ZNK13QWebInspector10metaObjectEv @ 474 NONAME
	_ZNK13QWebInspector4pageEv @ 475 NONAME
	_ZNK13QWebInspector8sizeHintEv @ 476 NONAME
	_ZNK14QWebPluginInfo11descriptionEv @ 477 NONAME
	_ZNK14QWebPluginInfo16supportsMimeTypeERK7QString @ 478 NONAME
	_ZNK14QWebPluginInfo4nameEv @ 479 NONAME
	_ZNK14QWebPluginInfo4pathEv @ 480 NONAME
	_ZNK14QWebPluginInfo6isNullEv @ 481 NONAME
	_ZNK14QWebPluginInfo9isEnabledEv @ 482 NONAME
	_ZNK14QWebPluginInfo9mimeTypesEv @ 483 NONAME
	_ZNK14QWebPluginInfoeqERKS_ @ 484 NONAME
	_ZNK14QWebPluginInfoneERKS_ @ 485 NONAME
	_ZNK15QWebHistoryItem11lastVisitedEv @ 486 NONAME
	_ZNK15QWebHistoryItem11originalUrlEv @ 487 NONAME
	_ZNK15QWebHistoryItem3urlEv @ 488 NONAME
	_ZNK15QWebHistoryItem4iconEv @ 489 NONAME
	_ZNK15QWebHistoryItem5titleEv @ 490 NONAME
	_ZNK15QWebHistoryItem7isValidEv @ 491 NONAME
	_ZNK15QWebHistoryItem8userDataEv @ 492 NONAME
	_ZNK16QGraphicsWebView10metaObjectEv @ 493 NONAME
	_ZNK16QGraphicsWebView10zoomFactorEv @ 494 NONAME
	_ZNK16QGraphicsWebView13isInteractiveEv @ 495 NONAME
	_ZNK16QGraphicsWebView3urlEv @ 496 NONAME
	_ZNK16QGraphicsWebView4iconEv @ 497 NONAME
	_ZNK16QGraphicsWebView4pageEv @ 498 NONAME
	_ZNK16QGraphicsWebView5titleEv @ 499 NONAME
	_ZNK16QGraphicsWebView6statusEv @ 500 NONAME
	_ZNK16QGraphicsWebView6toHtmlEv @ 501 NONAME
	_ZNK16QGraphicsWebView7historyEv @ 502 NONAME
	_ZNK16QGraphicsWebView8progressEv @ 503 NONAME
	_ZNK16QGraphicsWebView8settingsEv @ 504 NONAME
	_ZNK17QWebHitTestResult11linkElementEv @ 505 NONAME
	_ZNK17QWebHitTestResult12boundingRectEv @ 506 NONAME
	_ZNK17QWebHitTestResult13alternateTextEv @ 507 NONAME
	_ZNK17QWebHitTestResult15linkTargetFrameEv @ 508 NONAME
	_ZNK17QWebHitTestResult17isContentEditableEv @ 509 NONAME
	_ZNK17QWebHitTestResult17isContentSelectedEv @ 510 NONAME
	_ZNK17QWebHitTestResult21enclosingBlockElementEv @ 511 NONAME
	_ZNK17QWebHitTestResult3posEv @ 512 NONAME
	_ZNK17QWebHitTestResult5frameEv @ 513 NONAME
	_ZNK17QWebHitTestResult5titleEv @ 514 NONAME
	_ZNK17QWebHitTestResult6isNullEv @ 515 NONAME
	_ZNK17QWebHitTestResult6pixmapEv @ 516 NONAME
	_ZNK17QWebHitTestResult7elementEv @ 517 NONAME
	_ZNK17QWebHitTestResult7linkUrlEv @ 518 NONAME
	_ZNK17QWebHitTestResult8imageUrlEv @ 519 NONAME
	_ZNK17QWebHitTestResult8linkTextEv @ 520 NONAME
	_ZNK17QWebHitTestResult9linkTitleEv @ 521 NONAME
	_ZNK17QWebPluginFactory10metaObjectEv @ 522 NONAME
	_ZNK17QWebPluginFactory17supportsExtensionENS_9ExtensionE @ 523 NONAME
	_ZNK17QWebPluginFactory8MimeTypeeqERKS0_ @ 524 NONAME
	_ZNK18QWebPluginDatabase10metaObjectEv @ 525 NONAME
	_ZNK18QWebPluginDatabase11searchPathsEv @ 526 NONAME
	_ZNK18QWebPluginDatabase7pluginsEv @ 527 NONAME
	_ZNK18QWebSecurityOrigin13databaseQuotaEv @ 528 NONAME
	_ZNK18QWebSecurityOrigin13databaseUsageEv @ 529 NONAME
	_ZNK18QWebSecurityOrigin4hostEv @ 530 NONAME
	_ZNK18QWebSecurityOrigin4portEv @ 531 NONAME
	_ZNK18QWebSecurityOrigin6schemeEv @ 532 NONAME
	_ZNK18QWebSecurityOrigin9databasesEv @ 533 NONAME
	_ZNK20QWebHistoryInterface10metaObjectEv @ 534 NONAME
	_ZNK8QWebPage10isModifiedEv @ 535 NONAME
	_ZNK8QWebPage10metaObjectEv @ 536 NONAME
	_ZNK8QWebPage10totalBytesEv @ 537 NONAME
	_ZNK8QWebPage12currentFrameEv @ 538 NONAME
	_ZNK8QWebPage12selectedTextEv @ 539 NONAME
	_ZNK8QWebPage12viewportSizeEv @ 540 NONAME
	_ZNK8QWebPage13bytesReceivedEv @ 541 NONAME
	_ZNK8QWebPage13pluginFactoryEv @ 542 NONAME
	_ZNK8QWebPage15setViewportSizeERK5QSize @ 543 NONAME
	_ZNK8QWebPage15userAgentForUrlERK4QUrl @ 544 NONAME
	_ZNK8QWebPage16inputMethodQueryEN2Qt16InputMethodQueryE @ 545 NONAME
	_ZNK8QWebPage17isContentEditableEv @ 546 NONAME
	_ZNK8QWebPage17supportsExtensionENS_9ExtensionE @ 547 NONAME
	_ZNK8QWebPage20linkDelegationPolicyEv @ 548 NONAME
	_ZNK8QWebPage20networkAccessManagerEv @ 549 NONAME
	_ZNK8QWebPage21preferredContentsSizeEv @ 550 NONAME
	_ZNK8QWebPage24setPreferredContentsSizeERK5QSize @ 551 NONAME
	_ZNK8QWebPage25forwardUnsupportedContentEv @ 552 NONAME
	_ZNK8QWebPage4viewEv @ 553 NONAME
	_ZNK8QWebPage6actionENS_9WebActionE @ 554 NONAME
	_ZNK8QWebPage7frameAtERK6QPoint @ 555 NONAME
	_ZNK8QWebPage7historyEv @ 556 NONAME
	_ZNK8QWebPage7paletteEv @ 557 NONAME
	_ZNK8QWebPage8settingsEv @ 558 NONAME
	_ZNK8QWebPage9mainFrameEv @ 559 NONAME
	_ZNK8QWebPage9undoStackEv @ 560 NONAME
	_ZNK8QWebView10isModifiedEv @ 561 NONAME
	_ZNK8QWebView10metaObjectEv @ 562 NONAME
	_ZNK8QWebView10pageActionEN8QWebPage9WebActionE @ 563 NONAME
	_ZNK8QWebView10zoomFactorEv @ 564 NONAME
	_ZNK8QWebView11renderHintsEv @ 565 NONAME
	_ZNK8QWebView12selectedTextEv @ 566 NONAME
	_ZNK8QWebView16inputMethodQueryEN2Qt16InputMethodQueryE @ 567 NONAME
	_ZNK8QWebView18textSizeMultiplierEv @ 568 NONAME
	_ZNK8QWebView3urlEv @ 569 NONAME
	_ZNK8QWebView4iconEv @ 570 NONAME
	_ZNK8QWebView4pageEv @ 571 NONAME
	_ZNK8QWebView5printEP8QPrinter @ 572 NONAME
	_ZNK8QWebView5titleEv @ 573 NONAME
	_ZNK8QWebView7historyEv @ 574 NONAME
	_ZNK8QWebView8settingsEv @ 575 NONAME
	_ZNK8QWebView8sizeHintEv @ 576 NONAME
	_ZNK9QWebFrame10metaObjectEv @ 577 NONAME
	_ZNK9QWebFrame10zoomFactorEv @ 578 NONAME
	_ZNK9QWebFrame11childFramesEv @ 579 NONAME
	_ZNK9QWebFrame11parentFrameEv @ 580 NONAME
	_ZNK9QWebFrame11toPlainTextEv @ 581 NONAME
	_ZNK9QWebFrame12contentsSizeEv @ 582 NONAME
	_ZNK9QWebFrame12requestedUrlEv @ 583 NONAME
	_ZNK9QWebFrame14hitTestContentERK6QPoint @ 584 NONAME
	_ZNK9QWebFrame14renderTreeDumpEv @ 585 NONAME
	_ZNK9QWebFrame14scrollBarValueEN2Qt11OrientationE @ 586 NONAME
	_ZNK9QWebFrame14scrollPositionEv @ 587 NONAME
	_ZNK9QWebFrame14securityOriginEv @ 588 NONAME
	_ZNK9QWebFrame15documentElementEv @ 589 NONAME
	_ZNK9QWebFrame15findAllElementsERK7QString @ 590 NONAME
	_ZNK9QWebFrame15scrollBarPolicyEN2Qt11OrientationE @ 591 NONAME
	_ZNK9QWebFrame16findFirstElementERK7QString @ 592 NONAME
	_ZNK9QWebFrame16scrollBarMaximumEN2Qt11OrientationE @ 593 NONAME
	_ZNK9QWebFrame16scrollBarMinimumEN2Qt11OrientationE @ 594 NONAME
	_ZNK9QWebFrame17scrollBarGeometryEN2Qt11OrientationE @ 595 NONAME
	_ZNK9QWebFrame18textSizeMultiplierEv @ 596 NONAME
	_ZNK9QWebFrame20clipRenderToViewportEv @ 597 NONAME
	_ZNK9QWebFrame3posEv @ 598 NONAME
	_ZNK9QWebFrame3urlEv @ 599 NONAME
	_ZNK9QWebFrame4iconEv @ 600 NONAME
	_ZNK9QWebFrame4pageEv @ 601 NONAME
	_ZNK9QWebFrame5titleEv @ 602 NONAME
	_ZNK9QWebFrame6toHtmlEv @ 603 NONAME
	_ZNK9QWebFrame7baseUrlEv @ 604 NONAME
	_ZNK9QWebFrame8geometryEv @ 605 NONAME
	_ZNK9QWebFrame8hasFocusEv @ 606 NONAME
	_ZNK9QWebFrame8metaDataEv @ 607 NONAME
	_ZNK9QWebFrame9frameNameEv @ 608 NONAME
	_ZTI13QWebInspector @ 609 NONAME
	_ZTI16QGraphicsWebView @ 610 NONAME
	_ZTI17QWebPluginFactory @ 611 NONAME
	_ZTI18QWebPluginDatabase @ 612 NONAME
	_ZTI20QWebHistoryInterface @ 613 NONAME
	_ZTI8QWebPage @ 614 NONAME
	_ZTI8QWebView @ 615 NONAME
	_ZTI9QWebFrame @ 616 NONAME
	_ZTV13QWebInspector @ 617 NONAME
	_ZTV16QGraphicsWebView @ 618 NONAME
	_ZTV17QWebPluginFactory @ 619 NONAME
	_ZTV18QWebPluginDatabase @ 620 NONAME
	_ZTV20QWebHistoryInterface @ 621 NONAME
	_ZTV8QWebPage @ 622 NONAME
	_ZTV8QWebView @ 623 NONAME
	_ZTV9QWebFrame @ 624 NONAME
	_ZThn16_N16QGraphicsWebView11setGeometryERK6QRectF @ 625 NONAME
	_ZThn16_N16QGraphicsWebView14updateGeometryEv @ 626 NONAME
	_ZThn16_N16QGraphicsWebViewD0Ev @ 627 NONAME
	_ZThn16_N16QGraphicsWebViewD1Ev @ 628 NONAME
	_ZThn8_N13QWebInspectorD0Ev @ 629 NONAME
	_ZThn8_N13QWebInspectorD1Ev @ 630 NONAME
	_ZThn8_N16QGraphicsWebView10sceneEventEP6QEvent @ 631 NONAME
	_ZThn8_N16QGraphicsWebView10wheelEventEP24QGraphicsSceneWheelEvent @ 632 NONAME
	_ZThn8_N16QGraphicsWebView12focusInEventEP11QFocusEvent @ 633 NONAME
	_ZThn8_N16QGraphicsWebView13dragMoveEventEP27QGraphicsSceneDragDropEvent @ 634 NONAME
	_ZThn8_N16QGraphicsWebView13focusOutEventEP11QFocusEvent @ 635 NONAME
	_ZThn8_N16QGraphicsWebView13keyPressEventEP9QKeyEvent @ 636 NONAME
	_ZThn8_N16QGraphicsWebView14dragEnterEventEP27QGraphicsSceneDragDropEvent @ 637 NONAME
	_ZThn8_N16QGraphicsWebView14dragLeaveEventEP27QGraphicsSceneDragDropEvent @ 638 NONAME
	_ZThn8_N16QGraphicsWebView14hoverMoveEventEP24QGraphicsSceneHoverEvent @ 639 NONAME
	_ZThn8_N16QGraphicsWebView14mouseMoveEventEP24QGraphicsSceneMouseEvent @ 640 NONAME
	_ZThn8_N16QGraphicsWebView15hoverLeaveEventEP24QGraphicsSceneHoverEvent @ 641 NONAME
	_ZThn8_N16QGraphicsWebView15keyReleaseEventEP9QKeyEvent @ 642 NONAME
	_ZThn8_N16QGraphicsWebView15mousePressEventEP24QGraphicsSceneMouseEvent @ 643 NONAME
	_ZThn8_N16QGraphicsWebView16contextMenuEventEP30QGraphicsSceneContextMenuEvent @ 644 NONAME
	_ZThn8_N16QGraphicsWebView16inputMethodEventEP17QInputMethodEvent @ 645 NONAME
	_ZThn8_N16QGraphicsWebView17mouseReleaseEventEP24QGraphicsSceneMouseEvent @ 646 NONAME
	_ZThn8_N16QGraphicsWebView21mouseDoubleClickEventEP24QGraphicsSceneMouseEvent @ 647 NONAME
	_ZThn8_N16QGraphicsWebView5paintEP8QPainterPK24QStyleOptionGraphicsItemP7QWidget @ 648 NONAME
	_ZThn8_N16QGraphicsWebView9dropEventEP27QGraphicsSceneDragDropEvent @ 649 NONAME
	_ZThn8_N16QGraphicsWebViewD0Ev @ 650 NONAME
	_ZThn8_N16QGraphicsWebViewD1Ev @ 651 NONAME
	_ZThn8_N8QWebViewD0Ev @ 652 NONAME
	_ZThn8_N8QWebViewD1Ev @ 653 NONAME
	_ZlsR11QDataStreamRK11QWebHistory @ 654 NONAME
	_ZrsR11QDataStreamR11QWebHistory @ 655 NONAME

